
build/platform/thead/c910/firmware/fw_jump.elf:     file format elf64-littleriscv


Disassembly of section .text:

00000000c0000000 <_fw_start>:
    c0000000:	00050433          	add	s0,a0,zero
    c0000004:	000584b3          	add	s1,a1,zero
    c0000008:	00060933          	add	s2,a2,zero
    c000000c:	5fc000ef          	jal	ra,c0000608 <fw_boot_hart>
    c0000010:	00050833          	add	a6,a0,zero
    c0000014:	00040533          	add	a0,s0,zero
    c0000018:	000485b3          	add	a1,s1,zero
    c000001c:	00090633          	add	a2,s2,zero
    c0000020:	58fd                	li	a7,-1
    c0000022:	01180463          	beq	a6,a7,c000002a <_try_lottery>
    c0000026:	13051d63          	bne	a0,a6,c0000160 <_wait_relocate_copy_done>

00000000c000002a <_try_lottery>:
    c000002a:	00000817          	auipc	a6,0x0
    c000002e:	44e80813          	addi	a6,a6,1102 # c0000478 <_relocate_lottery>
    c0000032:	4885                	li	a7,1
    c0000034:	0118282f          	amoadd.w	a6,a7,(a6)
    c0000038:	12081463          	bnez	a6,c0000160 <_wait_relocate_copy_done>
    c000003c:	00000297          	auipc	t0,0x0
    c0000040:	44c28293          	addi	t0,t0,1100 # c0000488 <_load_start>
    c0000044:	00000317          	auipc	t1,0x0
    c0000048:	fbc30313          	addi	t1,t1,-68 # c0000000 <_fw_start>
    c000004c:	0062b023          	sd	t1,0(t0)

00000000c0000050 <_relocate>:
    c0000050:	00000297          	auipc	t0,0x0
    c0000054:	44028293          	addi	t0,t0,1088 # c0000490 <_link_start>
    c0000058:	0002b283          	ld	t0,0(t0)
    c000005c:	00000317          	auipc	t1,0x0
    c0000060:	43c30313          	addi	t1,t1,1084 # c0000498 <_link_end>
    c0000064:	00033303          	ld	t1,0(t1)
    c0000068:	00000397          	auipc	t2,0x0
    c000006c:	42038393          	addi	t2,t2,1056 # c0000488 <_load_start>
    c0000070:	0003b383          	ld	t2,0(t2)
    c0000074:	40530e33          	sub	t3,t1,t0
    c0000078:	9e1e                	add	t3,t3,t2
    c000007a:	12728363          	beq	t0,t2,c00001a0 <_relocate_done>
    c000007e:	00000e97          	auipc	t4,0x0
    c0000082:	122e8e93          	addi	t4,t4,290 # c00001a0 <_relocate_done>
    c0000086:	407e8eb3          	sub	t4,t4,t2
    c000008a:	9e96                	add	t4,t4,t0
    c000008c:	0653c663          	blt	t2,t0,c00000f8 <_relocate_copy_to_upper>

00000000c0000090 <_relocate_copy_to_lower>:
    c0000090:	0463db63          	bge	t2,t1,c00000e6 <_relocate_copy_to_lower_loop>
    c0000094:	00000e17          	auipc	t3,0x0
    c0000098:	3e4e0e13          	addi	t3,t3,996 # c0000478 <_relocate_lottery>
    c000009c:	007e4563          	blt	t3,t2,c00000a6 <_relocate_copy_to_lower+0x16>
    c00000a0:	006e5363          	bge	t3,t1,c00000a6 <_relocate_copy_to_lower+0x16>
    c00000a4:	a935                	j	c00004e0 <_start_hang>
    c00000a6:	00000e17          	auipc	t3,0x0
    c00000aa:	3dae0e13          	addi	t3,t3,986 # c0000480 <_boot_status>
    c00000ae:	007e4563          	blt	t3,t2,c00000b8 <_relocate_copy_to_lower+0x28>
    c00000b2:	006e5363          	bge	t3,t1,c00000b8 <_relocate_copy_to_lower+0x28>
    c00000b6:	a12d                	j	c00004e0 <_start_hang>
    c00000b8:	00000e17          	auipc	t3,0x0
    c00000bc:	f98e0e13          	addi	t3,t3,-104 # c0000050 <_relocate>
    c00000c0:	00000f17          	auipc	t5,0x0
    c00000c4:	0e0f0f13          	addi	t5,t5,224 # c00001a0 <_relocate_done>
    c00000c8:	007e4563          	blt	t3,t2,c00000d2 <_relocate_copy_to_lower+0x42>
    c00000cc:	006e5363          	bge	t3,t1,c00000d2 <_relocate_copy_to_lower+0x42>
    c00000d0:	a901                	j	c00004e0 <_start_hang>
    c00000d2:	007f4563          	blt	t5,t2,c00000dc <_relocate_copy_to_lower+0x4c>
    c00000d6:	006f5363          	bge	t5,t1,c00000dc <_relocate_copy_to_lower+0x4c>
    c00000da:	a119                	j	c00004e0 <_start_hang>
    c00000dc:	01c3c563          	blt	t2,t3,c00000e6 <_relocate_copy_to_lower_loop>
    c00000e0:	01e3d363          	bge	t2,t5,c00000e6 <_relocate_copy_to_lower_loop>
    c00000e4:	aef5                	j	c00004e0 <_start_hang>

00000000c00000e6 <_relocate_copy_to_lower_loop>:
    c00000e6:	0003be03          	ld	t3,0(t2)
    c00000ea:	01c2b023          	sd	t3,0(t0)
    c00000ee:	02a1                	addi	t0,t0,8
    c00000f0:	03a1                	addi	t2,t2,8
    c00000f2:	fe62cae3          	blt	t0,t1,c00000e6 <_relocate_copy_to_lower_loop>
    c00000f6:	8e82                	jr	t4

00000000c00000f8 <_relocate_copy_to_upper>:
    c00000f8:	05c2db63          	bge	t0,t3,c000014e <_relocate_copy_to_upper_loop>
    c00000fc:	00000397          	auipc	t2,0x0
    c0000100:	37c38393          	addi	t2,t2,892 # c0000478 <_relocate_lottery>
    c0000104:	0053c563          	blt	t2,t0,c000010e <_relocate_copy_to_upper+0x16>
    c0000108:	01c3d363          	bge	t2,t3,c000010e <_relocate_copy_to_upper+0x16>
    c000010c:	aed1                	j	c00004e0 <_start_hang>
    c000010e:	00000397          	auipc	t2,0x0
    c0000112:	37238393          	addi	t2,t2,882 # c0000480 <_boot_status>
    c0000116:	0053c563          	blt	t2,t0,c0000120 <_relocate_copy_to_upper+0x28>
    c000011a:	01c3d363          	bge	t2,t3,c0000120 <_relocate_copy_to_upper+0x28>
    c000011e:	a6c9                	j	c00004e0 <_start_hang>
    c0000120:	00000397          	auipc	t2,0x0
    c0000124:	f3038393          	addi	t2,t2,-208 # c0000050 <_relocate>
    c0000128:	00000f17          	auipc	t5,0x0
    c000012c:	078f0f13          	addi	t5,t5,120 # c00001a0 <_relocate_done>
    c0000130:	0053c563          	blt	t2,t0,c000013a <_relocate_copy_to_upper+0x42>
    c0000134:	01c3d363          	bge	t2,t3,c000013a <_relocate_copy_to_upper+0x42>
    c0000138:	a665                	j	c00004e0 <_start_hang>
    c000013a:	005f4563          	blt	t5,t0,c0000144 <_relocate_copy_to_upper+0x4c>
    c000013e:	01cf5363          	bge	t5,t3,c0000144 <_relocate_copy_to_upper+0x4c>
    c0000142:	ae79                	j	c00004e0 <_start_hang>
    c0000144:	0072c563          	blt	t0,t2,c000014e <_relocate_copy_to_upper_loop>
    c0000148:	01e2d363          	bge	t0,t5,c000014e <_relocate_copy_to_upper_loop>
    c000014c:	ae51                	j	c00004e0 <_start_hang>

00000000c000014e <_relocate_copy_to_upper_loop>:
    c000014e:	1e61                	addi	t3,t3,-8
    c0000150:	1361                	addi	t1,t1,-8
    c0000152:	000e3383          	ld	t2,0(t3)
    c0000156:	00733023          	sd	t2,0(t1)
    c000015a:	fe62cae3          	blt	t0,t1,c000014e <_relocate_copy_to_upper_loop>
    c000015e:	8e82                	jr	t4

00000000c0000160 <_wait_relocate_copy_done>:
    c0000160:	00000297          	auipc	t0,0x0
    c0000164:	ea028293          	addi	t0,t0,-352 # c0000000 <_fw_start>
    c0000168:	00000317          	auipc	t1,0x0
    c000016c:	32830313          	addi	t1,t1,808 # c0000490 <_link_start>
    c0000170:	00033303          	ld	t1,0(t1)
    c0000174:	28628163          	beq	t0,t1,c00003f6 <_wait_for_boot_hart>
    c0000178:	00000397          	auipc	t2,0x0
    c000017c:	30838393          	addi	t2,t2,776 # c0000480 <_boot_status>
    c0000180:	00000e17          	auipc	t3,0x0
    c0000184:	276e0e13          	addi	t3,t3,630 # c00003f6 <_wait_for_boot_hart>
    c0000188:	405e0e33          	sub	t3,t3,t0
    c000018c:	9e1a                	add	t3,t3,t1
    c000018e:	4e85                	li	t4,1
    c0000190:	0003bf03          	ld	t5,0(t2)
    c0000194:	0001                	nop
    c0000196:	0001                	nop
    c0000198:	0001                	nop
    c000019a:	ffdf4ae3          	blt	t5,t4,c000018e <_wait_relocate_copy_done+0x2e>
    c000019e:	8e02                	jr	t3

00000000c00001a0 <_relocate_done>:
    c00001a0:	00000297          	auipc	t0,0x0
    c00001a4:	2e028293          	addi	t0,t0,736 # c0000480 <_boot_status>
    c00001a8:	00000317          	auipc	t1,0x0
    c00001ac:	2e830313          	addi	t1,t1,744 # c0000490 <_link_start>
    c00001b0:	00033303          	ld	t1,0(t1)
    c00001b4:	00000397          	auipc	t2,0x0
    c00001b8:	2d438393          	addi	t2,t2,724 # c0000488 <_load_start>
    c00001bc:	0003b383          	ld	t2,0(t2)
    c00001c0:	406282b3          	sub	t0,t0,t1
    c00001c4:	929e                	add	t0,t0,t2
    c00001c6:	4305                	li	t1,1
    c00001c8:	0062b023          	sd	t1,0(t0)
    c00001cc:	0330000f          	fence	rw,rw
    c00001d0:	4081                	li	ra,0
    c00001d2:	3f6000ef          	jal	ra,c00005c8 <_reset_regs>
    c00001d6:	00050433          	add	s0,a0,zero
    c00001da:	000584b3          	add	s1,a1,zero
    c00001de:	00060933          	add	s2,a2,zero
    c00001e2:	000689b3          	add	s3,a3,zero
    c00001e6:	00070a33          	add	s4,a4,zero
    c00001ea:	426000ef          	jal	ra,c0000610 <fw_save_info>
    c00001ee:	00040533          	add	a0,s0,zero
    c00001f2:	000485b3          	add	a1,s1,zero
    c00001f6:	00090633          	add	a2,s2,zero
    c00001fa:	000986b3          	add	a3,s3,zero
    c00001fe:	000a0733          	add	a4,s4,zero
    c0000202:	00009717          	auipc	a4,0x9
    c0000206:	44670713          	addi	a4,a4,1094 # c0009648 <platform>
    c000020a:	05076b83          	lwu	s7,80(a4)
    c000020e:	05476c03          	lwu	s8,84(a4)
    c0000212:	0000c217          	auipc	tp,0xc
    c0000216:	dee20213          	addi	tp,tp,-530 # c000c000 <_fw_end>
    c000021a:	038b87b3          	mul	a5,s7,s8
    c000021e:	923e                	add	tp,tp,a5
    c0000220:	00020e33          	add	t3,tp,zero
    c0000224:	4385                	li	t2,1
    c0000226:	4301                	li	t1,0

00000000c0000228 <_scratch_init>:
    c0000228:	000e0233          	add	tp,t3,zero
    c000022c:	026c07b3          	mul	a5,s8,t1
    c0000230:	40f20233          	sub	tp,tp,a5
    c0000234:	20000793          	li	a5,512
    c0000238:	40f20233          	sub	tp,tp,a5
    c000023c:	00000717          	auipc	a4,0x0
    c0000240:	dc470713          	addi	a4,a4,-572 # c0000000 <_fw_start>
    c0000244:	0000c797          	auipc	a5,0xc
    c0000248:	dbc78793          	addi	a5,a5,-580 # c000c000 <_fw_end>
    c000024c:	038b82b3          	mul	t0,s7,s8
    c0000250:	9796                	add	a5,a5,t0
    c0000252:	8f99                	sub	a5,a5,a4
    c0000254:	00e23023          	sd	a4,0(tp) # 0 <_fw_start-0xc0000000>
    c0000258:	00f23423          	sd	a5,8(tp) # 8 <_fw_start-0xbffffff8>
    c000025c:	00050433          	add	s0,a0,zero
    c0000260:	000584b3          	add	s1,a1,zero
    c0000264:	00060933          	add	s2,a2,zero
    c0000268:	3b8000ef          	jal	ra,c0000620 <fw_next_arg1>
    c000026c:	00a23823          	sd	a0,16(tp) # 10 <_fw_start-0xbffffff0>
    c0000270:	00040533          	add	a0,s0,zero
    c0000274:	000485b3          	add	a1,s1,zero
    c0000278:	00090633          	add	a2,s2,zero
    c000027c:	00050433          	add	s0,a0,zero
    c0000280:	000584b3          	add	s1,a1,zero
    c0000284:	00060933          	add	s2,a2,zero
    c0000288:	3a0000ef          	jal	ra,c0000628 <fw_next_addr>
    c000028c:	00a23c23          	sd	a0,24(tp) # 18 <_fw_start-0xbfffffe8>
    c0000290:	00040533          	add	a0,s0,zero
    c0000294:	000485b3          	add	a1,s1,zero
    c0000298:	00090633          	add	a2,s2,zero
    c000029c:	00050433          	add	s0,a0,zero
    c00002a0:	000584b3          	add	s1,a1,zero
    c00002a4:	00060933          	add	s2,a2,zero
    c00002a8:	390000ef          	jal	ra,c0000638 <fw_next_mode>
    c00002ac:	02a23023          	sd	a0,32(tp) # 20 <_fw_start-0xbfffffe0>
    c00002b0:	00040533          	add	a0,s0,zero
    c00002b4:	000485b3          	add	a1,s1,zero
    c00002b8:	00090633          	add	a2,s2,zero
    c00002bc:	00000717          	auipc	a4,0x0
    c00002c0:	15270713          	addi	a4,a4,338 # c000040e <_start_warm>
    c00002c4:	02e23423          	sd	a4,40(tp) # 28 <_fw_start-0xbfffffd8>
    c00002c8:	00009717          	auipc	a4,0x9
    c00002cc:	38070713          	addi	a4,a4,896 # c0009648 <platform>
    c00002d0:	02e23823          	sd	a4,48(tp) # 30 <_fw_start-0xbfffffd0>
    c00002d4:	00000717          	auipc	a4,0x0
    c00002d8:	1cc70713          	addi	a4,a4,460 # c00004a0 <_hartid_to_scratch>
    c00002dc:	02e23c23          	sd	a4,56(tp) # 38 <_fw_start-0xbfffffc8>
    c00002e0:	04023023          	sd	zero,64(tp) # 40 <_fw_start-0xbfffffc0>
    c00002e4:	00050433          	add	s0,a0,zero
    c00002e8:	000584b3          	add	s1,a1,zero
    c00002ec:	00060933          	add	s2,a2,zero
    c00002f0:	00000733          	add	a4,zero,zero
    c00002f4:	34c000ef          	jal	ra,c0000640 <fw_options>
    c00002f8:	8f49                	or	a4,a4,a0
    c00002fa:	04e23423          	sd	a4,72(tp) # 48 <_fw_start-0xbfffffb8>
    c00002fe:	00040533          	add	a0,s0,zero
    c0000302:	000485b3          	add	a1,s1,zero
    c0000306:	00090633          	add	a2,s2,zero
    c000030a:	931e                	add	t1,t1,t2
    c000030c:	f1734ee3          	blt	t1,s7,c0000228 <_scratch_init>
    c0000310:	0000b717          	auipc	a4,0xb
    c0000314:	cf070713          	addi	a4,a4,-784 # c000b000 <_bss_start>
    c0000318:	0000b797          	auipc	a5,0xb
    c000031c:	e4078793          	addi	a5,a5,-448 # c000b158 <_bss_end>

00000000c0000320 <_bss_zero>:
    c0000320:	00073023          	sd	zero,0(a4)
    c0000324:	0721                	addi	a4,a4,8
    c0000326:	fef74de3          	blt	a4,a5,c0000320 <_bss_zero>
    c000032a:	00050433          	add	s0,a0,zero
    c000032e:	000584b3          	add	s1,a1,zero
    c0000332:	00060933          	add	s2,a2,zero
    c0000336:	2e2000ef          	jal	ra,c0000618 <fw_prev_arg1>
    c000033a:	00050333          	add	t1,a0,zero
    c000033e:	00040533          	add	a0,s0,zero
    c0000342:	000485b3          	add	a1,s1,zero
    c0000346:	00090633          	add	a2,s2,zero
    c000034a:	00030463          	beqz	t1,c0000352 <_prev_arg1_override_done>
    c000034e:	000305b3          	add	a1,t1,zero

00000000c0000352 <_prev_arg1_override_done>:
    c0000352:	c9c1                	beqz	a1,c00003e2 <_fdt_reloc_done>
    c0000354:	56e1                	li	a3,-8
    c0000356:	0ff00713          	li	a4,255
    c000035a:	00050433          	add	s0,a0,zero
    c000035e:	000584b3          	add	s1,a1,zero
    c0000362:	00060933          	add	s2,a2,zero
    c0000366:	2ba000ef          	jal	ra,c0000620 <fw_next_arg1>
    c000036a:	00050333          	add	t1,a0,zero
    c000036e:	00040533          	add	a0,s0,zero
    c0000372:	000485b3          	add	a1,s1,zero
    c0000376:	00090633          	add	a2,s2,zero
    c000037a:	06030463          	beqz	t1,c00003e2 <_fdt_reloc_done>
    c000037e:	06b30263          	beq	t1,a1,c00003e2 <_fdt_reloc_done>
    c0000382:	00d37333          	and	t1,t1,a3
    c0000386:	000582b3          	add	t0,a1,zero
    c000038a:	00d2f2b3          	and	t0,t0,a3
    c000038e:	0042e383          	lwu	t2,4(t0)
    c0000392:	00038e33          	add	t3,t2,zero
    c0000396:	010e5e13          	srli	t3,t3,0x10
    c000039a:	00ee7e33          	and	t3,t3,a4
    c000039e:	0e22                	slli	t3,t3,0x8
    c00003a0:	00038eb3          	add	t4,t2,zero
    c00003a4:	008ede93          	srli	t4,t4,0x8
    c00003a8:	00eefeb3          	and	t4,t4,a4
    c00003ac:	0ec2                	slli	t4,t4,0x10
    c00003ae:	00038f33          	add	t5,t2,zero
    c00003b2:	00ef7f33          	and	t5,t5,a4
    c00003b6:	0f62                	slli	t5,t5,0x18
    c00003b8:	0183d393          	srli	t2,t2,0x18
    c00003bc:	00e3f3b3          	and	t2,t2,a4
    c00003c0:	01c3e3b3          	or	t2,t2,t3
    c00003c4:	01d3e3b3          	or	t2,t2,t4
    c00003c8:	01e3e3b3          	or	t2,t2,t5
    c00003cc:	939a                	add	t2,t2,t1
    c00003ce:	00735a63          	bge	t1,t2,c00003e2 <_fdt_reloc_done>

00000000c00003d2 <_fdt_reloc_again>:
    c00003d2:	0002be03          	ld	t3,0(t0)
    c00003d6:	01c33023          	sd	t3,0(t1)
    c00003da:	02a1                	addi	t0,t0,8
    c00003dc:	0321                	addi	t1,t1,8
    c00003de:	fe734ae3          	blt	t1,t2,c00003d2 <_fdt_reloc_again>

00000000c00003e2 <_fdt_reloc_done>:
    c00003e2:	4289                	li	t0,2
    c00003e4:	00000317          	auipc	t1,0x0
    c00003e8:	09c30313          	addi	t1,t1,156 # c0000480 <_boot_status>
    c00003ec:	00533023          	sd	t0,0(t1)
    c00003f0:	0330000f          	fence	rw,rw
    c00003f4:	a829                	j	c000040e <_start_warm>

00000000c00003f6 <_wait_for_boot_hart>:
    c00003f6:	4289                	li	t0,2
    c00003f8:	00000317          	auipc	t1,0x0
    c00003fc:	08830313          	addi	t1,t1,136 # c0000480 <_boot_status>
    c0000400:	00033303          	ld	t1,0(t1)
    c0000404:	0001                	nop
    c0000406:	0001                	nop
    c0000408:	0001                	nop
    c000040a:	fe6296e3          	bne	t0,t1,c00003f6 <_wait_for_boot_hart>

00000000c000040e <_start_warm>:
    c000040e:	4081                	li	ra,0
    c0000410:	1b8000ef          	jal	ra,c00005c8 <_reset_regs>
    c0000414:	30401073          	csrw	mie,zero
    c0000418:	34401073          	csrw	mip,zero
    c000041c:	00009717          	auipc	a4,0x9
    c0000420:	22c70713          	addi	a4,a4,556 # c0009648 <platform>
    c0000424:	05076b83          	lwu	s7,80(a4)
    c0000428:	05476c03          	lwu	s8,84(a4)
    c000042c:	f1402b73          	csrr	s6,mhartid
    c0000430:	0b7b5863          	bge	s6,s7,c00004e0 <_start_hang>
    c0000434:	0000c217          	auipc	tp,0xc
    c0000438:	bcc20213          	addi	tp,tp,-1076 # c000c000 <_fw_end>
    c000043c:	038b87b3          	mul	a5,s7,s8
    c0000440:	923e                	add	tp,tp,a5
    c0000442:	036c07b3          	mul	a5,s8,s6
    c0000446:	40f20233          	sub	tp,tp,a5
    c000044a:	20000793          	li	a5,512
    c000044e:	40f20233          	sub	tp,tp,a5
    c0000452:	34021073          	csrw	mscratch,tp
    c0000456:	00020133          	add	sp,tp,zero
    c000045a:	00000717          	auipc	a4,0x0
    c000045e:	08e70713          	addi	a4,a4,142 # c00004e8 <_trap_handler>
    c0000462:	30571073          	csrw	mtvec,a4
    c0000466:	305027f3          	csrr	a5,mtvec
    c000046a:	fef71ee3          	bne	a4,a5,c0000466 <_start_warm+0x58>
    c000046e:	34002573          	csrr	a0,mscratch
    c0000472:	1de000ef          	jal	ra,c0000650 <sbi_init>
    c0000476:	a0ad                	j	c00004e0 <_start_hang>

00000000c0000478 <_relocate_lottery>:
	...

00000000c0000480 <_boot_status>:
	...

00000000c0000488 <_load_start>:
    c0000488:	0000                	unimp
    c000048a:	c000                	sw	s0,0(s0)
    c000048c:	0000                	unimp
	...

00000000c0000490 <_link_start>:
    c0000490:	0000                	unimp
    c0000492:	c000                	sw	s0,0(s0)
    c0000494:	0000                	unimp
	...

00000000c0000498 <_link_end>:
    c0000498:	c000                	sw	s0,0(s0)
    c000049a:	c000                	sw	s0,0(s0)
    c000049c:	0000                	unimp
	...

00000000c00004a0 <_hartid_to_scratch>:
    c00004a0:	1121                	addi	sp,sp,-24
    c00004a2:	e022                	sd	s0,0(sp)
    c00004a4:	e426                	sd	s1,8(sp)
    c00004a6:	e84a                	sd	s2,16(sp)
    c00004a8:	00009917          	auipc	s2,0x9
    c00004ac:	1a090913          	addi	s2,s2,416 # c0009648 <platform>
    c00004b0:	05496403          	lwu	s0,84(s2)
    c00004b4:	05096903          	lwu	s2,80(s2)
    c00004b8:	02890933          	mul	s2,s2,s0
    c00004bc:	0000c497          	auipc	s1,0xc
    c00004c0:	b4448493          	addi	s1,s1,-1212 # c000c000 <_fw_end>
    c00004c4:	94ca                	add	s1,s1,s2
    c00004c6:	02a40933          	mul	s2,s0,a0
    c00004ca:	412484b3          	sub	s1,s1,s2
    c00004ce:	20000913          	li	s2,512
    c00004d2:	41248533          	sub	a0,s1,s2
    c00004d6:	6402                	ld	s0,0(sp)
    c00004d8:	64a2                	ld	s1,8(sp)
    c00004da:	6942                	ld	s2,16(sp)
    c00004dc:	0161                	addi	sp,sp,24
    c00004de:	8082                	ret

00000000c00004e0 <_start_hang>:
    c00004e0:	10500073          	wfi
    c00004e4:	bff5                	j	c00004e0 <_start_hang>
    c00004e6:	0001                	nop

00000000c00004e8 <_trap_handler>:
    c00004e8:	34021273          	csrrw	tp,mscratch,tp
    c00004ec:	04523023          	sd	t0,64(tp) # 40 <_fw_start-0xbfffffc0>
    c00004f0:	300022f3          	csrr	t0,mstatus
    c00004f4:	00b2d293          	srli	t0,t0,0xb
    c00004f8:	0032f293          	andi	t0,t0,3
    c00004fc:	0032c293          	xori	t0,t0,3
    c0000500:	00028763          	beqz	t0,c000050e <_trap_handler_m_mode>

00000000c0000504 <_trap_handler_s_mode>:
    c0000504:	000102b3          	add	t0,sp,zero
    c0000508:	ee820113          	addi	sp,tp,-280 # fffffffffffffee8 <_fw_end+0xffffffff3fff3ee8>
    c000050c:	a029                	j	c0000516 <_trap_handler_all_mode>

00000000c000050e <_trap_handler_m_mode>:
    c000050e:	000102b3          	add	t0,sp,zero
    c0000512:	ee810113          	addi	sp,sp,-280

00000000c0000516 <_trap_handler_all_mode>:
    c0000516:	e816                	sd	t0,16(sp)
    c0000518:	04023283          	ld	t0,64(tp) # 40 <_fw_start-0xbfffffc0>
    c000051c:	f416                	sd	t0,40(sp)
    c000051e:	34021273          	csrrw	tp,mscratch,tp
    c0000522:	341022f3          	csrr	t0,mepc
    c0000526:	e216                	sd	t0,256(sp)
    c0000528:	300022f3          	csrr	t0,mstatus
    c000052c:	e616                	sd	t0,264(sp)
    c000052e:	ea02                	sd	zero,272(sp)
    c0000530:	e002                	sd	zero,0(sp)
    c0000532:	e406                	sd	ra,8(sp)
    c0000534:	ec0e                	sd	gp,24(sp)
    c0000536:	f012                	sd	tp,32(sp)
    c0000538:	f81a                	sd	t1,48(sp)
    c000053a:	fc1e                	sd	t2,56(sp)
    c000053c:	e0a2                	sd	s0,64(sp)
    c000053e:	e4a6                	sd	s1,72(sp)
    c0000540:	e8aa                	sd	a0,80(sp)
    c0000542:	ecae                	sd	a1,88(sp)
    c0000544:	f0b2                	sd	a2,96(sp)
    c0000546:	f4b6                	sd	a3,104(sp)
    c0000548:	f8ba                	sd	a4,112(sp)
    c000054a:	fcbe                	sd	a5,120(sp)
    c000054c:	e142                	sd	a6,128(sp)
    c000054e:	e546                	sd	a7,136(sp)
    c0000550:	e94a                	sd	s2,144(sp)
    c0000552:	ed4e                	sd	s3,152(sp)
    c0000554:	f152                	sd	s4,160(sp)
    c0000556:	f556                	sd	s5,168(sp)
    c0000558:	f95a                	sd	s6,176(sp)
    c000055a:	fd5e                	sd	s7,184(sp)
    c000055c:	e1e2                	sd	s8,192(sp)
    c000055e:	e5e6                	sd	s9,200(sp)
    c0000560:	e9ea                	sd	s10,208(sp)
    c0000562:	edee                	sd	s11,216(sp)
    c0000564:	f1f2                	sd	t3,224(sp)
    c0000566:	f5f6                	sd	t4,232(sp)
    c0000568:	f9fa                	sd	t5,240(sp)
    c000056a:	fdfe                	sd	t6,248(sp)
    c000056c:	00010533          	add	a0,sp,zero
    c0000570:	340025f3          	csrr	a1,mscratch
    c0000574:	6ac020ef          	jal	ra,c0002c20 <sbi_trap_handler>
    c0000578:	60a2                	ld	ra,8(sp)
    c000057a:	61e2                	ld	gp,24(sp)
    c000057c:	7202                	ld	tp,32(sp)
    c000057e:	7342                	ld	t1,48(sp)
    c0000580:	73e2                	ld	t2,56(sp)
    c0000582:	6406                	ld	s0,64(sp)
    c0000584:	64a6                	ld	s1,72(sp)
    c0000586:	6546                	ld	a0,80(sp)
    c0000588:	65e6                	ld	a1,88(sp)
    c000058a:	7606                	ld	a2,96(sp)
    c000058c:	76a6                	ld	a3,104(sp)
    c000058e:	7746                	ld	a4,112(sp)
    c0000590:	77e6                	ld	a5,120(sp)
    c0000592:	680a                	ld	a6,128(sp)
    c0000594:	68aa                	ld	a7,136(sp)
    c0000596:	694a                	ld	s2,144(sp)
    c0000598:	69ea                	ld	s3,152(sp)
    c000059a:	7a0a                	ld	s4,160(sp)
    c000059c:	7aaa                	ld	s5,168(sp)
    c000059e:	7b4a                	ld	s6,176(sp)
    c00005a0:	7bea                	ld	s7,184(sp)
    c00005a2:	6c0e                	ld	s8,192(sp)
    c00005a4:	6cae                	ld	s9,200(sp)
    c00005a6:	6d4e                	ld	s10,208(sp)
    c00005a8:	6dee                	ld	s11,216(sp)
    c00005aa:	7e0e                	ld	t3,224(sp)
    c00005ac:	7eae                	ld	t4,232(sp)
    c00005ae:	7f4e                	ld	t5,240(sp)
    c00005b0:	7fee                	ld	t6,248(sp)
    c00005b2:	6292                	ld	t0,256(sp)
    c00005b4:	34129073          	csrw	mepc,t0
    c00005b8:	62b2                	ld	t0,264(sp)
    c00005ba:	30029073          	csrw	mstatus,t0
    c00005be:	72a2                	ld	t0,40(sp)
    c00005c0:	6142                	ld	sp,16(sp)
    c00005c2:	30200073          	mret
    c00005c6:	0001                	nop

00000000c00005c8 <_reset_regs>:
    c00005c8:	0000100f          	fence.i
    c00005cc:	4101                	li	sp,0
    c00005ce:	4181                	li	gp,0
    c00005d0:	4201                	li	tp,0
    c00005d2:	4281                	li	t0,0
    c00005d4:	4301                	li	t1,0
    c00005d6:	4381                	li	t2,0
    c00005d8:	4401                	li	s0,0
    c00005da:	4481                	li	s1,0
    c00005dc:	4681                	li	a3,0
    c00005de:	4701                	li	a4,0
    c00005e0:	4781                	li	a5,0
    c00005e2:	4801                	li	a6,0
    c00005e4:	4881                	li	a7,0
    c00005e6:	4901                	li	s2,0
    c00005e8:	4981                	li	s3,0
    c00005ea:	4a01                	li	s4,0
    c00005ec:	4a81                	li	s5,0
    c00005ee:	4b01                	li	s6,0
    c00005f0:	4b81                	li	s7,0
    c00005f2:	4c01                	li	s8,0
    c00005f4:	4c81                	li	s9,0
    c00005f6:	4d01                	li	s10,0
    c00005f8:	4d81                	li	s11,0
    c00005fa:	4e01                	li	t3,0
    c00005fc:	4e81                	li	t4,0
    c00005fe:	4f01                	li	t5,0
    c0000600:	4f81                	li	t6,0
    c0000602:	34005073          	csrwi	mscratch,0
    c0000606:	8082                	ret

00000000c0000608 <fw_boot_hart>:
    c0000608:	557d                	li	a0,-1
    c000060a:	8082                	ret
    c000060c:	00000013          	nop

00000000c0000610 <fw_save_info>:
    c0000610:	8082                	ret
    c0000612:	0001                	nop
    c0000614:	00000013          	nop

00000000c0000618 <fw_prev_arg1>:
    c0000618:	00000533          	add	a0,zero,zero
    c000061c:	8082                	ret
    c000061e:	0001                	nop

00000000c0000620 <fw_next_arg1>:
    c0000620:	00058533          	add	a0,a1,zero
    c0000624:	8082                	ret
    c0000626:	0001                	nop

00000000c0000628 <fw_next_addr>:
    c0000628:	00000517          	auipc	a0,0x0
    c000062c:	02050513          	addi	a0,a0,32 # c0000648 <_jump_addr>
    c0000630:	6108                	ld	a0,0(a0)
    c0000632:	8082                	ret
    c0000634:	00000013          	nop

00000000c0000638 <fw_next_mode>:
    c0000638:	4505                	li	a0,1
    c000063a:	8082                	ret
    c000063c:	00000013          	nop

00000000c0000640 <fw_options>:
    c0000640:	00000533          	add	a0,zero,zero
    c0000644:	8082                	ret
    c0000646:	0001                	nop

00000000c0000648 <_jump_addr>:
    c0000648:	0000                	unimp
    c000064a:	c020                	sw	s0,64(s0)
    c000064c:	0000                	unimp
	...

00000000c0000650 <sbi_init>:
    c0000650:	7175                	addi	sp,sp,-144
    c0000652:	e122                	sd	s0,128(sp)
    c0000654:	fca6                	sd	s1,120(sp)
    c0000656:	f8ca                	sd	s2,112(sp)
    c0000658:	e506                	sd	ra,136(sp)
    c000065a:	f4ce                	sd	s3,104(sp)
    c000065c:	f0d2                	sd	s4,96(sp)
    c000065e:	ecd6                	sd	s5,88(sp)
    c0000660:	e8da                	sd	s6,80(sp)
    c0000662:	e4de                	sd	s7,72(sp)
    c0000664:	e0e2                	sd	s8,64(sp)
    c0000666:	0900                	addi	s0,sp,144
    c0000668:	84aa                	mv	s1,a0
    c000066a:	68d050ef          	jal	ra,c00064f6 <sbi_current_hartid>
    c000066e:	0314c703          	lbu	a4,49(s1)
    c0000672:	0304c683          	lbu	a3,48(s1)
    c0000676:	0324c783          	lbu	a5,50(s1)
    c000067a:	0334c583          	lbu	a1,51(s1)
    c000067e:	0722                	slli	a4,a4,0x8
    c0000680:	0344c603          	lbu	a2,52(s1)
    c0000684:	8f55                	or	a4,a4,a3
    c0000686:	07c2                	slli	a5,a5,0x10
    c0000688:	0354c683          	lbu	a3,53(s1)
    c000068c:	8fd9                	or	a5,a5,a4
    c000068e:	05e2                	slli	a1,a1,0x18
    c0000690:	0364c703          	lbu	a4,54(s1)
    c0000694:	8ddd                	or	a1,a1,a5
    c0000696:	1602                	slli	a2,a2,0x20
    c0000698:	0374c783          	lbu	a5,55(s1)
    c000069c:	8e4d                	or	a2,a2,a1
    c000069e:	16a2                	slli	a3,a3,0x28
    c00006a0:	8ed1                	or	a3,a3,a2
    c00006a2:	1742                	slli	a4,a4,0x30
    c00006a4:	8f55                	or	a4,a4,a3
    c00006a6:	17e2                	slli	a5,a5,0x38
    c00006a8:	8fd9                	or	a5,a5,a4
    c00006aa:	0005091b          	sext.w	s2,a0
    c00006ae:	c7a9                	beqz	a5,c00006f8 <sbi_init+0xa8>
    c00006b0:	0597c683          	lbu	a3,89(a5)
    c00006b4:	0587c603          	lbu	a2,88(a5)
    c00006b8:	05a7c703          	lbu	a4,90(a5)
    c00006bc:	05b7c503          	lbu	a0,91(a5)
    c00006c0:	05c7c583          	lbu	a1,92(a5)
    c00006c4:	06a2                	slli	a3,a3,0x8
    c00006c6:	8ed1                	or	a3,a3,a2
    c00006c8:	0742                	slli	a4,a4,0x10
    c00006ca:	05d7c603          	lbu	a2,93(a5)
    c00006ce:	8f55                	or	a4,a4,a3
    c00006d0:	0562                	slli	a0,a0,0x18
    c00006d2:	05e7c683          	lbu	a3,94(a5)
    c00006d6:	8d59                	or	a0,a0,a4
    c00006d8:	1582                	slli	a1,a1,0x20
    c00006da:	05f7c703          	lbu	a4,95(a5)
    c00006de:	8dc9                	or	a1,a1,a0
    c00006e0:	02861793          	slli	a5,a2,0x28
    c00006e4:	8fcd                	or	a5,a5,a1
    c00006e6:	16c2                	slli	a3,a3,0x30
    c00006e8:	8edd                	or	a3,a3,a5
    c00006ea:	1762                	slli	a4,a4,0x38
    c00006ec:	4785                	li	a5,1
    c00006ee:	012797bb          	sllw	a5,a5,s2
    c00006f2:	8f55                	or	a4,a4,a3
    c00006f4:	8ff9                	and	a5,a5,a4
    c00006f6:	e7b5                	bnez	a5,c0000762 <sbi_init+0x112>
    c00006f8:	0000ba17          	auipc	s4,0xb
    c00006fc:	908a0a13          	addi	s4,s4,-1784 # c000b000 <_bss_start>
    c0000700:	4585                	li	a1,1
    c0000702:	8552                	mv	a0,s4
    c0000704:	60d030ef          	jal	ra,c0004510 <atomic_add_return>
    c0000708:	4785                	li	a5,1
    c000070a:	20f50763          	beq	a0,a5,c0000918 <sbi_init+0x2c8>
    c000070e:	0314c783          	lbu	a5,49(s1)
    c0000712:	0304c983          	lbu	s3,48(s1)
    c0000716:	0324c603          	lbu	a2,50(s1)
    c000071a:	0334c683          	lbu	a3,51(s1)
    c000071e:	0344c703          	lbu	a4,52(s1)
    c0000722:	07a2                	slli	a5,a5,0x8
    c0000724:	0137e7b3          	or	a5,a5,s3
    c0000728:	0642                	slli	a2,a2,0x10
    c000072a:	0354c983          	lbu	s3,53(s1)
    c000072e:	8e5d                	or	a2,a2,a5
    c0000730:	06e2                	slli	a3,a3,0x18
    c0000732:	0364c783          	lbu	a5,54(s1)
    c0000736:	8ed1                	or	a3,a3,a2
    c0000738:	1702                	slli	a4,a4,0x20
    c000073a:	0374c603          	lbu	a2,55(s1)
    c000073e:	8f55                	or	a4,a4,a3
    c0000740:	19a2                	slli	s3,s3,0x28
    c0000742:	00e9e9b3          	or	s3,s3,a4
    c0000746:	17c2                	slli	a5,a5,0x30
    c0000748:	0137e7b3          	or	a5,a5,s3
    c000074c:	85ca                	mv	a1,s2
    c000074e:	03861993          	slli	s3,a2,0x38
    c0000752:	8526                	mv	a0,s1
    c0000754:	00f9e9b3          	or	s3,s3,a5
    c0000758:	602060ef          	jal	ra,c0006d5a <sbi_hart_wait_for_coldboot>
    c000075c:	008a3783          	ld	a5,8(s4)
    c0000760:	e399                	bnez	a5,c0000766 <sbi_init+0x116>
    c0000762:	3e0060ef          	jal	ra,c0006b42 <sbi_hart_hang>
    c0000766:	4581                	li	a1,0
    c0000768:	8526                	mv	a0,s1
    c000076a:	6f9000ef          	jal	ra,c0001662 <sbi_system_early_init>
    c000076e:	f975                	bnez	a0,c0000762 <sbi_init+0x112>
    c0000770:	4601                	li	a2,0
    c0000772:	85ca                	mv	a1,s2
    c0000774:	8526                	mv	a0,s1
    c0000776:	703050ef          	jal	ra,c0006678 <sbi_hart_init>
    c000077a:	f565                	bnez	a0,c0000762 <sbi_init+0x112>
    c000077c:	08098363          	beqz	s3,c0000802 <sbi_init+0x1b2>
    c0000780:	0699c703          	lbu	a4,105(s3)
    c0000784:	0689c683          	lbu	a3,104(s3)
    c0000788:	06a9c783          	lbu	a5,106(s3)
    c000078c:	06b9c583          	lbu	a1,107(s3)
    c0000790:	0722                	slli	a4,a4,0x8
    c0000792:	06c9c603          	lbu	a2,108(s3)
    c0000796:	8f55                	or	a4,a4,a3
    c0000798:	07c2                	slli	a5,a5,0x10
    c000079a:	06d9c683          	lbu	a3,109(s3)
    c000079e:	8fd9                	or	a5,a5,a4
    c00007a0:	05e2                	slli	a1,a1,0x18
    c00007a2:	06e9c703          	lbu	a4,110(s3)
    c00007a6:	8ddd                	or	a1,a1,a5
    c00007a8:	1602                	slli	a2,a2,0x20
    c00007aa:	06f9c783          	lbu	a5,111(s3)
    c00007ae:	8e4d                	or	a2,a2,a1
    c00007b0:	16a2                	slli	a3,a3,0x28
    c00007b2:	8ed1                	or	a3,a3,a2
    c00007b4:	1742                	slli	a4,a4,0x30
    c00007b6:	8f55                	or	a4,a4,a3
    c00007b8:	17e2                	slli	a5,a5,0x38
    c00007ba:	8fd9                	or	a5,a5,a4
    c00007bc:	0597c703          	lbu	a4,89(a5)
    c00007c0:	0587c683          	lbu	a3,88(a5)
    c00007c4:	05a7c803          	lbu	a6,90(a5)
    c00007c8:	05b7c583          	lbu	a1,91(a5)
    c00007cc:	05c7c603          	lbu	a2,92(a5)
    c00007d0:	0722                	slli	a4,a4,0x8
    c00007d2:	8f55                	or	a4,a4,a3
    c00007d4:	0842                	slli	a6,a6,0x10
    c00007d6:	05d7c683          	lbu	a3,93(a5)
    c00007da:	00e86833          	or	a6,a6,a4
    c00007de:	05e2                	slli	a1,a1,0x18
    c00007e0:	05e7c703          	lbu	a4,94(a5)
    c00007e4:	0105e5b3          	or	a1,a1,a6
    c00007e8:	1602                	slli	a2,a2,0x20
    c00007ea:	05f7c783          	lbu	a5,95(a5)
    c00007ee:	8e4d                	or	a2,a2,a1
    c00007f0:	16a2                	slli	a3,a3,0x28
    c00007f2:	8ed1                	or	a3,a3,a2
    c00007f4:	1742                	slli	a4,a4,0x30
    c00007f6:	8f55                	or	a4,a4,a3
    c00007f8:	17e2                	slli	a5,a5,0x38
    c00007fa:	8fd9                	or	a5,a5,a4
    c00007fc:	c399                	beqz	a5,c0000802 <sbi_init+0x1b2>
    c00007fe:	9782                	jalr	a5
    c0000800:	f12d                	bnez	a0,c0000762 <sbi_init+0x112>
    c0000802:	4581                	li	a1,0
    c0000804:	8526                	mv	a0,s1
    c0000806:	32d000ef          	jal	ra,c0001332 <sbi_ipi_init>
    c000080a:	fd21                	bnez	a0,c0000762 <sbi_init+0x112>
    c000080c:	4581                	li	a1,0
    c000080e:	8526                	mv	a0,s1
    c0000810:	702010ef          	jal	ra,c0001f12 <sbi_timer_init>
    c0000814:	f539                	bnez	a0,c0000762 <sbi_init+0x112>
    c0000816:	4581                	li	a1,0
    c0000818:	8526                	mv	a0,s1
    c000081a:	72b000ef          	jal	ra,c0001744 <sbi_system_final_init>
    c000081e:	f131                	bnez	a0,c0000762 <sbi_init+0x112>
    c0000820:	854a                	mv	a0,s2
    c0000822:	416060ef          	jal	ra,c0006c38 <sbi_hart_mark_available>
    c0000826:	008a3783          	ld	a5,8(s4)
    c000082a:	02091513          	slli	a0,s2,0x20
    c000082e:	4701                	li	a4,0
    c0000830:	97a6                	add	a5,a5,s1
    c0000832:	6394                	ld	a3,0(a5)
    c0000834:	9101                	srli	a0,a0,0x20
    c0000836:	0685                	addi	a3,a3,1
    c0000838:	e394                	sd	a3,0(a5)
    c000083a:	0214c683          	lbu	a3,33(s1)
    c000083e:	0194c603          	lbu	a2,25(s1)
    c0000842:	0114c783          	lbu	a5,17(s1)
    c0000846:	0204c883          	lbu	a7,32(s1)
    c000084a:	0184c803          	lbu	a6,24(s1)
    c000084e:	0104c583          	lbu	a1,16(s1)
    c0000852:	0224cf03          	lbu	t5,34(s1)
    c0000856:	01a4ce83          	lbu	t4,26(s1)
    c000085a:	0124cf83          	lbu	t6,18(s1)
    c000085e:	0234c983          	lbu	s3,35(s1)
    c0000862:	01b4c903          	lbu	s2,27(s1)
    c0000866:	0134c383          	lbu	t2,19(s1)
    c000086a:	06a2                	slli	a3,a3,0x8
    c000086c:	0244c283          	lbu	t0,36(s1)
    c0000870:	0622                	slli	a2,a2,0x8
    c0000872:	01c4ce03          	lbu	t3,28(s1)
    c0000876:	07a2                	slli	a5,a5,0x8
    c0000878:	0144c303          	lbu	t1,20(s1)
    c000087c:	0116e6b3          	or	a3,a3,a7
    c0000880:	01066633          	or	a2,a2,a6
    c0000884:	8fcd                	or	a5,a5,a1
    c0000886:	0f42                	slli	t5,t5,0x10
    c0000888:	0254c883          	lbu	a7,37(s1)
    c000088c:	0ec2                	slli	t4,t4,0x10
    c000088e:	01d4c803          	lbu	a6,29(s1)
    c0000892:	0fc2                	slli	t6,t6,0x10
    c0000894:	0154c583          	lbu	a1,21(s1)
    c0000898:	00df6f33          	or	t5,t5,a3
    c000089c:	00ceeeb3          	or	t4,t4,a2
    c00008a0:	00ffefb3          	or	t6,t6,a5
    c00008a4:	09e2                	slli	s3,s3,0x18
    c00008a6:	0264c683          	lbu	a3,38(s1)
    c00008aa:	0962                	slli	s2,s2,0x18
    c00008ac:	01e4c603          	lbu	a2,30(s1)
    c00008b0:	03e2                	slli	t2,t2,0x18
    c00008b2:	0164c783          	lbu	a5,22(s1)
    c00008b6:	01e9e9b3          	or	s3,s3,t5
    c00008ba:	01d96933          	or	s2,s2,t4
    c00008be:	01f3e3b3          	or	t2,t2,t6
    c00008c2:	1282                	slli	t0,t0,0x20
    c00008c4:	0274cf03          	lbu	t5,39(s1)
    c00008c8:	1e02                	slli	t3,t3,0x20
    c00008ca:	01f4ce83          	lbu	t4,31(s1)
    c00008ce:	1302                	slli	t1,t1,0x20
    c00008d0:	0174cf83          	lbu	t6,23(s1)
    c00008d4:	0132e2b3          	or	t0,t0,s3
    c00008d8:	18a2                	slli	a7,a7,0x28
    c00008da:	012e6e33          	or	t3,t3,s2
    c00008de:	1822                	slli	a6,a6,0x28
    c00008e0:	00736333          	or	t1,t1,t2
    c00008e4:	15a2                	slli	a1,a1,0x28
    c00008e6:	0065e5b3          	or	a1,a1,t1
    c00008ea:	0058e8b3          	or	a7,a7,t0
    c00008ee:	16c2                	slli	a3,a3,0x30
    c00008f0:	01c86833          	or	a6,a6,t3
    c00008f4:	1642                	slli	a2,a2,0x30
    c00008f6:	17c2                	slli	a5,a5,0x30
    c00008f8:	8fcd                	or	a5,a5,a1
    c00008fa:	0116e6b3          	or	a3,a3,a7
    c00008fe:	1f62                	slli	t5,t5,0x38
    c0000900:	01066633          	or	a2,a2,a6
    c0000904:	1ee2                	slli	t4,t4,0x38
    c0000906:	038f9593          	slli	a1,t6,0x38
    c000090a:	00df66b3          	or	a3,t5,a3
    c000090e:	00cee633          	or	a2,t4,a2
    c0000912:	8ddd                	or	a1,a1,a5
    c0000914:	23e060ef          	jal	ra,c0006b52 <sbi_hart_switch_mode>
    c0000918:	0314c783          	lbu	a5,49(s1)
    c000091c:	0304c703          	lbu	a4,48(s1)
    c0000920:	0324c583          	lbu	a1,50(s1)
    c0000924:	0334c603          	lbu	a2,51(s1)
    c0000928:	0344c683          	lbu	a3,52(s1)
    c000092c:	07a2                	slli	a5,a5,0x8
    c000092e:	8fd9                	or	a5,a5,a4
    c0000930:	05c2                	slli	a1,a1,0x10
    c0000932:	0354c703          	lbu	a4,53(s1)
    c0000936:	8ddd                	or	a1,a1,a5
    c0000938:	0662                	slli	a2,a2,0x18
    c000093a:	0364c783          	lbu	a5,54(s1)
    c000093e:	8e4d                	or	a2,a2,a1
    c0000940:	1682                	slli	a3,a3,0x20
    c0000942:	0374c583          	lbu	a1,55(s1)
    c0000946:	8ed1                	or	a3,a3,a2
    c0000948:	1722                	slli	a4,a4,0x28
    c000094a:	8f55                	or	a4,a4,a3
    c000094c:	17c2                	slli	a5,a5,0x30
    c000094e:	8fd9                	or	a5,a5,a4
    c0000950:	4521                	li	a0,8
    c0000952:	03859713          	slli	a4,a1,0x38
    c0000956:	00008597          	auipc	a1,0x8
    c000095a:	6aa58593          	addi	a1,a1,1706 # c0009000 <sbi_emulate_csr_write+0x6d0>
    c000095e:	00f769b3          	or	s3,a4,a5
    c0000962:	3d1000ef          	jal	ra,c0001532 <sbi_scratch_alloc_offset>
    c0000966:	0000a797          	auipc	a5,0xa
    c000096a:	6aa7b123          	sd	a0,1698(a5) # c000b008 <init_count_offset>
    c000096e:	de050ae3          	beqz	a0,c0000762 <sbi_init+0x112>
    c0000972:	4585                	li	a1,1
    c0000974:	8526                	mv	a0,s1
    c0000976:	4ed000ef          	jal	ra,c0001662 <sbi_system_early_init>
    c000097a:	de0514e3          	bnez	a0,c0000762 <sbi_init+0x112>
    c000097e:	4605                	li	a2,1
    c0000980:	85ca                	mv	a1,s2
    c0000982:	8526                	mv	a0,s1
    c0000984:	4f5050ef          	jal	ra,c0006678 <sbi_hart_init>
    c0000988:	dc051de3          	bnez	a0,c0000762 <sbi_init+0x112>
    c000098c:	8526                	mv	a0,s1
    c000098e:	05b040ef          	jal	ra,c00051e8 <sbi_console_init>
    c0000992:	dc0518e3          	bnez	a0,c0000762 <sbi_init+0x112>
    c0000996:	08098363          	beqz	s3,c0000a1c <sbi_init+0x3cc>
    c000099a:	0699c703          	lbu	a4,105(s3)
    c000099e:	0689c683          	lbu	a3,104(s3)
    c00009a2:	06a9c783          	lbu	a5,106(s3)
    c00009a6:	06b9c583          	lbu	a1,107(s3)
    c00009aa:	0722                	slli	a4,a4,0x8
    c00009ac:	06c9c603          	lbu	a2,108(s3)
    c00009b0:	8f55                	or	a4,a4,a3
    c00009b2:	07c2                	slli	a5,a5,0x10
    c00009b4:	06d9c683          	lbu	a3,109(s3)
    c00009b8:	8fd9                	or	a5,a5,a4
    c00009ba:	05e2                	slli	a1,a1,0x18
    c00009bc:	06e9c703          	lbu	a4,110(s3)
    c00009c0:	8ddd                	or	a1,a1,a5
    c00009c2:	1602                	slli	a2,a2,0x20
    c00009c4:	06f9c783          	lbu	a5,111(s3)
    c00009c8:	8e4d                	or	a2,a2,a1
    c00009ca:	16a2                	slli	a3,a3,0x28
    c00009cc:	8ed1                	or	a3,a3,a2
    c00009ce:	1742                	slli	a4,a4,0x30
    c00009d0:	8f55                	or	a4,a4,a3
    c00009d2:	17e2                	slli	a5,a5,0x38
    c00009d4:	8fd9                	or	a5,a5,a4
    c00009d6:	0597c703          	lbu	a4,89(a5)
    c00009da:	0587c683          	lbu	a3,88(a5)
    c00009de:	05a7c503          	lbu	a0,90(a5)
    c00009e2:	05b7c583          	lbu	a1,91(a5)
    c00009e6:	05c7c603          	lbu	a2,92(a5)
    c00009ea:	0722                	slli	a4,a4,0x8
    c00009ec:	8f55                	or	a4,a4,a3
    c00009ee:	0542                	slli	a0,a0,0x10
    c00009f0:	05d7c683          	lbu	a3,93(a5)
    c00009f4:	8d59                	or	a0,a0,a4
    c00009f6:	05e2                	slli	a1,a1,0x18
    c00009f8:	05e7c703          	lbu	a4,94(a5)
    c00009fc:	8dc9                	or	a1,a1,a0
    c00009fe:	1602                	slli	a2,a2,0x20
    c0000a00:	05f7c783          	lbu	a5,95(a5)
    c0000a04:	8e4d                	or	a2,a2,a1
    c0000a06:	16a2                	slli	a3,a3,0x28
    c0000a08:	8ed1                	or	a3,a3,a2
    c0000a0a:	1742                	slli	a4,a4,0x30
    c0000a0c:	8f55                	or	a4,a4,a3
    c0000a0e:	17e2                	slli	a5,a5,0x38
    c0000a10:	8fd9                	or	a5,a5,a4
    c0000a12:	c789                	beqz	a5,c0000a1c <sbi_init+0x3cc>
    c0000a14:	4505                	li	a0,1
    c0000a16:	9782                	jalr	a5
    c0000a18:	d40515e3          	bnez	a0,c0000762 <sbi_init+0x112>
    c0000a1c:	4585                	li	a1,1
    c0000a1e:	8526                	mv	a0,s1
    c0000a20:	113000ef          	jal	ra,c0001332 <sbi_ipi_init>
    c0000a24:	d2051fe3          	bnez	a0,c0000762 <sbi_init+0x112>
    c0000a28:	4585                	li	a1,1
    c0000a2a:	8526                	mv	a0,s1
    c0000a2c:	4e6010ef          	jal	ra,c0001f12 <sbi_timer_init>
    c0000a30:	d20519e3          	bnez	a0,c0000762 <sbi_init+0x112>
    c0000a34:	4585                	li	a1,1
    c0000a36:	8526                	mv	a0,s1
    c0000a38:	50d000ef          	jal	ra,c0001744 <sbi_system_final_init>
    c0000a3c:	d20513e3          	bnez	a0,c0000762 <sbi_init+0x112>
    c0000a40:	0484c783          	lbu	a5,72(s1)
    c0000a44:	8b85                	andi	a5,a5,1
    c0000a46:	c791                	beqz	a5,c0000a52 <sbi_init+0x402>
    c0000a48:	85ca                	mv	a1,s2
    c0000a4a:	8526                	mv	a0,s1
    c0000a4c:	4a4060ef          	jal	ra,c0006ef0 <sbi_hart_wake_coldboot_harts>
    c0000a50:	bbc1                	j	c0000820 <sbi_init+0x1d0>
    c0000a52:	0314c783          	lbu	a5,49(s1)
    c0000a56:	0304c583          	lbu	a1,48(s1)
    c0000a5a:	0324c603          	lbu	a2,50(s1)
    c0000a5e:	0334c683          	lbu	a3,51(s1)
    c0000a62:	0344c703          	lbu	a4,52(s1)
    c0000a66:	07a2                	slli	a5,a5,0x8
    c0000a68:	8fcd                	or	a5,a5,a1
    c0000a6a:	0354cb83          	lbu	s7,53(s1)
    c0000a6e:	0642                	slli	a2,a2,0x10
    c0000a70:	8e5d                	or	a2,a2,a5
    c0000a72:	06e2                	slli	a3,a3,0x18
    c0000a74:	0364c783          	lbu	a5,54(s1)
    c0000a78:	8ed1                	or	a3,a3,a2
    c0000a7a:	1702                	slli	a4,a4,0x20
    c0000a7c:	0374c603          	lbu	a2,55(s1)
    c0000a80:	8f55                	or	a4,a4,a3
    c0000a82:	1ba2                	slli	s7,s7,0x28
    c0000a84:	00ebebb3          	or	s7,s7,a4
    c0000a88:	17c2                	slli	a5,a5,0x30
    c0000a8a:	0177e7b3          	or	a5,a5,s7
    c0000a8e:	00008597          	auipc	a1,0x8
    c0000a92:	58258593          	addi	a1,a1,1410 # c0009010 <sbi_emulate_csr_write+0x6e0>
    c0000a96:	03861b93          	slli	s7,a2,0x38
    c0000a9a:	00008517          	auipc	a0,0x8
    c0000a9e:	58e50513          	addi	a0,a0,1422 # c0009028 <sbi_emulate_csr_write+0x6f8>
    c0000aa2:	00fbebb3          	or	s7,s7,a5
    c0000aa6:	6a8040ef          	jal	ra,c000514e <sbi_printf>
    c0000aaa:	00008517          	auipc	a0,0x8
    c0000aae:	58e50513          	addi	a0,a0,1422 # c0009038 <sbi_emulate_csr_write+0x708>
    c0000ab2:	69c040ef          	jal	ra,c000514e <sbi_printf>
    c0000ab6:	630030ef          	jal	ra,c00040e6 <misa_xlen>
    c0000aba:	85aa                	mv	a1,a0
    c0000abc:	16a05863          	blez	a0,c0000c2c <sbi_init+0x5dc>
    c0000ac0:	4c41                	li	s8,16
    c0000ac2:	00ac1c3b          	sllw	s8,s8,a0
    c0000ac6:	04100993          	li	s3,65
    c0000aca:	f7040a93          	addi	s5,s0,-144
    c0000ace:	05b00b13          	li	s6,91
    c0000ad2:	854e                	mv	a0,s3
    c0000ad4:	512030ef          	jal	ra,c0003fe6 <misa_extension_imp>
    c0000ad8:	c501                	beqz	a0,c0000ae0 <sbi_init+0x490>
    c0000ada:	013a8023          	sb	s3,0(s5)
    c0000ade:	0a85                	addi	s5,s5,1
    c0000ae0:	2985                	addiw	s3,s3,1
    c0000ae2:	0ff9f993          	andi	s3,s3,255
    c0000ae6:	ff6996e3          	bne	s3,s6,c0000ad2 <sbi_init+0x482>
    c0000aea:	000a8023          	sb	zero,0(s5)
    c0000aee:	100b8a63          	beqz	s7,c0000c02 <sbi_init+0x5b2>
    c0000af2:	008b8593          	addi	a1,s7,8
    c0000af6:	00008517          	auipc	a0,0x8
    c0000afa:	68a50513          	addi	a0,a0,1674 # c0009180 <sbi_emulate_csr_write+0x850>
    c0000afe:	650040ef          	jal	ra,c000514e <sbi_printf>
    c0000b02:	85e2                	mv	a1,s8
    c0000b04:	f7040613          	addi	a2,s0,-144
    c0000b08:	00008517          	auipc	a0,0x8
    c0000b0c:	69850513          	addi	a0,a0,1688 # c00091a0 <sbi_emulate_csr_write+0x870>
    c0000b10:	63e040ef          	jal	ra,c000514e <sbi_printf>
    c0000b14:	051bc703          	lbu	a4,81(s7)
    c0000b18:	050bc683          	lbu	a3,80(s7)
    c0000b1c:	052bc783          	lbu	a5,82(s7)
    c0000b20:	053bc583          	lbu	a1,83(s7)
    c0000b24:	0722                	slli	a4,a4,0x8
    c0000b26:	8f55                	or	a4,a4,a3
    c0000b28:	07c2                	slli	a5,a5,0x10
    c0000b2a:	8fd9                	or	a5,a5,a4
    c0000b2c:	05e2                	slli	a1,a1,0x18
    c0000b2e:	8ddd                	or	a1,a1,a5
    c0000b30:	2581                	sext.w	a1,a1
    c0000b32:	00008517          	auipc	a0,0x8
    c0000b36:	69650513          	addi	a0,a0,1686 # c00091c8 <sbi_emulate_csr_write+0x898>
    c0000b3a:	614040ef          	jal	ra,c000514e <sbi_printf>
    c0000b3e:	85ca                	mv	a1,s2
    c0000b40:	00008517          	auipc	a0,0x8
    c0000b44:	6a850513          	addi	a0,a0,1704 # c00091e8 <sbi_emulate_csr_write+0x8b8>
    c0000b48:	606040ef          	jal	ra,c000514e <sbi_printf>
    c0000b4c:	0014c783          	lbu	a5,1(s1)
    c0000b50:	0004c703          	lbu	a4,0(s1)
    c0000b54:	0024c583          	lbu	a1,2(s1)
    c0000b58:	0034c603          	lbu	a2,3(s1)
    c0000b5c:	0044c683          	lbu	a3,4(s1)
    c0000b60:	07a2                	slli	a5,a5,0x8
    c0000b62:	8fd9                	or	a5,a5,a4
    c0000b64:	05c2                	slli	a1,a1,0x10
    c0000b66:	0054c703          	lbu	a4,5(s1)
    c0000b6a:	8ddd                	or	a1,a1,a5
    c0000b6c:	0662                	slli	a2,a2,0x18
    c0000b6e:	0064c783          	lbu	a5,6(s1)
    c0000b72:	8e4d                	or	a2,a2,a1
    c0000b74:	1682                	slli	a3,a3,0x20
    c0000b76:	0074c583          	lbu	a1,7(s1)
    c0000b7a:	8ed1                	or	a3,a3,a2
    c0000b7c:	1722                	slli	a4,a4,0x28
    c0000b7e:	8f55                	or	a4,a4,a3
    c0000b80:	17c2                	slli	a5,a5,0x30
    c0000b82:	8fd9                	or	a5,a5,a4
    c0000b84:	15e2                	slli	a1,a1,0x38
    c0000b86:	8ddd                	or	a1,a1,a5
    c0000b88:	00008517          	auipc	a0,0x8
    c0000b8c:	68050513          	addi	a0,a0,1664 # c0009208 <sbi_emulate_csr_write+0x8d8>
    c0000b90:	5be040ef          	jal	ra,c000514e <sbi_printf>
    c0000b94:	0094c603          	lbu	a2,9(s1)
    c0000b98:	0084c583          	lbu	a1,8(s1)
    c0000b9c:	00a4c683          	lbu	a3,10(s1)
    c0000ba0:	00b4c703          	lbu	a4,11(s1)
    c0000ba4:	00c4c783          	lbu	a5,12(s1)
    c0000ba8:	0622                	slli	a2,a2,0x8
    c0000baa:	8e4d                	or	a2,a2,a1
    c0000bac:	06c2                	slli	a3,a3,0x10
    c0000bae:	00d4c583          	lbu	a1,13(s1)
    c0000bb2:	8ed1                	or	a3,a3,a2
    c0000bb4:	0762                	slli	a4,a4,0x18
    c0000bb6:	8f55                	or	a4,a4,a3
    c0000bb8:	1782                	slli	a5,a5,0x20
    c0000bba:	8fd9                	or	a5,a5,a4
    c0000bbc:	15a2                	slli	a1,a1,0x28
    c0000bbe:	8ddd                	or	a1,a1,a5
    c0000bc0:	05da                	slli	a1,a1,0x16
    c0000bc2:	9581                	srai	a1,a1,0x20
    c0000bc4:	00008517          	auipc	a0,0x8
    c0000bc8:	66450513          	addi	a0,a0,1636 # c0009228 <sbi_emulate_csr_write+0x8f8>
    c0000bcc:	582040ef          	jal	ra,c000514e <sbi_printf>
    c0000bd0:	734040ef          	jal	ra,c0005304 <sbi_ecall_version_major>
    c0000bd4:	89aa                	mv	s3,a0
    c0000bd6:	73c040ef          	jal	ra,c0005312 <sbi_ecall_version_minor>
    c0000bda:	0005061b          	sext.w	a2,a0
    c0000bde:	0009859b          	sext.w	a1,s3
    c0000be2:	00008517          	auipc	a0,0x8
    c0000be6:	66650513          	addi	a0,a0,1638 # c0009248 <sbi_emulate_csr_write+0x918>
    c0000bea:	564040ef          	jal	ra,c000514e <sbi_printf>
    c0000bee:	00008517          	auipc	a0,0x8
    c0000bf2:	56a50513          	addi	a0,a0,1386 # c0009158 <sbi_emulate_csr_write+0x828>
    c0000bf6:	558040ef          	jal	ra,c000514e <sbi_printf>
    c0000bfa:	8526                	mv	a0,s1
    c0000bfc:	133050ef          	jal	ra,c000652e <sbi_hart_pmp_dump>
    c0000c00:	b5a1                	j	c0000a48 <sbi_init+0x3f8>
    c0000c02:	00008597          	auipc	a1,0x8
    c0000c06:	66658593          	addi	a1,a1,1638 # c0009268 <sbi_emulate_csr_write+0x938>
    c0000c0a:	00008517          	auipc	a0,0x8
    c0000c0e:	57650513          	addi	a0,a0,1398 # c0009180 <sbi_emulate_csr_write+0x850>
    c0000c12:	53c040ef          	jal	ra,c000514e <sbi_printf>
    c0000c16:	85e2                	mv	a1,s8
    c0000c18:	f7040613          	addi	a2,s0,-144
    c0000c1c:	00008517          	auipc	a0,0x8
    c0000c20:	58450513          	addi	a0,a0,1412 # c00091a0 <sbi_emulate_csr_write+0x870>
    c0000c24:	52a040ef          	jal	ra,c000514e <sbi_printf>
    c0000c28:	4581                	li	a1,0
    c0000c2a:	b721                	j	c0000b32 <sbi_init+0x4e2>
    c0000c2c:	00008517          	auipc	a0,0x8
    c0000c30:	53450513          	addi	a0,a0,1332 # c0009160 <sbi_emulate_csr_write+0x830>
    c0000c34:	51a040ef          	jal	ra,c000514e <sbi_printf>
    c0000c38:	b62d                	j	c0000762 <sbi_init+0x112>

00000000c0000c3a <sbi_init_count>:
    c0000c3a:	34002773          	csrr	a4,mscratch
    c0000c3e:	03174683          	lbu	a3,49(a4)
    c0000c42:	03074603          	lbu	a2,48(a4)
    c0000c46:	03274783          	lbu	a5,50(a4)
    c0000c4a:	03374883          	lbu	a7,51(a4)
    c0000c4e:	03474803          	lbu	a6,52(a4)
    c0000c52:	06a2                	slli	a3,a3,0x8
    c0000c54:	8ed1                	or	a3,a3,a2
    c0000c56:	07c2                	slli	a5,a5,0x10
    c0000c58:	03574603          	lbu	a2,53(a4)
    c0000c5c:	8fd5                	or	a5,a5,a3
    c0000c5e:	08e2                	slli	a7,a7,0x18
    c0000c60:	03674683          	lbu	a3,54(a4)
    c0000c64:	00f8e8b3          	or	a7,a7,a5
    c0000c68:	1802                	slli	a6,a6,0x20
    c0000c6a:	03774783          	lbu	a5,55(a4)
    c0000c6e:	01186833          	or	a6,a6,a7
    c0000c72:	02861713          	slli	a4,a2,0x28
    c0000c76:	01076633          	or	a2,a4,a6
    c0000c7a:	03069713          	slli	a4,a3,0x30
    c0000c7e:	8f51                	or	a4,a4,a2
    c0000c80:	17e2                	slli	a5,a5,0x38
    c0000c82:	8fd9                	or	a5,a5,a4
    c0000c84:	c3b5                	beqz	a5,c0000ce8 <sbi_init_count+0xae>
    c0000c86:	0517c683          	lbu	a3,81(a5)
    c0000c8a:	0507c603          	lbu	a2,80(a5)
    c0000c8e:	0527c703          	lbu	a4,82(a5)
    c0000c92:	0537c783          	lbu	a5,83(a5)
    c0000c96:	06a2                	slli	a3,a3,0x8
    c0000c98:	8ed1                	or	a3,a3,a2
    c0000c9a:	0742                	slli	a4,a4,0x10
    c0000c9c:	8f55                	or	a4,a4,a3
    c0000c9e:	07e2                	slli	a5,a5,0x18
    c0000ca0:	8fd9                	or	a5,a5,a4
    c0000ca2:	2781                	sext.w	a5,a5
    c0000ca4:	04f57163          	bgeu	a0,a5,c0000ce6 <sbi_init_count+0xac>
    c0000ca8:	1101                	addi	sp,sp,-32
    c0000caa:	e822                	sd	s0,16(sp)
    c0000cac:	e426                	sd	s1,8(sp)
    c0000cae:	ec06                	sd	ra,24(sp)
    c0000cb0:	1000                	addi	s0,sp,32
    c0000cb2:	0000a497          	auipc	s1,0xa
    c0000cb6:	34e48493          	addi	s1,s1,846 # c000b000 <_bss_start>
    c0000cba:	649c                	ld	a5,8(s1)
    c0000cbc:	e799                	bnez	a5,c0000cca <sbi_init_count+0x90>
    c0000cbe:	60e2                	ld	ra,24(sp)
    c0000cc0:	6442                	ld	s0,16(sp)
    c0000cc2:	64a2                	ld	s1,8(sp)
    c0000cc4:	853e                	mv	a0,a5
    c0000cc6:	6105                	addi	sp,sp,32
    c0000cc8:	8082                	ret
    c0000cca:	85aa                	mv	a1,a0
    c0000ccc:	34002573          	csrr	a0,mscratch
    c0000cd0:	032060ef          	jal	ra,c0006d02 <sbi_hart_id_to_scratch>
    c0000cd4:	649c                	ld	a5,8(s1)
    c0000cd6:	60e2                	ld	ra,24(sp)
    c0000cd8:	6442                	ld	s0,16(sp)
    c0000cda:	953e                	add	a0,a0,a5
    c0000cdc:	611c                	ld	a5,0(a0)
    c0000cde:	64a2                	ld	s1,8(sp)
    c0000ce0:	853e                	mv	a0,a5
    c0000ce2:	6105                	addi	sp,sp,32
    c0000ce4:	8082                	ret
    c0000ce6:	4781                	li	a5,0
    c0000ce8:	853e                	mv	a0,a5
    c0000cea:	8082                	ret

00000000c0000cec <sbi_exit>:
    c0000cec:	1101                	addi	sp,sp,-32
    c0000cee:	e822                	sd	s0,16(sp)
    c0000cf0:	e426                	sd	s1,8(sp)
    c0000cf2:	e04a                	sd	s2,0(sp)
    c0000cf4:	ec06                	sd	ra,24(sp)
    c0000cf6:	1000                	addi	s0,sp,32
    c0000cf8:	892a                	mv	s2,a0
    c0000cfa:	7fc050ef          	jal	ra,c00064f6 <sbi_current_hartid>
    c0000cfe:	03194783          	lbu	a5,49(s2)
    c0000d02:	03094483          	lbu	s1,48(s2)
    c0000d06:	03294603          	lbu	a2,50(s2)
    c0000d0a:	03394683          	lbu	a3,51(s2)
    c0000d0e:	07a2                	slli	a5,a5,0x8
    c0000d10:	03494703          	lbu	a4,52(s2)
    c0000d14:	8fc5                	or	a5,a5,s1
    c0000d16:	0642                	slli	a2,a2,0x10
    c0000d18:	03594483          	lbu	s1,53(s2)
    c0000d1c:	8e5d                	or	a2,a2,a5
    c0000d1e:	06e2                	slli	a3,a3,0x18
    c0000d20:	03694783          	lbu	a5,54(s2)
    c0000d24:	8ed1                	or	a3,a3,a2
    c0000d26:	1702                	slli	a4,a4,0x20
    c0000d28:	03794603          	lbu	a2,55(s2)
    c0000d2c:	8f55                	or	a4,a4,a3
    c0000d2e:	14a2                	slli	s1,s1,0x28
    c0000d30:	8cd9                	or	s1,s1,a4
    c0000d32:	17c2                	slli	a5,a5,0x30
    c0000d34:	8fc5                	or	a5,a5,s1
    c0000d36:	03861493          	slli	s1,a2,0x38
    c0000d3a:	8cdd                	or	s1,s1,a5
    c0000d3c:	2501                	sext.w	a0,a0
    c0000d3e:	20048863          	beqz	s1,c0000f4e <sbi_exit+0x262>
    c0000d42:	0594c703          	lbu	a4,89(s1)
    c0000d46:	0584c683          	lbu	a3,88(s1)
    c0000d4a:	05a4c783          	lbu	a5,90(s1)
    c0000d4e:	05b4c583          	lbu	a1,91(s1)
    c0000d52:	0722                	slli	a4,a4,0x8
    c0000d54:	05c4c603          	lbu	a2,92(s1)
    c0000d58:	8f55                	or	a4,a4,a3
    c0000d5a:	07c2                	slli	a5,a5,0x10
    c0000d5c:	05d4c683          	lbu	a3,93(s1)
    c0000d60:	8fd9                	or	a5,a5,a4
    c0000d62:	05e2                	slli	a1,a1,0x18
    c0000d64:	05e4c703          	lbu	a4,94(s1)
    c0000d68:	8ddd                	or	a1,a1,a5
    c0000d6a:	1602                	slli	a2,a2,0x20
    c0000d6c:	05f4c783          	lbu	a5,95(s1)
    c0000d70:	8e4d                	or	a2,a2,a1
    c0000d72:	16a2                	slli	a3,a3,0x28
    c0000d74:	8ed1                	or	a3,a3,a2
    c0000d76:	1742                	slli	a4,a4,0x30
    c0000d78:	8f55                	or	a4,a4,a3
    c0000d7a:	17e2                	slli	a5,a5,0x38
    c0000d7c:	8fd9                	or	a5,a5,a4
    c0000d7e:	4705                	li	a4,1
    c0000d80:	00a7173b          	sllw	a4,a4,a0
    c0000d84:	8ff9                	and	a5,a5,a4
    c0000d86:	1c079263          	bnez	a5,c0000f4a <sbi_exit+0x25e>
    c0000d8a:	6f5050ef          	jal	ra,c0006c7e <sbi_hart_unmark_available>
    c0000d8e:	0694c703          	lbu	a4,105(s1)
    c0000d92:	0684c683          	lbu	a3,104(s1)
    c0000d96:	06a4c783          	lbu	a5,106(s1)
    c0000d9a:	06b4c583          	lbu	a1,107(s1)
    c0000d9e:	0722                	slli	a4,a4,0x8
    c0000da0:	06c4c603          	lbu	a2,108(s1)
    c0000da4:	8f55                	or	a4,a4,a3
    c0000da6:	07c2                	slli	a5,a5,0x10
    c0000da8:	06d4c683          	lbu	a3,109(s1)
    c0000dac:	8fd9                	or	a5,a5,a4
    c0000dae:	05e2                	slli	a1,a1,0x18
    c0000db0:	06e4c703          	lbu	a4,110(s1)
    c0000db4:	8ddd                	or	a1,a1,a5
    c0000db6:	1602                	slli	a2,a2,0x20
    c0000db8:	06f4c783          	lbu	a5,111(s1)
    c0000dbc:	8e4d                	or	a2,a2,a1
    c0000dbe:	16a2                	slli	a3,a3,0x28
    c0000dc0:	8ed1                	or	a3,a3,a2
    c0000dc2:	1742                	slli	a4,a4,0x30
    c0000dc4:	8f55                	or	a4,a4,a3
    c0000dc6:	17e2                	slli	a5,a5,0x38
    c0000dc8:	8fd9                	or	a5,a5,a4
    c0000dca:	0117c703          	lbu	a4,17(a5)
    c0000dce:	0107c683          	lbu	a3,16(a5)
    c0000dd2:	0127c503          	lbu	a0,18(a5)
    c0000dd6:	0137c583          	lbu	a1,19(a5)
    c0000dda:	0147c603          	lbu	a2,20(a5)
    c0000dde:	0722                	slli	a4,a4,0x8
    c0000de0:	8f55                	or	a4,a4,a3
    c0000de2:	0542                	slli	a0,a0,0x10
    c0000de4:	0157c683          	lbu	a3,21(a5)
    c0000de8:	8d59                	or	a0,a0,a4
    c0000dea:	05e2                	slli	a1,a1,0x18
    c0000dec:	0167c703          	lbu	a4,22(a5)
    c0000df0:	8dc9                	or	a1,a1,a0
    c0000df2:	1602                	slli	a2,a2,0x20
    c0000df4:	0177c783          	lbu	a5,23(a5)
    c0000df8:	8e4d                	or	a2,a2,a1
    c0000dfa:	16a2                	slli	a3,a3,0x28
    c0000dfc:	8ed1                	or	a3,a3,a2
    c0000dfe:	1742                	slli	a4,a4,0x30
    c0000e00:	8f55                	or	a4,a4,a3
    c0000e02:	17e2                	slli	a5,a5,0x38
    c0000e04:	8fd9                	or	a5,a5,a4
    c0000e06:	c391                	beqz	a5,c0000e0a <sbi_exit+0x11e>
    c0000e08:	9782                	jalr	a5
    c0000e0a:	854a                	mv	a0,s2
    c0000e0c:	218010ef          	jal	ra,c0002024 <sbi_timer_exit>
    c0000e10:	854a                	mv	a0,s2
    c0000e12:	648000ef          	jal	ra,c000145a <sbi_ipi_exit>
    c0000e16:	0694c683          	lbu	a3,105(s1)
    c0000e1a:	0684c283          	lbu	t0,104(s1)
    c0000e1e:	06a4c603          	lbu	a2,106(s1)
    c0000e22:	06b4c583          	lbu	a1,107(s1)
    c0000e26:	00869313          	slli	t1,a3,0x8
    c0000e2a:	06c4c503          	lbu	a0,108(s1)
    c0000e2e:	01061793          	slli	a5,a2,0x10
    c0000e32:	00536333          	or	t1,t1,t0
    c0000e36:	06d4c803          	lbu	a6,109(s1)
    c0000e3a:	0067e333          	or	t1,a5,t1
    c0000e3e:	06e4c883          	lbu	a7,110(s1)
    c0000e42:	01859793          	slli	a5,a1,0x18
    c0000e46:	0067e7b3          	or	a5,a5,t1
    c0000e4a:	06f4c703          	lbu	a4,111(s1)
    c0000e4e:	02051313          	slli	t1,a0,0x20
    c0000e52:	00f367b3          	or	a5,t1,a5
    c0000e56:	02881313          	slli	t1,a6,0x28
    c0000e5a:	00f36333          	or	t1,t1,a5
    c0000e5e:	03089793          	slli	a5,a7,0x30
    c0000e62:	0067e333          	or	t1,a5,t1
    c0000e66:	03871793          	slli	a5,a4,0x38
    c0000e6a:	0067e7b3          	or	a5,a5,t1
    c0000e6e:	0617c303          	lbu	t1,97(a5)
    c0000e72:	0607ce03          	lbu	t3,96(a5)
    c0000e76:	0627cf83          	lbu	t6,98(a5)
    c0000e7a:	0637cf03          	lbu	t5,99(a5)
    c0000e7e:	0647ce83          	lbu	t4,100(a5)
    c0000e82:	0322                	slli	t1,t1,0x8
    c0000e84:	01c36333          	or	t1,t1,t3
    c0000e88:	0fc2                	slli	t6,t6,0x10
    c0000e8a:	0657ce03          	lbu	t3,101(a5)
    c0000e8e:	006fefb3          	or	t6,t6,t1
    c0000e92:	0f62                	slli	t5,t5,0x18
    c0000e94:	0667c303          	lbu	t1,102(a5)
    c0000e98:	01ff6f33          	or	t5,t5,t6
    c0000e9c:	1e82                	slli	t4,t4,0x20
    c0000e9e:	0677c783          	lbu	a5,103(a5)
    c0000ea2:	01eeeeb3          	or	t4,t4,t5
    c0000ea6:	1e22                	slli	t3,t3,0x28
    c0000ea8:	01de6e33          	or	t3,t3,t4
    c0000eac:	1342                	slli	t1,t1,0x30
    c0000eae:	01c36333          	or	t1,t1,t3
    c0000eb2:	17e2                	slli	a5,a5,0x38
    c0000eb4:	0067e7b3          	or	a5,a5,t1
    c0000eb8:	c395                	beqz	a5,c0000edc <sbi_exit+0x1f0>
    c0000eba:	9782                	jalr	a5
    c0000ebc:	0684c283          	lbu	t0,104(s1)
    c0000ec0:	0694c683          	lbu	a3,105(s1)
    c0000ec4:	06a4c603          	lbu	a2,106(s1)
    c0000ec8:	06b4c583          	lbu	a1,107(s1)
    c0000ecc:	06c4c503          	lbu	a0,108(s1)
    c0000ed0:	06d4c803          	lbu	a6,109(s1)
    c0000ed4:	06e4c883          	lbu	a7,110(s1)
    c0000ed8:	06f4c703          	lbu	a4,111(s1)
    c0000edc:	00869793          	slli	a5,a3,0x8
    c0000ee0:	0057e2b3          	or	t0,a5,t0
    c0000ee4:	01061793          	slli	a5,a2,0x10
    c0000ee8:	0057e7b3          	or	a5,a5,t0
    c0000eec:	05e2                	slli	a1,a1,0x18
    c0000eee:	8ddd                	or	a1,a1,a5
    c0000ef0:	02051793          	slli	a5,a0,0x20
    c0000ef4:	8fcd                	or	a5,a5,a1
    c0000ef6:	1822                	slli	a6,a6,0x28
    c0000ef8:	00f867b3          	or	a5,a6,a5
    c0000efc:	18c2                	slli	a7,a7,0x30
    c0000efe:	00f8e8b3          	or	a7,a7,a5
    c0000f02:	03871793          	slli	a5,a4,0x38
    c0000f06:	0117e7b3          	or	a5,a5,a7
    c0000f0a:	0197c703          	lbu	a4,25(a5)
    c0000f0e:	0187c683          	lbu	a3,24(a5)
    c0000f12:	01a7c503          	lbu	a0,26(a5)
    c0000f16:	01b7c583          	lbu	a1,27(a5)
    c0000f1a:	01c7c603          	lbu	a2,28(a5)
    c0000f1e:	0722                	slli	a4,a4,0x8
    c0000f20:	8f55                	or	a4,a4,a3
    c0000f22:	0542                	slli	a0,a0,0x10
    c0000f24:	01d7c683          	lbu	a3,29(a5)
    c0000f28:	8d59                	or	a0,a0,a4
    c0000f2a:	05e2                	slli	a1,a1,0x18
    c0000f2c:	01e7c703          	lbu	a4,30(a5)
    c0000f30:	8dc9                	or	a1,a1,a0
    c0000f32:	1602                	slli	a2,a2,0x20
    c0000f34:	01f7c783          	lbu	a5,31(a5)
    c0000f38:	8e4d                	or	a2,a2,a1
    c0000f3a:	16a2                	slli	a3,a3,0x28
    c0000f3c:	8ed1                	or	a3,a3,a2
    c0000f3e:	1742                	slli	a4,a4,0x30
    c0000f40:	8f55                	or	a4,a4,a3
    c0000f42:	17e2                	slli	a5,a5,0x38
    c0000f44:	8fd9                	or	a5,a5,a4
    c0000f46:	c391                	beqz	a5,c0000f4a <sbi_exit+0x25e>
    c0000f48:	9782                	jalr	a5
    c0000f4a:	3f9050ef          	jal	ra,c0006b42 <sbi_hart_hang>
    c0000f4e:	531050ef          	jal	ra,c0006c7e <sbi_hart_unmark_available>
    c0000f52:	854a                	mv	a0,s2
    c0000f54:	0d0010ef          	jal	ra,c0002024 <sbi_timer_exit>
    c0000f58:	854a                	mv	a0,s2
    c0000f5a:	500000ef          	jal	ra,c000145a <sbi_ipi_exit>
    c0000f5e:	b7f5                	j	c0000f4a <sbi_exit+0x25e>

00000000c0000f60 <sbi_ipi_send>:
    c0000f60:	7139                	addi	sp,sp,-64
    c0000f62:	f822                	sd	s0,48(sp)
    c0000f64:	fc06                	sd	ra,56(sp)
    c0000f66:	f426                	sd	s1,40(sp)
    c0000f68:	f04a                	sd	s2,32(sp)
    c0000f6a:	ec4e                	sd	s3,24(sp)
    c0000f6c:	e852                	sd	s4,16(sp)
    c0000f6e:	e456                	sd	s5,8(sp)
    c0000f70:	e05a                	sd	s6,0(sp)
    c0000f72:	0080                	addi	s0,sp,64
    c0000f74:	03154783          	lbu	a5,49(a0)
    c0000f78:	03054483          	lbu	s1,48(a0)
    c0000f7c:	03254883          	lbu	a7,50(a0)
    c0000f80:	03354803          	lbu	a6,51(a0)
    c0000f84:	07a2                	slli	a5,a5,0x8
    c0000f86:	03454703          	lbu	a4,52(a0)
    c0000f8a:	8fc5                	or	a5,a5,s1
    c0000f8c:	08c2                	slli	a7,a7,0x10
    c0000f8e:	03554483          	lbu	s1,53(a0)
    c0000f92:	00f8e8b3          	or	a7,a7,a5
    c0000f96:	0862                	slli	a6,a6,0x18
    c0000f98:	03654783          	lbu	a5,54(a0)
    c0000f9c:	01186833          	or	a6,a6,a7
    c0000fa0:	1702                	slli	a4,a4,0x20
    c0000fa2:	03754883          	lbu	a7,55(a0)
    c0000fa6:	01076733          	or	a4,a4,a6
    c0000faa:	14a2                	slli	s1,s1,0x28
    c0000fac:	8cd9                	or	s1,s1,a4
    c0000fae:	17c2                	slli	a5,a5,0x30
    c0000fb0:	8fc5                	or	a5,a5,s1
    c0000fb2:	03889493          	slli	s1,a7,0x38
    c0000fb6:	8cdd                	or	s1,s1,a5
    c0000fb8:	c8b1                	beqz	s1,c000100c <sbi_ipi_send+0xac>
    c0000fba:	0594c703          	lbu	a4,89(s1)
    c0000fbe:	0584c803          	lbu	a6,88(s1)
    c0000fc2:	05a4c783          	lbu	a5,90(s1)
    c0000fc6:	05b4c303          	lbu	t1,91(s1)
    c0000fca:	0722                	slli	a4,a4,0x8
    c0000fcc:	05c4c883          	lbu	a7,92(s1)
    c0000fd0:	01076733          	or	a4,a4,a6
    c0000fd4:	07c2                	slli	a5,a5,0x10
    c0000fd6:	05d4c803          	lbu	a6,93(s1)
    c0000fda:	8fd9                	or	a5,a5,a4
    c0000fdc:	0362                	slli	t1,t1,0x18
    c0000fde:	05e4c703          	lbu	a4,94(s1)
    c0000fe2:	00f36333          	or	t1,t1,a5
    c0000fe6:	1882                	slli	a7,a7,0x20
    c0000fe8:	05f4c783          	lbu	a5,95(s1)
    c0000fec:	0068e8b3          	or	a7,a7,t1
    c0000ff0:	1822                	slli	a6,a6,0x28
    c0000ff2:	01186833          	or	a6,a6,a7
    c0000ff6:	1742                	slli	a4,a4,0x30
    c0000ff8:	01076733          	or	a4,a4,a6
    c0000ffc:	17e2                	slli	a5,a5,0x38
    c0000ffe:	8fd9                	or	a5,a5,a4
    c0001000:	4705                	li	a4,1
    c0001002:	00b7173b          	sllw	a4,a4,a1
    c0001006:	8ff9                	and	a5,a5,a4
    c0001008:	5b7d                	li	s6,-1
    c000100a:	ebdd                	bnez	a5,c00010c0 <sbi_ipi_send+0x160>
    c000100c:	89ae                	mv	s3,a1
    c000100e:	8b36                	mv	s6,a3
    c0001010:	8932                	mv	s2,a2
    c0001012:	8a2a                	mv	s4,a0
    c0001014:	4ef050ef          	jal	ra,c0006d02 <sbi_hart_id_to_scratch>
    c0001018:	0000a797          	auipc	a5,0xa
    c000101c:	ff878793          	addi	a5,a5,-8 # c000b010 <ipi_data_off>
    c0001020:	638c                	ld	a1,0(a5)
    c0001022:	4789                	li	a5,2
    c0001024:	00b50ab3          	add	s5,a0,a1
    c0001028:	0af90763          	beq	s2,a5,c00010d6 <sbi_ipi_send+0x176>
    c000102c:	85d6                	mv	a1,s5
    c000102e:	854a                	mv	a0,s2
    c0001030:	5c8030ef          	jal	ra,c00045f8 <atomic_raw_set_bit>
    c0001034:	0110000f          	fence	w,w
    c0001038:	c0c1                	beqz	s1,c00010b8 <sbi_ipi_send+0x158>
    c000103a:	0694c703          	lbu	a4,105(s1)
    c000103e:	0684c683          	lbu	a3,104(s1)
    c0001042:	06a4c783          	lbu	a5,106(s1)
    c0001046:	06b4c583          	lbu	a1,107(s1)
    c000104a:	0722                	slli	a4,a4,0x8
    c000104c:	06c4c603          	lbu	a2,108(s1)
    c0001050:	8f55                	or	a4,a4,a3
    c0001052:	07c2                	slli	a5,a5,0x10
    c0001054:	06d4c683          	lbu	a3,109(s1)
    c0001058:	8fd9                	or	a5,a5,a4
    c000105a:	05e2                	slli	a1,a1,0x18
    c000105c:	06e4c703          	lbu	a4,110(s1)
    c0001060:	8ddd                	or	a1,a1,a5
    c0001062:	1602                	slli	a2,a2,0x20
    c0001064:	06f4c783          	lbu	a5,111(s1)
    c0001068:	8e4d                	or	a2,a2,a1
    c000106a:	16a2                	slli	a3,a3,0x28
    c000106c:	8ed1                	or	a3,a3,a2
    c000106e:	1742                	slli	a4,a4,0x30
    c0001070:	8f55                	or	a4,a4,a3
    c0001072:	17e2                	slli	a5,a5,0x38
    c0001074:	8fd9                	or	a5,a5,a4
    c0001076:	0697c703          	lbu	a4,105(a5)
    c000107a:	0687c683          	lbu	a3,104(a5)
    c000107e:	06a7c503          	lbu	a0,106(a5)
    c0001082:	06b7c583          	lbu	a1,107(a5)
    c0001086:	06c7c603          	lbu	a2,108(a5)
    c000108a:	0722                	slli	a4,a4,0x8
    c000108c:	8f55                	or	a4,a4,a3
    c000108e:	0542                	slli	a0,a0,0x10
    c0001090:	06d7c683          	lbu	a3,109(a5)
    c0001094:	8d59                	or	a0,a0,a4
    c0001096:	05e2                	slli	a1,a1,0x18
    c0001098:	06e7c703          	lbu	a4,110(a5)
    c000109c:	8dc9                	or	a1,a1,a0
    c000109e:	1602                	slli	a2,a2,0x20
    c00010a0:	06f7c783          	lbu	a5,111(a5)
    c00010a4:	8e4d                	or	a2,a2,a1
    c00010a6:	16a2                	slli	a3,a3,0x28
    c00010a8:	8ed1                	or	a3,a3,a2
    c00010aa:	1742                	slli	a4,a4,0x30
    c00010ac:	8f55                	or	a4,a4,a3
    c00010ae:	17e2                	slli	a5,a5,0x38
    c00010b0:	8fd9                	or	a5,a5,a4
    c00010b2:	c399                	beqz	a5,c00010b8 <sbi_ipi_send+0x158>
    c00010b4:	854e                	mv	a0,s3
    c00010b6:	9782                	jalr	a5
    c00010b8:	4789                	li	a5,2
    c00010ba:	4b01                	li	s6,0
    c00010bc:	02f90563          	beq	s2,a5,c00010e6 <sbi_ipi_send+0x186>
    c00010c0:	70e2                	ld	ra,56(sp)
    c00010c2:	7442                	ld	s0,48(sp)
    c00010c4:	855a                	mv	a0,s6
    c00010c6:	74a2                	ld	s1,40(sp)
    c00010c8:	7902                	ld	s2,32(sp)
    c00010ca:	69e2                	ld	s3,24(sp)
    c00010cc:	6a42                	ld	s4,16(sp)
    c00010ce:	6aa2                	ld	s5,8(sp)
    c00010d0:	6b02                	ld	s6,0(sp)
    c00010d2:	6121                	addi	sp,sp,64
    c00010d4:	8082                	ret
    c00010d6:	865a                	mv	a2,s6
    c00010d8:	85ce                	mv	a1,s3
    c00010da:	40c010ef          	jal	ra,c00024e6 <sbi_tlb_fifo_update>
    c00010de:	8b2a                	mv	s6,a0
    c00010e0:	f40556e3          	bgez	a0,c000102c <sbi_ipi_send+0xcc>
    c00010e4:	bff1                	j	c00010c0 <sbi_ipi_send+0x160>
    c00010e6:	8552                	mv	a0,s4
    c00010e8:	3c6010ef          	jal	ra,c00024ae <sbi_tlb_fifo_sync>
    c00010ec:	bfd1                	j	c00010c0 <sbi_ipi_send+0x160>

00000000c00010ee <sbi_ipi_send_many>:
    c00010ee:	715d                	addi	sp,sp,-80
    c00010f0:	e486                	sd	ra,72(sp)
    c00010f2:	e0a2                	sd	s0,64(sp)
    c00010f4:	fc26                	sd	s1,56(sp)
    c00010f6:	f84a                	sd	s2,48(sp)
    c00010f8:	f44e                	sd	s3,40(sp)
    c00010fa:	f052                	sd	s4,32(sp)
    c00010fc:	ec56                	sd	s5,24(sp)
    c00010fe:	e85a                	sd	s6,16(sp)
    c0001100:	e45e                	sd	s7,8(sp)
    c0001102:	0880                	addi	s0,sp,80
    c0001104:	e062                	sd	s8,0(sp)
    c0001106:	89ae                	mv	s3,a1
    c0001108:	8932                	mv	s2,a2
    c000110a:	8ab6                	mv	s5,a3
    c000110c:	8bba                	mv	s7,a4
    c000110e:	8a2a                	mv	s4,a0
    c0001110:	3b9050ef          	jal	ra,c0006cc8 <sbi_hart_available_mask>
    c0001114:	84aa                	mv	s1,a0
    c0001116:	3e0050ef          	jal	ra,c00064f6 <sbi_current_hartid>
    c000111a:	0204d793          	srli	a5,s1,0x20
    c000111e:	1782                	slli	a5,a5,0x20
    c0001120:	00050b1b          	sext.w	s6,a0
    c0001124:	e3d5                	bnez	a5,c00011c8 <sbi_ipi_send_many+0xda>
    c0001126:	02049793          	slli	a5,s1,0x20
    c000112a:	477d                	li	a4,31
    c000112c:	0307d693          	srli	a3,a5,0x30
    c0001130:	16c2                	slli	a3,a3,0x30
    c0001132:	e299                	bnez	a3,c0001138 <sbi_ipi_send_many+0x4a>
    c0001134:	3741                	addiw	a4,a4,-16
    c0001136:	07c2                	slli	a5,a5,0x10
    c0001138:	0387d693          	srli	a3,a5,0x38
    c000113c:	16e2                	slli	a3,a3,0x38
    c000113e:	e299                	bnez	a3,c0001144 <sbi_ipi_send_many+0x56>
    c0001140:	3761                	addiw	a4,a4,-8
    c0001142:	07a2                	slli	a5,a5,0x8
    c0001144:	03c7d693          	srli	a3,a5,0x3c
    c0001148:	16f2                	slli	a3,a3,0x3c
    c000114a:	e299                	bnez	a3,c0001150 <sbi_ipi_send_many+0x62>
    c000114c:	3771                	addiw	a4,a4,-4
    c000114e:	0792                	slli	a5,a5,0x4
    c0001150:	03e7d693          	srli	a3,a5,0x3e
    c0001154:	16fa                	slli	a3,a3,0x3e
    c0001156:	e299                	bnez	a3,c000115c <sbi_ipi_send_many+0x6e>
    c0001158:	3779                	addiw	a4,a4,-2
    c000115a:	078a                	slli	a5,a5,0x2
    c000115c:	0007c363          	bltz	a5,c0001162 <sbi_ipi_send_many+0x74>
    c0001160:	377d                	addiw	a4,a4,-1
    c0001162:	07276e63          	bltu	a4,s2,c00011de <sbi_ipi_send_many+0xf0>
    c0001166:	012999b3          	sll	s3,s3,s2
    c000116a:	fff4c913          	not	s2,s1
    c000116e:	01397933          	and	s2,s2,s3
    c0001172:	06091663          	bnez	s2,c00011de <sbi_ipi_send_many+0xf0>
    c0001176:	0134f9b3          	and	s3,s1,s3
    c000117a:	020b1c13          	slli	s8,s6,0x20
    c000117e:	84ce                	mv	s1,s3
    c0001180:	020c5c13          	srli	s8,s8,0x20
    c0001184:	02098563          	beqz	s3,c00011ae <sbi_ipi_send_many+0xc0>
    c0001188:	0014f793          	andi	a5,s1,1
    c000118c:	8085                	srli	s1,s1,0x1
    c000118e:	cb91                	beqz	a5,c00011a2 <sbi_ipi_send_many+0xb4>
    c0001190:	0009059b          	sext.w	a1,s2
    c0001194:	86de                	mv	a3,s7
    c0001196:	8656                	mv	a2,s5
    c0001198:	8552                	mv	a0,s4
    c000119a:	012c0463          	beq	s8,s2,c00011a2 <sbi_ipi_send_many+0xb4>
    c000119e:	dc3ff0ef          	jal	ra,c0000f60 <sbi_ipi_send>
    c00011a2:	0905                	addi	s2,s2,1
    c00011a4:	f0f5                	bnez	s1,c0001188 <sbi_ipi_send_many+0x9a>
    c00011a6:	0169d4b3          	srl	s1,s3,s6
    c00011aa:	8885                	andi	s1,s1,1
    c00011ac:	e095                	bnez	s1,c00011d0 <sbi_ipi_send_many+0xe2>
    c00011ae:	4501                	li	a0,0
    c00011b0:	60a6                	ld	ra,72(sp)
    c00011b2:	6406                	ld	s0,64(sp)
    c00011b4:	74e2                	ld	s1,56(sp)
    c00011b6:	7942                	ld	s2,48(sp)
    c00011b8:	79a2                	ld	s3,40(sp)
    c00011ba:	7a02                	ld	s4,32(sp)
    c00011bc:	6ae2                	ld	s5,24(sp)
    c00011be:	6b42                	ld	s6,16(sp)
    c00011c0:	6ba2                	ld	s7,8(sp)
    c00011c2:	6c02                	ld	s8,0(sp)
    c00011c4:	6161                	addi	sp,sp,80
    c00011c6:	8082                	ret
    c00011c8:	87a6                	mv	a5,s1
    c00011ca:	03f00713          	li	a4,63
    c00011ce:	bfb9                	j	c000112c <sbi_ipi_send_many+0x3e>
    c00011d0:	86de                	mv	a3,s7
    c00011d2:	8656                	mv	a2,s5
    c00011d4:	85da                	mv	a1,s6
    c00011d6:	8552                	mv	a0,s4
    c00011d8:	d89ff0ef          	jal	ra,c0000f60 <sbi_ipi_send>
    c00011dc:	bfc9                	j	c00011ae <sbi_ipi_send_many+0xc0>
    c00011de:	5575                	li	a0,-3
    c00011e0:	bfc1                	j	c00011b0 <sbi_ipi_send_many+0xc2>

00000000c00011e2 <sbi_ipi_clear_smode>:
    c00011e2:	1141                	addi	sp,sp,-16
    c00011e4:	e422                	sd	s0,8(sp)
    c00011e6:	0800                	addi	s0,sp,16
    c00011e8:	34417073          	csrci	mip,2
    c00011ec:	6422                	ld	s0,8(sp)
    c00011ee:	0141                	addi	sp,sp,16
    c00011f0:	8082                	ret

00000000c00011f2 <sbi_ipi_process>:
    c00011f2:	7139                	addi	sp,sp,-64
    c00011f4:	f822                	sd	s0,48(sp)
    c00011f6:	ec4e                	sd	s3,24(sp)
    c00011f8:	fc06                	sd	ra,56(sp)
    c00011fa:	f426                	sd	s1,40(sp)
    c00011fc:	f04a                	sd	s2,32(sp)
    c00011fe:	e852                	sd	s4,16(sp)
    c0001200:	e456                	sd	s5,8(sp)
    c0001202:	e05a                	sd	s6,0(sp)
    c0001204:	0080                	addi	s0,sp,64
    c0001206:	03154783          	lbu	a5,49(a0)
    c000120a:	03054703          	lbu	a4,48(a0)
    c000120e:	03254583          	lbu	a1,50(a0)
    c0001212:	03354603          	lbu	a2,51(a0)
    c0001216:	07a2                	slli	a5,a5,0x8
    c0001218:	03454683          	lbu	a3,52(a0)
    c000121c:	8fd9                	or	a5,a5,a4
    c000121e:	05c2                	slli	a1,a1,0x10
    c0001220:	03554703          	lbu	a4,53(a0)
    c0001224:	8ddd                	or	a1,a1,a5
    c0001226:	0662                	slli	a2,a2,0x18
    c0001228:	03654783          	lbu	a5,54(a0)
    c000122c:	8e4d                	or	a2,a2,a1
    c000122e:	1682                	slli	a3,a3,0x20
    c0001230:	03754483          	lbu	s1,55(a0)
    c0001234:	8ed1                	or	a3,a3,a2
    c0001236:	1722                	slli	a4,a4,0x28
    c0001238:	0000a617          	auipc	a2,0xa
    c000123c:	dd860613          	addi	a2,a2,-552 # c000b010 <ipi_data_off>
    c0001240:	00063903          	ld	s2,0(a2)
    c0001244:	8f55                	or	a4,a4,a3
    c0001246:	17c2                	slli	a5,a5,0x30
    c0001248:	8fd9                	or	a5,a5,a4
    c000124a:	14e2                	slli	s1,s1,0x38
    c000124c:	8cdd                	or	s1,s1,a5
    c000124e:	89aa                	mv	s3,a0
    c0001250:	992a                	add	s2,s2,a0
    c0001252:	2a4050ef          	jal	ra,c00064f6 <sbi_current_hartid>
    c0001256:	c0d1                	beqz	s1,c00012da <sbi_ipi_process+0xe8>
    c0001258:	0694c703          	lbu	a4,105(s1)
    c000125c:	0684c683          	lbu	a3,104(s1)
    c0001260:	06a4c783          	lbu	a5,106(s1)
    c0001264:	06b4c583          	lbu	a1,107(s1)
    c0001268:	0722                	slli	a4,a4,0x8
    c000126a:	06c4c603          	lbu	a2,108(s1)
    c000126e:	8f55                	or	a4,a4,a3
    c0001270:	07c2                	slli	a5,a5,0x10
    c0001272:	06d4c683          	lbu	a3,109(s1)
    c0001276:	8fd9                	or	a5,a5,a4
    c0001278:	05e2                	slli	a1,a1,0x18
    c000127a:	06e4c703          	lbu	a4,110(s1)
    c000127e:	8ddd                	or	a1,a1,a5
    c0001280:	1602                	slli	a2,a2,0x20
    c0001282:	06f4c783          	lbu	a5,111(s1)
    c0001286:	8e4d                	or	a2,a2,a1
    c0001288:	16a2                	slli	a3,a3,0x28
    c000128a:	8ed1                	or	a3,a3,a2
    c000128c:	1742                	slli	a4,a4,0x30
    c000128e:	8f55                	or	a4,a4,a3
    c0001290:	17e2                	slli	a5,a5,0x38
    c0001292:	8fd9                	or	a5,a5,a4
    c0001294:	0717c703          	lbu	a4,113(a5)
    c0001298:	0707c683          	lbu	a3,112(a5)
    c000129c:	0727c803          	lbu	a6,114(a5)
    c00012a0:	0737c583          	lbu	a1,115(a5)
    c00012a4:	0747c603          	lbu	a2,116(a5)
    c00012a8:	0722                	slli	a4,a4,0x8
    c00012aa:	8f55                	or	a4,a4,a3
    c00012ac:	0842                	slli	a6,a6,0x10
    c00012ae:	0757c683          	lbu	a3,117(a5)
    c00012b2:	00e86833          	or	a6,a6,a4
    c00012b6:	05e2                	slli	a1,a1,0x18
    c00012b8:	0767c703          	lbu	a4,118(a5)
    c00012bc:	0105e5b3          	or	a1,a1,a6
    c00012c0:	1602                	slli	a2,a2,0x20
    c00012c2:	0777c783          	lbu	a5,119(a5)
    c00012c6:	8e4d                	or	a2,a2,a1
    c00012c8:	16a2                	slli	a3,a3,0x28
    c00012ca:	8ed1                	or	a3,a3,a2
    c00012cc:	1742                	slli	a4,a4,0x30
    c00012ce:	8f55                	or	a4,a4,a3
    c00012d0:	17e2                	slli	a5,a5,0x38
    c00012d2:	8fd9                	or	a5,a5,a4
    c00012d4:	c399                	beqz	a5,c00012da <sbi_ipi_process+0xe8>
    c00012d6:	2501                	sext.w	a0,a0
    c00012d8:	9782                	jalr	a5
    c00012da:	4581                	li	a1,0
    c00012dc:	854a                	mv	a0,s2
    c00012de:	2e8030ef          	jal	ra,c00045c6 <atomic_raw_xchg_ulong>
    c00012e2:	84aa                	mv	s1,a0
    c00012e4:	c915                	beqz	a0,c0001318 <sbi_ipi_process+0x126>
    c00012e6:	4901                	li	s2,0
    c00012e8:	4b09                	li	s6,2
    c00012ea:	4ac1                	li	s5,16
    c00012ec:	4a05                	li	s4,1
    c00012ee:	a811                	j	c0001302 <sbi_ipi_process+0x110>
    c00012f0:	03590e63          	beq	s2,s5,c000132c <sbi_ipi_process+0x13a>
    c00012f4:	01491463          	bne	s2,s4,c00012fc <sbi_ipi_process+0x10a>
    c00012f8:	34416073          	csrsi	mip,2
    c00012fc:	8085                	srli	s1,s1,0x1
    c00012fe:	2905                	addiw	s2,s2,1
    c0001300:	cc81                	beqz	s1,c0001318 <sbi_ipi_process+0x126>
    c0001302:	0014f793          	andi	a5,s1,1
    c0001306:	dbfd                	beqz	a5,c00012fc <sbi_ipi_process+0x10a>
    c0001308:	ff6914e3          	bne	s2,s6,c00012f0 <sbi_ipi_process+0xfe>
    c000130c:	854e                	mv	a0,s3
    c000130e:	8085                	srli	s1,s1,0x1
    c0001310:	160010ef          	jal	ra,c0002470 <sbi_tlb_fifo_process>
    c0001314:	2905                	addiw	s2,s2,1
    c0001316:	f4f5                	bnez	s1,c0001302 <sbi_ipi_process+0x110>
    c0001318:	70e2                	ld	ra,56(sp)
    c000131a:	7442                	ld	s0,48(sp)
    c000131c:	74a2                	ld	s1,40(sp)
    c000131e:	7902                	ld	s2,32(sp)
    c0001320:	69e2                	ld	s3,24(sp)
    c0001322:	6a42                	ld	s4,16(sp)
    c0001324:	6aa2                	ld	s5,8(sp)
    c0001326:	6b02                	ld	s6,0(sp)
    c0001328:	6121                	addi	sp,sp,64
    c000132a:	8082                	ret
    c000132c:	854e                	mv	a0,s3
    c000132e:	9bfff0ef          	jal	ra,c0000cec <sbi_exit>

00000000c0001332 <sbi_ipi_init>:
    c0001332:	7179                	addi	sp,sp,-48
    c0001334:	f022                	sd	s0,32(sp)
    c0001336:	ec26                	sd	s1,24(sp)
    c0001338:	e84a                	sd	s2,16(sp)
    c000133a:	f406                	sd	ra,40(sp)
    c000133c:	e44e                	sd	s3,8(sp)
    c000133e:	1800                	addi	s0,sp,48
    c0001340:	892e                	mv	s2,a1
    c0001342:	84aa                	mv	s1,a0
    c0001344:	e9f5                	bnez	a1,c0001438 <sbi_ipi_init+0x106>
    c0001346:	0000a797          	auipc	a5,0xa
    c000134a:	cca78793          	addi	a5,a5,-822 # c000b010 <ipi_data_off>
    c000134e:	6388                	ld	a0,0(a5)
    c0001350:	10050163          	beqz	a0,c0001452 <sbi_ipi_init+0x120>
    c0001354:	9526                	add	a0,a0,s1
    c0001356:	00053023          	sd	zero,0(a0)
    c000135a:	85ca                	mv	a1,s2
    c000135c:	8526                	mv	a0,s1
    c000135e:	23e010ef          	jal	ra,c000259c <sbi_tlb_fifo_init>
    c0001362:	89aa                	mv	s3,a0
    c0001364:	e171                	bnez	a0,c0001428 <sbi_ipi_init+0xf6>
    c0001366:	0314c703          	lbu	a4,49(s1)
    c000136a:	0304c683          	lbu	a3,48(s1)
    c000136e:	0324c783          	lbu	a5,50(s1)
    c0001372:	0334c583          	lbu	a1,51(s1)
    c0001376:	0722                	slli	a4,a4,0x8
    c0001378:	0344c603          	lbu	a2,52(s1)
    c000137c:	8f55                	or	a4,a4,a3
    c000137e:	07c2                	slli	a5,a5,0x10
    c0001380:	0354c683          	lbu	a3,53(s1)
    c0001384:	8fd9                	or	a5,a5,a4
    c0001386:	05e2                	slli	a1,a1,0x18
    c0001388:	0364c703          	lbu	a4,54(s1)
    c000138c:	8ddd                	or	a1,a1,a5
    c000138e:	1602                	slli	a2,a2,0x20
    c0001390:	0374c783          	lbu	a5,55(s1)
    c0001394:	8e4d                	or	a2,a2,a1
    c0001396:	16a2                	slli	a3,a3,0x28
    c0001398:	8ed1                	or	a3,a3,a2
    c000139a:	1742                	slli	a4,a4,0x30
    c000139c:	8f55                	or	a4,a4,a3
    c000139e:	17e2                	slli	a5,a5,0x38
    c00013a0:	8fd9                	or	a5,a5,a4
    c00013a2:	c3c9                	beqz	a5,c0001424 <sbi_ipi_init+0xf2>
    c00013a4:	0697c703          	lbu	a4,105(a5)
    c00013a8:	0687c683          	lbu	a3,104(a5)
    c00013ac:	06a7c503          	lbu	a0,106(a5)
    c00013b0:	06b7c583          	lbu	a1,107(a5)
    c00013b4:	06c7c603          	lbu	a2,108(a5)
    c00013b8:	0722                	slli	a4,a4,0x8
    c00013ba:	8f55                	or	a4,a4,a3
    c00013bc:	0542                	slli	a0,a0,0x10
    c00013be:	06d7c683          	lbu	a3,109(a5)
    c00013c2:	8d59                	or	a0,a0,a4
    c00013c4:	05e2                	slli	a1,a1,0x18
    c00013c6:	06e7c703          	lbu	a4,110(a5)
    c00013ca:	8dc9                	or	a1,a1,a0
    c00013cc:	1602                	slli	a2,a2,0x20
    c00013ce:	06f7c783          	lbu	a5,111(a5)
    c00013d2:	8e4d                	or	a2,a2,a1
    c00013d4:	16a2                	slli	a3,a3,0x28
    c00013d6:	8ed1                	or	a3,a3,a2
    c00013d8:	1742                	slli	a4,a4,0x30
    c00013da:	8f55                	or	a4,a4,a3
    c00013dc:	17e2                	slli	a5,a5,0x38
    c00013de:	8fd9                	or	a5,a5,a4
    c00013e0:	0797c703          	lbu	a4,121(a5)
    c00013e4:	0787c683          	lbu	a3,120(a5)
    c00013e8:	07a7c503          	lbu	a0,122(a5)
    c00013ec:	07b7c583          	lbu	a1,123(a5)
    c00013f0:	07c7c603          	lbu	a2,124(a5)
    c00013f4:	0722                	slli	a4,a4,0x8
    c00013f6:	8f55                	or	a4,a4,a3
    c00013f8:	0542                	slli	a0,a0,0x10
    c00013fa:	07d7c683          	lbu	a3,125(a5)
    c00013fe:	8d59                	or	a0,a0,a4
    c0001400:	05e2                	slli	a1,a1,0x18
    c0001402:	07e7c703          	lbu	a4,126(a5)
    c0001406:	8dc9                	or	a1,a1,a0
    c0001408:	1602                	slli	a2,a2,0x20
    c000140a:	07f7c783          	lbu	a5,127(a5)
    c000140e:	8e4d                	or	a2,a2,a1
    c0001410:	16a2                	slli	a3,a3,0x28
    c0001412:	8ed1                	or	a3,a3,a2
    c0001414:	1742                	slli	a4,a4,0x30
    c0001416:	8f55                	or	a4,a4,a3
    c0001418:	17e2                	slli	a5,a5,0x38
    c000141a:	8fd9                	or	a5,a5,a4
    c000141c:	c781                	beqz	a5,c0001424 <sbi_ipi_init+0xf2>
    c000141e:	854a                	mv	a0,s2
    c0001420:	9782                	jalr	a5
    c0001422:	e915                	bnez	a0,c0001456 <sbi_ipi_init+0x124>
    c0001424:	30446073          	csrsi	mie,8
    c0001428:	70a2                	ld	ra,40(sp)
    c000142a:	7402                	ld	s0,32(sp)
    c000142c:	854e                	mv	a0,s3
    c000142e:	64e2                	ld	s1,24(sp)
    c0001430:	6942                	ld	s2,16(sp)
    c0001432:	69a2                	ld	s3,8(sp)
    c0001434:	6145                	addi	sp,sp,48
    c0001436:	8082                	ret
    c0001438:	00008597          	auipc	a1,0x8
    c000143c:	e3858593          	addi	a1,a1,-456 # c0009270 <sbi_emulate_csr_write+0x940>
    c0001440:	4521                	li	a0,8
    c0001442:	0f0000ef          	jal	ra,c0001532 <sbi_scratch_alloc_offset>
    c0001446:	0000a797          	auipc	a5,0xa
    c000144a:	bca7b523          	sd	a0,-1078(a5) # c000b010 <ipi_data_off>
    c000144e:	f00513e3          	bnez	a0,c0001354 <sbi_ipi_init+0x22>
    c0001452:	59d1                	li	s3,-12
    c0001454:	bfd1                	j	c0001428 <sbi_ipi_init+0xf6>
    c0001456:	89aa                	mv	s3,a0
    c0001458:	bfc1                	j	c0001428 <sbi_ipi_init+0xf6>

00000000c000145a <sbi_ipi_exit>:
    c000145a:	1101                	addi	sp,sp,-32
    c000145c:	e822                	sd	s0,16(sp)
    c000145e:	e426                	sd	s1,8(sp)
    c0001460:	ec06                	sd	ra,24(sp)
    c0001462:	1000                	addi	s0,sp,32
    c0001464:	84aa                	mv	s1,a0
    c0001466:	30447073          	csrci	mie,8
    c000146a:	d89ff0ef          	jal	ra,c00011f2 <sbi_ipi_process>
    c000146e:	0314c703          	lbu	a4,49(s1)
    c0001472:	0304c683          	lbu	a3,48(s1)
    c0001476:	0324c783          	lbu	a5,50(s1)
    c000147a:	0334c583          	lbu	a1,51(s1)
    c000147e:	0722                	slli	a4,a4,0x8
    c0001480:	0344c603          	lbu	a2,52(s1)
    c0001484:	8f55                	or	a4,a4,a3
    c0001486:	07c2                	slli	a5,a5,0x10
    c0001488:	0354c683          	lbu	a3,53(s1)
    c000148c:	8fd9                	or	a5,a5,a4
    c000148e:	05e2                	slli	a1,a1,0x18
    c0001490:	0364c703          	lbu	a4,54(s1)
    c0001494:	8ddd                	or	a1,a1,a5
    c0001496:	1602                	slli	a2,a2,0x20
    c0001498:	0374c783          	lbu	a5,55(s1)
    c000149c:	8e4d                	or	a2,a2,a1
    c000149e:	16a2                	slli	a3,a3,0x28
    c00014a0:	8ed1                	or	a3,a3,a2
    c00014a2:	1742                	slli	a4,a4,0x30
    c00014a4:	8f55                	or	a4,a4,a3
    c00014a6:	17e2                	slli	a5,a5,0x38
    c00014a8:	8fd9                	or	a5,a5,a4
    c00014aa:	cfbd                	beqz	a5,c0001528 <sbi_ipi_exit+0xce>
    c00014ac:	0697c703          	lbu	a4,105(a5)
    c00014b0:	0687c683          	lbu	a3,104(a5)
    c00014b4:	06a7c503          	lbu	a0,106(a5)
    c00014b8:	06b7c583          	lbu	a1,107(a5)
    c00014bc:	06c7c603          	lbu	a2,108(a5)
    c00014c0:	0722                	slli	a4,a4,0x8
    c00014c2:	8f55                	or	a4,a4,a3
    c00014c4:	0542                	slli	a0,a0,0x10
    c00014c6:	06d7c683          	lbu	a3,109(a5)
    c00014ca:	8d59                	or	a0,a0,a4
    c00014cc:	05e2                	slli	a1,a1,0x18
    c00014ce:	06e7c703          	lbu	a4,110(a5)
    c00014d2:	8dc9                	or	a1,a1,a0
    c00014d4:	1602                	slli	a2,a2,0x20
    c00014d6:	06f7c783          	lbu	a5,111(a5)
    c00014da:	8e4d                	or	a2,a2,a1
    c00014dc:	16a2                	slli	a3,a3,0x28
    c00014de:	8ed1                	or	a3,a3,a2
    c00014e0:	1742                	slli	a4,a4,0x30
    c00014e2:	8f55                	or	a4,a4,a3
    c00014e4:	17e2                	slli	a5,a5,0x38
    c00014e6:	8fd9                	or	a5,a5,a4
    c00014e8:	0817c703          	lbu	a4,129(a5)
    c00014ec:	0807c683          	lbu	a3,128(a5)
    c00014f0:	0827c503          	lbu	a0,130(a5)
    c00014f4:	0837c583          	lbu	a1,131(a5)
    c00014f8:	0847c603          	lbu	a2,132(a5)
    c00014fc:	0722                	slli	a4,a4,0x8
    c00014fe:	8f55                	or	a4,a4,a3
    c0001500:	0542                	slli	a0,a0,0x10
    c0001502:	0857c683          	lbu	a3,133(a5)
    c0001506:	8d59                	or	a0,a0,a4
    c0001508:	05e2                	slli	a1,a1,0x18
    c000150a:	0867c703          	lbu	a4,134(a5)
    c000150e:	8dc9                	or	a1,a1,a0
    c0001510:	1602                	slli	a2,a2,0x20
    c0001512:	0877c783          	lbu	a5,135(a5)
    c0001516:	8e4d                	or	a2,a2,a1
    c0001518:	16a2                	slli	a3,a3,0x28
    c000151a:	8ed1                	or	a3,a3,a2
    c000151c:	1742                	slli	a4,a4,0x30
    c000151e:	8f55                	or	a4,a4,a3
    c0001520:	17e2                	slli	a5,a5,0x38
    c0001522:	8fd9                	or	a5,a5,a4
    c0001524:	c391                	beqz	a5,c0001528 <sbi_ipi_exit+0xce>
    c0001526:	9782                	jalr	a5
    c0001528:	60e2                	ld	ra,24(sp)
    c000152a:	6442                	ld	s0,16(sp)
    c000152c:	64a2                	ld	s1,8(sp)
    c000152e:	6105                	addi	sp,sp,32
    c0001530:	8082                	ret

00000000c0001532 <sbi_scratch_alloc_offset>:
    c0001532:	7139                	addi	sp,sp,-64
    c0001534:	f822                	sd	s0,48(sp)
    c0001536:	fc06                	sd	ra,56(sp)
    c0001538:	f426                	sd	s1,40(sp)
    c000153a:	f04a                	sd	s2,32(sp)
    c000153c:	ec4e                	sd	s3,24(sp)
    c000153e:	e852                	sd	s4,16(sp)
    c0001540:	e456                	sd	s5,8(sp)
    c0001542:	0080                	addi	s0,sp,64
    c0001544:	10050763          	beqz	a0,c0001652 <sbi_scratch_alloc_offset+0x120>
    c0001548:	00757793          	andi	a5,a0,7
    c000154c:	84aa                	mv	s1,a0
    c000154e:	c789                	beqz	a5,c0001558 <sbi_scratch_alloc_offset+0x26>
    c0001550:	0485                	addi	s1,s1,1
    c0001552:	0074f793          	andi	a5,s1,7
    c0001556:	ffed                	bnez	a5,c0001550 <sbi_scratch_alloc_offset+0x1e>
    c0001558:	0000a517          	auipc	a0,0xa
    c000155c:	ac050513          	addi	a0,a0,-1344 # c000b018 <extra_lock>
    c0001560:	18e030ef          	jal	ra,c00046ee <spin_lock>
    c0001564:	00009797          	auipc	a5,0x9
    c0001568:	a9c78793          	addi	a5,a5,-1380 # c000a000 <extra_offset>
    c000156c:	0007b903          	ld	s2,0(a5)
    c0001570:	20000713          	li	a4,512
    c0001574:	0000a517          	auipc	a0,0xa
    c0001578:	aa450513          	addi	a0,a0,-1372 # c000b018 <extra_lock>
    c000157c:	009907b3          	add	a5,s2,s1
    c0001580:	0af76c63          	bltu	a4,a5,c0001638 <sbi_scratch_alloc_offset+0x106>
    c0001584:	00009717          	auipc	a4,0x9
    c0001588:	a6f73e23          	sd	a5,-1412(a4) # c000a000 <extra_offset>
    c000158c:	180030ef          	jal	ra,c000470c <spin_unlock>
    c0001590:	0c090163          	beqz	s2,c0001652 <sbi_scratch_alloc_offset+0x120>
    c0001594:	34002af3          	csrr	s5,mscratch
    c0001598:	031ac783          	lbu	a5,49(s5)
    c000159c:	030ac583          	lbu	a1,48(s5)
    c00015a0:	032ac603          	lbu	a2,50(s5)
    c00015a4:	033ac683          	lbu	a3,51(s5)
    c00015a8:	07a2                	slli	a5,a5,0x8
    c00015aa:	034ac703          	lbu	a4,52(s5)
    c00015ae:	8fcd                	or	a5,a5,a1
    c00015b0:	0642                	slli	a2,a2,0x10
    c00015b2:	035ac983          	lbu	s3,53(s5)
    c00015b6:	8e5d                	or	a2,a2,a5
    c00015b8:	06e2                	slli	a3,a3,0x18
    c00015ba:	036ac783          	lbu	a5,54(s5)
    c00015be:	8ed1                	or	a3,a3,a2
    c00015c0:	1702                	slli	a4,a4,0x20
    c00015c2:	037ac603          	lbu	a2,55(s5)
    c00015c6:	8f55                	or	a4,a4,a3
    c00015c8:	19a2                	slli	s3,s3,0x28
    c00015ca:	00e9e9b3          	or	s3,s3,a4
    c00015ce:	17c2                	slli	a5,a5,0x30
    c00015d0:	0137e7b3          	or	a5,a5,s3
    c00015d4:	03861993          	slli	s3,a2,0x38
    c00015d8:	00f9e9b3          	or	s3,s3,a5
    c00015dc:	06098163          	beqz	s3,c000163e <sbi_scratch_alloc_offset+0x10c>
    c00015e0:	0519c683          	lbu	a3,81(s3)
    c00015e4:	0509c603          	lbu	a2,80(s3)
    c00015e8:	0529c703          	lbu	a4,82(s3)
    c00015ec:	0539c783          	lbu	a5,83(s3)
    c00015f0:	06a2                	slli	a3,a3,0x8
    c00015f2:	8ed1                	or	a3,a3,a2
    c00015f4:	0742                	slli	a4,a4,0x10
    c00015f6:	8f55                	or	a4,a4,a3
    c00015f8:	07e2                	slli	a5,a5,0x18
    c00015fa:	8fd9                	or	a5,a5,a4
    c00015fc:	c3a9                	beqz	a5,c000163e <sbi_scratch_alloc_offset+0x10c>
    c00015fe:	4a01                	li	s4,0
    c0001600:	85d2                	mv	a1,s4
    c0001602:	8556                	mv	a0,s5
    c0001604:	6fe050ef          	jal	ra,c0006d02 <sbi_hart_id_to_scratch>
    c0001608:	8626                	mv	a2,s1
    c000160a:	4581                	li	a1,0
    c000160c:	954a                	add	a0,a0,s2
    c000160e:	5b8020ef          	jal	ra,c0003bc6 <sbi_memset>
    c0001612:	0519c683          	lbu	a3,81(s3)
    c0001616:	0509c603          	lbu	a2,80(s3)
    c000161a:	0529c703          	lbu	a4,82(s3)
    c000161e:	0539c783          	lbu	a5,83(s3)
    c0001622:	06a2                	slli	a3,a3,0x8
    c0001624:	8ed1                	or	a3,a3,a2
    c0001626:	0742                	slli	a4,a4,0x10
    c0001628:	8f55                	or	a4,a4,a3
    c000162a:	07e2                	slli	a5,a5,0x18
    c000162c:	8fd9                	or	a5,a5,a4
    c000162e:	2a05                	addiw	s4,s4,1
    c0001630:	2781                	sext.w	a5,a5
    c0001632:	fcfa67e3          	bltu	s4,a5,c0001600 <sbi_scratch_alloc_offset+0xce>
    c0001636:	a021                	j	c000163e <sbi_scratch_alloc_offset+0x10c>
    c0001638:	0d4030ef          	jal	ra,c000470c <spin_unlock>
    c000163c:	4901                	li	s2,0
    c000163e:	70e2                	ld	ra,56(sp)
    c0001640:	7442                	ld	s0,48(sp)
    c0001642:	854a                	mv	a0,s2
    c0001644:	74a2                	ld	s1,40(sp)
    c0001646:	7902                	ld	s2,32(sp)
    c0001648:	69e2                	ld	s3,24(sp)
    c000164a:	6a42                	ld	s4,16(sp)
    c000164c:	6aa2                	ld	s5,8(sp)
    c000164e:	6121                	addi	sp,sp,64
    c0001650:	8082                	ret
    c0001652:	4901                	li	s2,0
    c0001654:	b7ed                	j	c000163e <sbi_scratch_alloc_offset+0x10c>

00000000c0001656 <sbi_scratch_free_offset>:
    c0001656:	1141                	addi	sp,sp,-16
    c0001658:	e422                	sd	s0,8(sp)
    c000165a:	0800                	addi	s0,sp,16
    c000165c:	6422                	ld	s0,8(sp)
    c000165e:	0141                	addi	sp,sp,16
    c0001660:	8082                	ret

00000000c0001662 <sbi_system_early_init>:
    c0001662:	03154703          	lbu	a4,49(a0)
    c0001666:	03054683          	lbu	a3,48(a0)
    c000166a:	03254783          	lbu	a5,50(a0)
    c000166e:	03354803          	lbu	a6,51(a0)
    c0001672:	0722                	slli	a4,a4,0x8
    c0001674:	03454603          	lbu	a2,52(a0)
    c0001678:	8f55                	or	a4,a4,a3
    c000167a:	07c2                	slli	a5,a5,0x10
    c000167c:	03554683          	lbu	a3,53(a0)
    c0001680:	8fd9                	or	a5,a5,a4
    c0001682:	0862                	slli	a6,a6,0x18
    c0001684:	03654703          	lbu	a4,54(a0)
    c0001688:	00f86833          	or	a6,a6,a5
    c000168c:	1602                	slli	a2,a2,0x20
    c000168e:	03754783          	lbu	a5,55(a0)
    c0001692:	01066633          	or	a2,a2,a6
    c0001696:	16a2                	slli	a3,a3,0x28
    c0001698:	8ed1                	or	a3,a3,a2
    c000169a:	1742                	slli	a4,a4,0x30
    c000169c:	8f55                	or	a4,a4,a3
    c000169e:	17e2                	slli	a5,a5,0x38
    c00016a0:	8fd9                	or	a5,a5,a4
    c00016a2:	cfd9                	beqz	a5,c0001740 <sbi_system_early_init+0xde>
    c00016a4:	0697c703          	lbu	a4,105(a5)
    c00016a8:	0687c683          	lbu	a3,104(a5)
    c00016ac:	06a7c803          	lbu	a6,106(a5)
    c00016b0:	06b7c503          	lbu	a0,107(a5)
    c00016b4:	06c7c603          	lbu	a2,108(a5)
    c00016b8:	0722                	slli	a4,a4,0x8
    c00016ba:	8f55                	or	a4,a4,a3
    c00016bc:	0842                	slli	a6,a6,0x10
    c00016be:	06d7c683          	lbu	a3,109(a5)
    c00016c2:	00e86833          	or	a6,a6,a4
    c00016c6:	0562                	slli	a0,a0,0x18
    c00016c8:	06e7c703          	lbu	a4,110(a5)
    c00016cc:	01056533          	or	a0,a0,a6
    c00016d0:	1602                	slli	a2,a2,0x20
    c00016d2:	06f7c783          	lbu	a5,111(a5)
    c00016d6:	8e49                	or	a2,a2,a0
    c00016d8:	16a2                	slli	a3,a3,0x28
    c00016da:	8ed1                	or	a3,a3,a2
    c00016dc:	1742                	slli	a4,a4,0x30
    c00016de:	8f55                	or	a4,a4,a3
    c00016e0:	17e2                	slli	a5,a5,0x38
    c00016e2:	8fd9                	or	a5,a5,a4
    c00016e4:	0017c703          	lbu	a4,1(a5)
    c00016e8:	0007c683          	lbu	a3,0(a5)
    c00016ec:	0027c883          	lbu	a7,2(a5)
    c00016f0:	0037c803          	lbu	a6,3(a5)
    c00016f4:	0047c603          	lbu	a2,4(a5)
    c00016f8:	0722                	slli	a4,a4,0x8
    c00016fa:	8f55                	or	a4,a4,a3
    c00016fc:	08c2                	slli	a7,a7,0x10
    c00016fe:	0057c683          	lbu	a3,5(a5)
    c0001702:	00e8e8b3          	or	a7,a7,a4
    c0001706:	0862                	slli	a6,a6,0x18
    c0001708:	0067c703          	lbu	a4,6(a5)
    c000170c:	01186833          	or	a6,a6,a7
    c0001710:	1602                	slli	a2,a2,0x20
    c0001712:	0077c783          	lbu	a5,7(a5)
    c0001716:	01066633          	or	a2,a2,a6
    c000171a:	16a2                	slli	a3,a3,0x28
    c000171c:	8ed1                	or	a3,a3,a2
    c000171e:	1742                	slli	a4,a4,0x30
    c0001720:	8f55                	or	a4,a4,a3
    c0001722:	17e2                	slli	a5,a5,0x38
    c0001724:	8fd9                	or	a5,a5,a4
    c0001726:	4501                	li	a0,0
    c0001728:	cb99                	beqz	a5,c000173e <sbi_system_early_init+0xdc>
    c000172a:	1141                	addi	sp,sp,-16
    c000172c:	e022                	sd	s0,0(sp)
    c000172e:	e406                	sd	ra,8(sp)
    c0001730:	0800                	addi	s0,sp,16
    c0001732:	852e                	mv	a0,a1
    c0001734:	9782                	jalr	a5
    c0001736:	60a2                	ld	ra,8(sp)
    c0001738:	6402                	ld	s0,0(sp)
    c000173a:	0141                	addi	sp,sp,16
    c000173c:	8082                	ret
    c000173e:	8082                	ret
    c0001740:	4501                	li	a0,0
    c0001742:	8082                	ret

00000000c0001744 <sbi_system_final_init>:
    c0001744:	03154703          	lbu	a4,49(a0)
    c0001748:	03054683          	lbu	a3,48(a0)
    c000174c:	03254783          	lbu	a5,50(a0)
    c0001750:	03354803          	lbu	a6,51(a0)
    c0001754:	0722                	slli	a4,a4,0x8
    c0001756:	03454603          	lbu	a2,52(a0)
    c000175a:	8f55                	or	a4,a4,a3
    c000175c:	07c2                	slli	a5,a5,0x10
    c000175e:	03554683          	lbu	a3,53(a0)
    c0001762:	8fd9                	or	a5,a5,a4
    c0001764:	0862                	slli	a6,a6,0x18
    c0001766:	03654703          	lbu	a4,54(a0)
    c000176a:	00f86833          	or	a6,a6,a5
    c000176e:	1602                	slli	a2,a2,0x20
    c0001770:	03754783          	lbu	a5,55(a0)
    c0001774:	01066633          	or	a2,a2,a6
    c0001778:	16a2                	slli	a3,a3,0x28
    c000177a:	8ed1                	or	a3,a3,a2
    c000177c:	1742                	slli	a4,a4,0x30
    c000177e:	8f55                	or	a4,a4,a3
    c0001780:	17e2                	slli	a5,a5,0x38
    c0001782:	8fd9                	or	a5,a5,a4
    c0001784:	cfd9                	beqz	a5,c0001822 <sbi_system_final_init+0xde>
    c0001786:	0697c703          	lbu	a4,105(a5)
    c000178a:	0687c683          	lbu	a3,104(a5)
    c000178e:	06a7c803          	lbu	a6,106(a5)
    c0001792:	06b7c503          	lbu	a0,107(a5)
    c0001796:	06c7c603          	lbu	a2,108(a5)
    c000179a:	0722                	slli	a4,a4,0x8
    c000179c:	8f55                	or	a4,a4,a3
    c000179e:	0842                	slli	a6,a6,0x10
    c00017a0:	06d7c683          	lbu	a3,109(a5)
    c00017a4:	00e86833          	or	a6,a6,a4
    c00017a8:	0562                	slli	a0,a0,0x18
    c00017aa:	06e7c703          	lbu	a4,110(a5)
    c00017ae:	01056533          	or	a0,a0,a6
    c00017b2:	1602                	slli	a2,a2,0x20
    c00017b4:	06f7c783          	lbu	a5,111(a5)
    c00017b8:	8e49                	or	a2,a2,a0
    c00017ba:	16a2                	slli	a3,a3,0x28
    c00017bc:	8ed1                	or	a3,a3,a2
    c00017be:	1742                	slli	a4,a4,0x30
    c00017c0:	8f55                	or	a4,a4,a3
    c00017c2:	17e2                	slli	a5,a5,0x38
    c00017c4:	8fd9                	or	a5,a5,a4
    c00017c6:	0097c703          	lbu	a4,9(a5)
    c00017ca:	0087c683          	lbu	a3,8(a5)
    c00017ce:	00a7c883          	lbu	a7,10(a5)
    c00017d2:	00b7c803          	lbu	a6,11(a5)
    c00017d6:	00c7c603          	lbu	a2,12(a5)
    c00017da:	0722                	slli	a4,a4,0x8
    c00017dc:	8f55                	or	a4,a4,a3
    c00017de:	08c2                	slli	a7,a7,0x10
    c00017e0:	00d7c683          	lbu	a3,13(a5)
    c00017e4:	00e8e8b3          	or	a7,a7,a4
    c00017e8:	0862                	slli	a6,a6,0x18
    c00017ea:	00e7c703          	lbu	a4,14(a5)
    c00017ee:	01186833          	or	a6,a6,a7
    c00017f2:	1602                	slli	a2,a2,0x20
    c00017f4:	00f7c783          	lbu	a5,15(a5)
    c00017f8:	01066633          	or	a2,a2,a6
    c00017fc:	16a2                	slli	a3,a3,0x28
    c00017fe:	8ed1                	or	a3,a3,a2
    c0001800:	1742                	slli	a4,a4,0x30
    c0001802:	8f55                	or	a4,a4,a3
    c0001804:	17e2                	slli	a5,a5,0x38
    c0001806:	8fd9                	or	a5,a5,a4
    c0001808:	4501                	li	a0,0
    c000180a:	cb99                	beqz	a5,c0001820 <sbi_system_final_init+0xdc>
    c000180c:	1141                	addi	sp,sp,-16
    c000180e:	e022                	sd	s0,0(sp)
    c0001810:	e406                	sd	ra,8(sp)
    c0001812:	0800                	addi	s0,sp,16
    c0001814:	852e                	mv	a0,a1
    c0001816:	9782                	jalr	a5
    c0001818:	60a2                	ld	ra,8(sp)
    c000181a:	6402                	ld	s0,0(sp)
    c000181c:	0141                	addi	sp,sp,16
    c000181e:	8082                	ret
    c0001820:	8082                	ret
    c0001822:	4501                	li	a0,0
    c0001824:	8082                	ret

00000000c0001826 <sbi_system_early_exit>:
    c0001826:	03154703          	lbu	a4,49(a0)
    c000182a:	03054683          	lbu	a3,48(a0)
    c000182e:	03254783          	lbu	a5,50(a0)
    c0001832:	03354583          	lbu	a1,51(a0)
    c0001836:	0722                	slli	a4,a4,0x8
    c0001838:	03454603          	lbu	a2,52(a0)
    c000183c:	8f55                	or	a4,a4,a3
    c000183e:	07c2                	slli	a5,a5,0x10
    c0001840:	03554683          	lbu	a3,53(a0)
    c0001844:	8fd9                	or	a5,a5,a4
    c0001846:	05e2                	slli	a1,a1,0x18
    c0001848:	03654703          	lbu	a4,54(a0)
    c000184c:	8ddd                	or	a1,a1,a5
    c000184e:	1602                	slli	a2,a2,0x20
    c0001850:	03754783          	lbu	a5,55(a0)
    c0001854:	8e4d                	or	a2,a2,a1
    c0001856:	16a2                	slli	a3,a3,0x28
    c0001858:	8ed1                	or	a3,a3,a2
    c000185a:	1742                	slli	a4,a4,0x30
    c000185c:	8f55                	or	a4,a4,a3
    c000185e:	17e2                	slli	a5,a5,0x38
    c0001860:	8fd9                	or	a5,a5,a4
    c0001862:	c7d9                	beqz	a5,c00018f0 <sbi_system_early_exit+0xca>
    c0001864:	0697c703          	lbu	a4,105(a5)
    c0001868:	0687c683          	lbu	a3,104(a5)
    c000186c:	06a7c503          	lbu	a0,106(a5)
    c0001870:	06b7c583          	lbu	a1,107(a5)
    c0001874:	06c7c603          	lbu	a2,108(a5)
    c0001878:	0722                	slli	a4,a4,0x8
    c000187a:	8f55                	or	a4,a4,a3
    c000187c:	0542                	slli	a0,a0,0x10
    c000187e:	06d7c683          	lbu	a3,109(a5)
    c0001882:	8d59                	or	a0,a0,a4
    c0001884:	05e2                	slli	a1,a1,0x18
    c0001886:	06e7c703          	lbu	a4,110(a5)
    c000188a:	8dc9                	or	a1,a1,a0
    c000188c:	1602                	slli	a2,a2,0x20
    c000188e:	06f7c783          	lbu	a5,111(a5)
    c0001892:	8e4d                	or	a2,a2,a1
    c0001894:	16a2                	slli	a3,a3,0x28
    c0001896:	8ed1                	or	a3,a3,a2
    c0001898:	1742                	slli	a4,a4,0x30
    c000189a:	8f55                	or	a4,a4,a3
    c000189c:	17e2                	slli	a5,a5,0x38
    c000189e:	8fd9                	or	a5,a5,a4
    c00018a0:	0117c703          	lbu	a4,17(a5)
    c00018a4:	0107c683          	lbu	a3,16(a5)
    c00018a8:	0127c503          	lbu	a0,18(a5)
    c00018ac:	0137c583          	lbu	a1,19(a5)
    c00018b0:	0147c603          	lbu	a2,20(a5)
    c00018b4:	0722                	slli	a4,a4,0x8
    c00018b6:	8f55                	or	a4,a4,a3
    c00018b8:	0542                	slli	a0,a0,0x10
    c00018ba:	0157c683          	lbu	a3,21(a5)
    c00018be:	8d59                	or	a0,a0,a4
    c00018c0:	05e2                	slli	a1,a1,0x18
    c00018c2:	0167c703          	lbu	a4,22(a5)
    c00018c6:	8dc9                	or	a1,a1,a0
    c00018c8:	1602                	slli	a2,a2,0x20
    c00018ca:	0177c783          	lbu	a5,23(a5)
    c00018ce:	8e4d                	or	a2,a2,a1
    c00018d0:	16a2                	slli	a3,a3,0x28
    c00018d2:	8ed1                	or	a3,a3,a2
    c00018d4:	1742                	slli	a4,a4,0x30
    c00018d6:	8f55                	or	a4,a4,a3
    c00018d8:	17e2                	slli	a5,a5,0x38
    c00018da:	8fd9                	or	a5,a5,a4
    c00018dc:	cb91                	beqz	a5,c00018f0 <sbi_system_early_exit+0xca>
    c00018de:	1141                	addi	sp,sp,-16
    c00018e0:	e022                	sd	s0,0(sp)
    c00018e2:	e406                	sd	ra,8(sp)
    c00018e4:	0800                	addi	s0,sp,16
    c00018e6:	9782                	jalr	a5
    c00018e8:	60a2                	ld	ra,8(sp)
    c00018ea:	6402                	ld	s0,0(sp)
    c00018ec:	0141                	addi	sp,sp,16
    c00018ee:	8082                	ret
    c00018f0:	8082                	ret

00000000c00018f2 <sbi_system_final_exit>:
    c00018f2:	03154703          	lbu	a4,49(a0)
    c00018f6:	03054683          	lbu	a3,48(a0)
    c00018fa:	03254783          	lbu	a5,50(a0)
    c00018fe:	03354583          	lbu	a1,51(a0)
    c0001902:	0722                	slli	a4,a4,0x8
    c0001904:	03454603          	lbu	a2,52(a0)
    c0001908:	8f55                	or	a4,a4,a3
    c000190a:	07c2                	slli	a5,a5,0x10
    c000190c:	03554683          	lbu	a3,53(a0)
    c0001910:	8fd9                	or	a5,a5,a4
    c0001912:	05e2                	slli	a1,a1,0x18
    c0001914:	03654703          	lbu	a4,54(a0)
    c0001918:	8ddd                	or	a1,a1,a5
    c000191a:	1602                	slli	a2,a2,0x20
    c000191c:	03754783          	lbu	a5,55(a0)
    c0001920:	8e4d                	or	a2,a2,a1
    c0001922:	16a2                	slli	a3,a3,0x28
    c0001924:	8ed1                	or	a3,a3,a2
    c0001926:	1742                	slli	a4,a4,0x30
    c0001928:	8f55                	or	a4,a4,a3
    c000192a:	17e2                	slli	a5,a5,0x38
    c000192c:	8fd9                	or	a5,a5,a4
    c000192e:	c7d9                	beqz	a5,c00019bc <sbi_system_final_exit+0xca>
    c0001930:	0697c703          	lbu	a4,105(a5)
    c0001934:	0687c683          	lbu	a3,104(a5)
    c0001938:	06a7c503          	lbu	a0,106(a5)
    c000193c:	06b7c583          	lbu	a1,107(a5)
    c0001940:	06c7c603          	lbu	a2,108(a5)
    c0001944:	0722                	slli	a4,a4,0x8
    c0001946:	8f55                	or	a4,a4,a3
    c0001948:	0542                	slli	a0,a0,0x10
    c000194a:	06d7c683          	lbu	a3,109(a5)
    c000194e:	8d59                	or	a0,a0,a4
    c0001950:	05e2                	slli	a1,a1,0x18
    c0001952:	06e7c703          	lbu	a4,110(a5)
    c0001956:	8dc9                	or	a1,a1,a0
    c0001958:	1602                	slli	a2,a2,0x20
    c000195a:	06f7c783          	lbu	a5,111(a5)
    c000195e:	8e4d                	or	a2,a2,a1
    c0001960:	16a2                	slli	a3,a3,0x28
    c0001962:	8ed1                	or	a3,a3,a2
    c0001964:	1742                	slli	a4,a4,0x30
    c0001966:	8f55                	or	a4,a4,a3
    c0001968:	17e2                	slli	a5,a5,0x38
    c000196a:	8fd9                	or	a5,a5,a4
    c000196c:	0197c703          	lbu	a4,25(a5)
    c0001970:	0187c683          	lbu	a3,24(a5)
    c0001974:	01a7c503          	lbu	a0,26(a5)
    c0001978:	01b7c583          	lbu	a1,27(a5)
    c000197c:	01c7c603          	lbu	a2,28(a5)
    c0001980:	0722                	slli	a4,a4,0x8
    c0001982:	8f55                	or	a4,a4,a3
    c0001984:	0542                	slli	a0,a0,0x10
    c0001986:	01d7c683          	lbu	a3,29(a5)
    c000198a:	8d59                	or	a0,a0,a4
    c000198c:	05e2                	slli	a1,a1,0x18
    c000198e:	01e7c703          	lbu	a4,30(a5)
    c0001992:	8dc9                	or	a1,a1,a0
    c0001994:	1602                	slli	a2,a2,0x20
    c0001996:	01f7c783          	lbu	a5,31(a5)
    c000199a:	8e4d                	or	a2,a2,a1
    c000199c:	16a2                	slli	a3,a3,0x28
    c000199e:	8ed1                	or	a3,a3,a2
    c00019a0:	1742                	slli	a4,a4,0x30
    c00019a2:	8f55                	or	a4,a4,a3
    c00019a4:	17e2                	slli	a5,a5,0x38
    c00019a6:	8fd9                	or	a5,a5,a4
    c00019a8:	cb91                	beqz	a5,c00019bc <sbi_system_final_exit+0xca>
    c00019aa:	1141                	addi	sp,sp,-16
    c00019ac:	e022                	sd	s0,0(sp)
    c00019ae:	e406                	sd	ra,8(sp)
    c00019b0:	0800                	addi	s0,sp,16
    c00019b2:	9782                	jalr	a5
    c00019b4:	60a2                	ld	ra,8(sp)
    c00019b6:	6402                	ld	s0,0(sp)
    c00019b8:	0141                	addi	sp,sp,16
    c00019ba:	8082                	ret
    c00019bc:	8082                	ret

00000000c00019be <sbi_system_reboot>:
    c00019be:	7179                	addi	sp,sp,-48
    c00019c0:	f406                	sd	ra,40(sp)
    c00019c2:	f022                	sd	s0,32(sp)
    c00019c4:	ec26                	sd	s1,24(sp)
    c00019c6:	1800                	addi	s0,sp,48
    c00019c8:	e84a                	sd	s2,16(sp)
    c00019ca:	e44e                	sd	s3,8(sp)
    c00019cc:	84aa                	mv	s1,a0
    c00019ce:	892e                	mv	s2,a1
    c00019d0:	327040ef          	jal	ra,c00064f6 <sbi_current_hartid>
    c00019d4:	0005099b          	sext.w	s3,a0
    c00019d8:	2f0050ef          	jal	ra,c0006cc8 <sbi_hart_available_mask>
    c00019dc:	4585                	li	a1,1
    c00019de:	013595b3          	sll	a1,a1,s3
    c00019e2:	fff5c593          	not	a1,a1
    c00019e6:	1582                	slli	a1,a1,0x20
    c00019e8:	9181                	srli	a1,a1,0x20
    c00019ea:	8de9                	and	a1,a1,a0
    c00019ec:	4701                	li	a4,0
    c00019ee:	46c1                	li	a3,16
    c00019f0:	4601                	li	a2,0
    c00019f2:	8526                	mv	a0,s1
    c00019f4:	efaff0ef          	jal	ra,c00010ee <sbi_ipi_send_many>
    c00019f8:	0314c703          	lbu	a4,49(s1)
    c00019fc:	0304c683          	lbu	a3,48(s1)
    c0001a00:	0324c783          	lbu	a5,50(s1)
    c0001a04:	0334c583          	lbu	a1,51(s1)
    c0001a08:	0722                	slli	a4,a4,0x8
    c0001a0a:	0344c603          	lbu	a2,52(s1)
    c0001a0e:	8f55                	or	a4,a4,a3
    c0001a10:	07c2                	slli	a5,a5,0x10
    c0001a12:	0354c683          	lbu	a3,53(s1)
    c0001a16:	8fd9                	or	a5,a5,a4
    c0001a18:	05e2                	slli	a1,a1,0x18
    c0001a1a:	0364c703          	lbu	a4,54(s1)
    c0001a1e:	8ddd                	or	a1,a1,a5
    c0001a20:	1602                	slli	a2,a2,0x20
    c0001a22:	0374c783          	lbu	a5,55(s1)
    c0001a26:	8e4d                	or	a2,a2,a1
    c0001a28:	16a2                	slli	a3,a3,0x28
    c0001a2a:	8ed1                	or	a3,a3,a2
    c0001a2c:	1742                	slli	a4,a4,0x30
    c0001a2e:	8f55                	or	a4,a4,a3
    c0001a30:	17e2                	slli	a5,a5,0x38
    c0001a32:	8fd9                	or	a5,a5,a4
    c0001a34:	c3c1                	beqz	a5,c0001ab4 <sbi_system_reboot+0xf6>
    c0001a36:	0697c703          	lbu	a4,105(a5)
    c0001a3a:	0687c683          	lbu	a3,104(a5)
    c0001a3e:	06a7c503          	lbu	a0,106(a5)
    c0001a42:	06b7c583          	lbu	a1,107(a5)
    c0001a46:	06c7c603          	lbu	a2,108(a5)
    c0001a4a:	0722                	slli	a4,a4,0x8
    c0001a4c:	8f55                	or	a4,a4,a3
    c0001a4e:	0542                	slli	a0,a0,0x10
    c0001a50:	06d7c683          	lbu	a3,109(a5)
    c0001a54:	8d59                	or	a0,a0,a4
    c0001a56:	05e2                	slli	a1,a1,0x18
    c0001a58:	06e7c703          	lbu	a4,110(a5)
    c0001a5c:	8dc9                	or	a1,a1,a0
    c0001a5e:	1602                	slli	a2,a2,0x20
    c0001a60:	06f7c783          	lbu	a5,111(a5)
    c0001a64:	8e4d                	or	a2,a2,a1
    c0001a66:	16a2                	slli	a3,a3,0x28
    c0001a68:	8ed1                	or	a3,a3,a2
    c0001a6a:	1742                	slli	a4,a4,0x30
    c0001a6c:	8f55                	or	a4,a4,a3
    c0001a6e:	17e2                	slli	a5,a5,0x38
    c0001a70:	8fd9                	or	a5,a5,a4
    c0001a72:	0b17c703          	lbu	a4,177(a5)
    c0001a76:	0b07c683          	lbu	a3,176(a5)
    c0001a7a:	0b27c503          	lbu	a0,178(a5)
    c0001a7e:	0b37c583          	lbu	a1,179(a5)
    c0001a82:	0b47c603          	lbu	a2,180(a5)
    c0001a86:	0722                	slli	a4,a4,0x8
    c0001a88:	8f55                	or	a4,a4,a3
    c0001a8a:	0542                	slli	a0,a0,0x10
    c0001a8c:	0b57c683          	lbu	a3,181(a5)
    c0001a90:	8d59                	or	a0,a0,a4
    c0001a92:	05e2                	slli	a1,a1,0x18
    c0001a94:	0b67c703          	lbu	a4,182(a5)
    c0001a98:	8dc9                	or	a1,a1,a0
    c0001a9a:	1602                	slli	a2,a2,0x20
    c0001a9c:	0b77c783          	lbu	a5,183(a5)
    c0001aa0:	8e4d                	or	a2,a2,a1
    c0001aa2:	16a2                	slli	a3,a3,0x28
    c0001aa4:	8ed1                	or	a3,a3,a2
    c0001aa6:	1742                	slli	a4,a4,0x30
    c0001aa8:	8f55                	or	a4,a4,a3
    c0001aaa:	17e2                	slli	a5,a5,0x38
    c0001aac:	8fd9                	or	a5,a5,a4
    c0001aae:	c399                	beqz	a5,c0001ab4 <sbi_system_reboot+0xf6>
    c0001ab0:	854a                	mv	a0,s2
    c0001ab2:	9782                	jalr	a5
    c0001ab4:	8526                	mv	a0,s1
    c0001ab6:	a36ff0ef          	jal	ra,c0000cec <sbi_exit>

00000000c0001aba <sbi_system_shutdown>:
    c0001aba:	7179                	addi	sp,sp,-48
    c0001abc:	f406                	sd	ra,40(sp)
    c0001abe:	f022                	sd	s0,32(sp)
    c0001ac0:	ec26                	sd	s1,24(sp)
    c0001ac2:	1800                	addi	s0,sp,48
    c0001ac4:	e84a                	sd	s2,16(sp)
    c0001ac6:	e44e                	sd	s3,8(sp)
    c0001ac8:	84aa                	mv	s1,a0
    c0001aca:	892e                	mv	s2,a1
    c0001acc:	22b040ef          	jal	ra,c00064f6 <sbi_current_hartid>
    c0001ad0:	0005099b          	sext.w	s3,a0
    c0001ad4:	1f4050ef          	jal	ra,c0006cc8 <sbi_hart_available_mask>
    c0001ad8:	4585                	li	a1,1
    c0001ada:	013595b3          	sll	a1,a1,s3
    c0001ade:	fff5c593          	not	a1,a1
    c0001ae2:	1582                	slli	a1,a1,0x20
    c0001ae4:	9181                	srli	a1,a1,0x20
    c0001ae6:	8de9                	and	a1,a1,a0
    c0001ae8:	4701                	li	a4,0
    c0001aea:	46c1                	li	a3,16
    c0001aec:	4601                	li	a2,0
    c0001aee:	8526                	mv	a0,s1
    c0001af0:	dfeff0ef          	jal	ra,c00010ee <sbi_ipi_send_many>
    c0001af4:	0314c703          	lbu	a4,49(s1)
    c0001af8:	0304c683          	lbu	a3,48(s1)
    c0001afc:	0324c783          	lbu	a5,50(s1)
    c0001b00:	0334c583          	lbu	a1,51(s1)
    c0001b04:	0722                	slli	a4,a4,0x8
    c0001b06:	0344c603          	lbu	a2,52(s1)
    c0001b0a:	8f55                	or	a4,a4,a3
    c0001b0c:	07c2                	slli	a5,a5,0x10
    c0001b0e:	0354c683          	lbu	a3,53(s1)
    c0001b12:	8fd9                	or	a5,a5,a4
    c0001b14:	05e2                	slli	a1,a1,0x18
    c0001b16:	0364c703          	lbu	a4,54(s1)
    c0001b1a:	8ddd                	or	a1,a1,a5
    c0001b1c:	1602                	slli	a2,a2,0x20
    c0001b1e:	0374c783          	lbu	a5,55(s1)
    c0001b22:	8e4d                	or	a2,a2,a1
    c0001b24:	16a2                	slli	a3,a3,0x28
    c0001b26:	8ed1                	or	a3,a3,a2
    c0001b28:	1742                	slli	a4,a4,0x30
    c0001b2a:	8f55                	or	a4,a4,a3
    c0001b2c:	17e2                	slli	a5,a5,0x38
    c0001b2e:	8fd9                	or	a5,a5,a4
    c0001b30:	c3c1                	beqz	a5,c0001bb0 <sbi_system_shutdown+0xf6>
    c0001b32:	0697c703          	lbu	a4,105(a5)
    c0001b36:	0687c683          	lbu	a3,104(a5)
    c0001b3a:	06a7c503          	lbu	a0,106(a5)
    c0001b3e:	06b7c583          	lbu	a1,107(a5)
    c0001b42:	06c7c603          	lbu	a2,108(a5)
    c0001b46:	0722                	slli	a4,a4,0x8
    c0001b48:	8f55                	or	a4,a4,a3
    c0001b4a:	0542                	slli	a0,a0,0x10
    c0001b4c:	06d7c683          	lbu	a3,109(a5)
    c0001b50:	8d59                	or	a0,a0,a4
    c0001b52:	05e2                	slli	a1,a1,0x18
    c0001b54:	06e7c703          	lbu	a4,110(a5)
    c0001b58:	8dc9                	or	a1,a1,a0
    c0001b5a:	1602                	slli	a2,a2,0x20
    c0001b5c:	06f7c783          	lbu	a5,111(a5)
    c0001b60:	8e4d                	or	a2,a2,a1
    c0001b62:	16a2                	slli	a3,a3,0x28
    c0001b64:	8ed1                	or	a3,a3,a2
    c0001b66:	1742                	slli	a4,a4,0x30
    c0001b68:	8f55                	or	a4,a4,a3
    c0001b6a:	17e2                	slli	a5,a5,0x38
    c0001b6c:	8fd9                	or	a5,a5,a4
    c0001b6e:	0b97c703          	lbu	a4,185(a5)
    c0001b72:	0b87c683          	lbu	a3,184(a5)
    c0001b76:	0ba7c503          	lbu	a0,186(a5)
    c0001b7a:	0bb7c583          	lbu	a1,187(a5)
    c0001b7e:	0bc7c603          	lbu	a2,188(a5)
    c0001b82:	0722                	slli	a4,a4,0x8
    c0001b84:	8f55                	or	a4,a4,a3
    c0001b86:	0542                	slli	a0,a0,0x10
    c0001b88:	0bd7c683          	lbu	a3,189(a5)
    c0001b8c:	8d59                	or	a0,a0,a4
    c0001b8e:	05e2                	slli	a1,a1,0x18
    c0001b90:	0be7c703          	lbu	a4,190(a5)
    c0001b94:	8dc9                	or	a1,a1,a0
    c0001b96:	1602                	slli	a2,a2,0x20
    c0001b98:	0bf7c783          	lbu	a5,191(a5)
    c0001b9c:	8e4d                	or	a2,a2,a1
    c0001b9e:	16a2                	slli	a3,a3,0x28
    c0001ba0:	8ed1                	or	a3,a3,a2
    c0001ba2:	1742                	slli	a4,a4,0x30
    c0001ba4:	8f55                	or	a4,a4,a3
    c0001ba6:	17e2                	slli	a5,a5,0x38
    c0001ba8:	8fd9                	or	a5,a5,a4
    c0001baa:	c399                	beqz	a5,c0001bb0 <sbi_system_shutdown+0xf6>
    c0001bac:	854a                	mv	a0,s2
    c0001bae:	9782                	jalr	a5
    c0001bb0:	8526                	mv	a0,s1
    c0001bb2:	93aff0ef          	jal	ra,c0000cec <sbi_exit>

00000000c0001bb6 <get_ticks>:
    c0001bb6:	1141                	addi	sp,sp,-16
    c0001bb8:	e422                	sd	s0,8(sp)
    c0001bba:	0800                	addi	s0,sp,16
    c0001bbc:	c0102573          	rdtime	a0
    c0001bc0:	6422                	ld	s0,8(sp)
    c0001bc2:	0141                	addi	sp,sp,16
    c0001bc4:	8082                	ret

00000000c0001bc6 <sbi_timer_value>:
    c0001bc6:	03154703          	lbu	a4,49(a0)
    c0001bca:	03054683          	lbu	a3,48(a0)
    c0001bce:	03254783          	lbu	a5,50(a0)
    c0001bd2:	03354583          	lbu	a1,51(a0)
    c0001bd6:	0722                	slli	a4,a4,0x8
    c0001bd8:	03454603          	lbu	a2,52(a0)
    c0001bdc:	8f55                	or	a4,a4,a3
    c0001bde:	07c2                	slli	a5,a5,0x10
    c0001be0:	03554683          	lbu	a3,53(a0)
    c0001be4:	8fd9                	or	a5,a5,a4
    c0001be6:	05e2                	slli	a1,a1,0x18
    c0001be8:	03654703          	lbu	a4,54(a0)
    c0001bec:	8ddd                	or	a1,a1,a5
    c0001bee:	1602                	slli	a2,a2,0x20
    c0001bf0:	03754783          	lbu	a5,55(a0)
    c0001bf4:	8e4d                	or	a2,a2,a1
    c0001bf6:	16a2                	slli	a3,a3,0x28
    c0001bf8:	8ed1                	or	a3,a3,a2
    c0001bfa:	1742                	slli	a4,a4,0x30
    c0001bfc:	8f55                	or	a4,a4,a3
    c0001bfe:	17e2                	slli	a5,a5,0x38
    c0001c00:	8fd9                	or	a5,a5,a4
    c0001c02:	0487c703          	lbu	a4,72(a5)
    c0001c06:	8b05                	andi	a4,a4,1
    c0001c08:	cf51                	beqz	a4,c0001ca4 <sbi_timer_value+0xde>
    c0001c0a:	4501                	li	a0,0
    c0001c0c:	cbd9                	beqz	a5,c0001ca2 <sbi_timer_value+0xdc>
    c0001c0e:	0697c703          	lbu	a4,105(a5)
    c0001c12:	0687c683          	lbu	a3,104(a5)
    c0001c16:	06a7c803          	lbu	a6,106(a5)
    c0001c1a:	06b7c583          	lbu	a1,107(a5)
    c0001c1e:	06c7c603          	lbu	a2,108(a5)
    c0001c22:	0722                	slli	a4,a4,0x8
    c0001c24:	8f55                	or	a4,a4,a3
    c0001c26:	0842                	slli	a6,a6,0x10
    c0001c28:	06d7c683          	lbu	a3,109(a5)
    c0001c2c:	00e86833          	or	a6,a6,a4
    c0001c30:	05e2                	slli	a1,a1,0x18
    c0001c32:	06e7c703          	lbu	a4,110(a5)
    c0001c36:	0105e5b3          	or	a1,a1,a6
    c0001c3a:	1602                	slli	a2,a2,0x20
    c0001c3c:	06f7c783          	lbu	a5,111(a5)
    c0001c40:	8e4d                	or	a2,a2,a1
    c0001c42:	16a2                	slli	a3,a3,0x28
    c0001c44:	8ed1                	or	a3,a3,a2
    c0001c46:	1742                	slli	a4,a4,0x30
    c0001c48:	8f55                	or	a4,a4,a3
    c0001c4a:	17e2                	slli	a5,a5,0x38
    c0001c4c:	8fd9                	or	a5,a5,a4
    c0001c4e:	0897c703          	lbu	a4,137(a5)
    c0001c52:	0887c683          	lbu	a3,136(a5)
    c0001c56:	08a7c803          	lbu	a6,138(a5)
    c0001c5a:	08b7c583          	lbu	a1,139(a5)
    c0001c5e:	08c7c603          	lbu	a2,140(a5)
    c0001c62:	0722                	slli	a4,a4,0x8
    c0001c64:	8f55                	or	a4,a4,a3
    c0001c66:	0842                	slli	a6,a6,0x10
    c0001c68:	08d7c683          	lbu	a3,141(a5)
    c0001c6c:	00e86833          	or	a6,a6,a4
    c0001c70:	05e2                	slli	a1,a1,0x18
    c0001c72:	08e7c703          	lbu	a4,142(a5)
    c0001c76:	0105e5b3          	or	a1,a1,a6
    c0001c7a:	1602                	slli	a2,a2,0x20
    c0001c7c:	08f7c783          	lbu	a5,143(a5)
    c0001c80:	8e4d                	or	a2,a2,a1
    c0001c82:	16a2                	slli	a3,a3,0x28
    c0001c84:	8ed1                	or	a3,a3,a2
    c0001c86:	1742                	slli	a4,a4,0x30
    c0001c88:	8f55                	or	a4,a4,a3
    c0001c8a:	17e2                	slli	a5,a5,0x38
    c0001c8c:	8fd9                	or	a5,a5,a4
    c0001c8e:	cb91                	beqz	a5,c0001ca2 <sbi_timer_value+0xdc>
    c0001c90:	1141                	addi	sp,sp,-16
    c0001c92:	e022                	sd	s0,0(sp)
    c0001c94:	e406                	sd	ra,8(sp)
    c0001c96:	0800                	addi	s0,sp,16
    c0001c98:	9782                	jalr	a5
    c0001c9a:	60a2                	ld	ra,8(sp)
    c0001c9c:	6402                	ld	s0,0(sp)
    c0001c9e:	0141                	addi	sp,sp,16
    c0001ca0:	8082                	ret
    c0001ca2:	8082                	ret
    c0001ca4:	c0102573          	rdtime	a0
    c0001ca8:	8082                	ret

00000000c0001caa <sbi_timer_virt_value>:
    c0001caa:	1101                	addi	sp,sp,-32
    c0001cac:	e822                	sd	s0,16(sp)
    c0001cae:	ec06                	sd	ra,24(sp)
    c0001cb0:	e426                	sd	s1,8(sp)
    c0001cb2:	1000                	addi	s0,sp,32
    c0001cb4:	03154703          	lbu	a4,49(a0)
    c0001cb8:	03054683          	lbu	a3,48(a0)
    c0001cbc:	03254783          	lbu	a5,50(a0)
    c0001cc0:	03354583          	lbu	a1,51(a0)
    c0001cc4:	0722                	slli	a4,a4,0x8
    c0001cc6:	03454603          	lbu	a2,52(a0)
    c0001cca:	8f55                	or	a4,a4,a3
    c0001ccc:	07c2                	slli	a5,a5,0x10
    c0001cce:	03554683          	lbu	a3,53(a0)
    c0001cd2:	8fd9                	or	a5,a5,a4
    c0001cd4:	05e2                	slli	a1,a1,0x18
    c0001cd6:	03654703          	lbu	a4,54(a0)
    c0001cda:	8ddd                	or	a1,a1,a5
    c0001cdc:	1602                	slli	a2,a2,0x20
    c0001cde:	03754783          	lbu	a5,55(a0)
    c0001ce2:	8e4d                	or	a2,a2,a1
    c0001ce4:	16a2                	slli	a3,a3,0x28
    c0001ce6:	8ed1                	or	a3,a3,a2
    c0001ce8:	1742                	slli	a4,a4,0x30
    c0001cea:	8f55                	or	a4,a4,a3
    c0001cec:	17e2                	slli	a5,a5,0x38
    c0001cee:	8fd9                	or	a5,a5,a4
    c0001cf0:	0487c703          	lbu	a4,72(a5)
    c0001cf4:	00009697          	auipc	a3,0x9
    c0001cf8:	32c68693          	addi	a3,a3,812 # c000b020 <time_delta_off>
    c0001cfc:	6284                	ld	s1,0(a3)
    c0001cfe:	8b05                	andi	a4,a4,1
    c0001d00:	94aa                	add	s1,s1,a0
    c0001d02:	cf41                	beqz	a4,c0001d9a <sbi_timer_virt_value+0xf0>
    c0001d04:	4501                	li	a0,0
    c0001d06:	c3d9                	beqz	a5,c0001d8c <sbi_timer_virt_value+0xe2>
    c0001d08:	0697c703          	lbu	a4,105(a5)
    c0001d0c:	0687c683          	lbu	a3,104(a5)
    c0001d10:	06a7c803          	lbu	a6,106(a5)
    c0001d14:	06b7c583          	lbu	a1,107(a5)
    c0001d18:	06c7c603          	lbu	a2,108(a5)
    c0001d1c:	0722                	slli	a4,a4,0x8
    c0001d1e:	8f55                	or	a4,a4,a3
    c0001d20:	0842                	slli	a6,a6,0x10
    c0001d22:	06d7c683          	lbu	a3,109(a5)
    c0001d26:	00e86833          	or	a6,a6,a4
    c0001d2a:	05e2                	slli	a1,a1,0x18
    c0001d2c:	06e7c703          	lbu	a4,110(a5)
    c0001d30:	0105e5b3          	or	a1,a1,a6
    c0001d34:	1602                	slli	a2,a2,0x20
    c0001d36:	06f7c783          	lbu	a5,111(a5)
    c0001d3a:	8e4d                	or	a2,a2,a1
    c0001d3c:	16a2                	slli	a3,a3,0x28
    c0001d3e:	8ed1                	or	a3,a3,a2
    c0001d40:	1742                	slli	a4,a4,0x30
    c0001d42:	8f55                	or	a4,a4,a3
    c0001d44:	17e2                	slli	a5,a5,0x38
    c0001d46:	8fd9                	or	a5,a5,a4
    c0001d48:	0897c703          	lbu	a4,137(a5)
    c0001d4c:	0887c683          	lbu	a3,136(a5)
    c0001d50:	08a7c803          	lbu	a6,138(a5)
    c0001d54:	08b7c583          	lbu	a1,139(a5)
    c0001d58:	08c7c603          	lbu	a2,140(a5)
    c0001d5c:	0722                	slli	a4,a4,0x8
    c0001d5e:	8f55                	or	a4,a4,a3
    c0001d60:	0842                	slli	a6,a6,0x10
    c0001d62:	08d7c683          	lbu	a3,141(a5)
    c0001d66:	00e86833          	or	a6,a6,a4
    c0001d6a:	05e2                	slli	a1,a1,0x18
    c0001d6c:	08e7c703          	lbu	a4,142(a5)
    c0001d70:	0105e5b3          	or	a1,a1,a6
    c0001d74:	1602                	slli	a2,a2,0x20
    c0001d76:	08f7c783          	lbu	a5,143(a5)
    c0001d7a:	8e4d                	or	a2,a2,a1
    c0001d7c:	16a2                	slli	a3,a3,0x28
    c0001d7e:	8ed1                	or	a3,a3,a2
    c0001d80:	1742                	slli	a4,a4,0x30
    c0001d82:	8f55                	or	a4,a4,a3
    c0001d84:	17e2                	slli	a5,a5,0x38
    c0001d86:	8fd9                	or	a5,a5,a4
    c0001d88:	c391                	beqz	a5,c0001d8c <sbi_timer_virt_value+0xe2>
    c0001d8a:	9782                	jalr	a5
    c0001d8c:	609c                	ld	a5,0(s1)
    c0001d8e:	60e2                	ld	ra,24(sp)
    c0001d90:	6442                	ld	s0,16(sp)
    c0001d92:	64a2                	ld	s1,8(sp)
    c0001d94:	953e                	add	a0,a0,a5
    c0001d96:	6105                	addi	sp,sp,32
    c0001d98:	8082                	ret
    c0001d9a:	c0102573          	rdtime	a0
    c0001d9e:	609c                	ld	a5,0(s1)
    c0001da0:	60e2                	ld	ra,24(sp)
    c0001da2:	6442                	ld	s0,16(sp)
    c0001da4:	64a2                	ld	s1,8(sp)
    c0001da6:	953e                	add	a0,a0,a5
    c0001da8:	6105                	addi	sp,sp,32
    c0001daa:	8082                	ret

00000000c0001dac <sbi_timer_get_delta>:
    c0001dac:	1141                	addi	sp,sp,-16
    c0001dae:	e422                	sd	s0,8(sp)
    c0001db0:	0800                	addi	s0,sp,16
    c0001db2:	00009797          	auipc	a5,0x9
    c0001db6:	26e78793          	addi	a5,a5,622 # c000b020 <time_delta_off>
    c0001dba:	639c                	ld	a5,0(a5)
    c0001dbc:	6422                	ld	s0,8(sp)
    c0001dbe:	953e                	add	a0,a0,a5
    c0001dc0:	6108                	ld	a0,0(a0)
    c0001dc2:	0141                	addi	sp,sp,16
    c0001dc4:	8082                	ret

00000000c0001dc6 <sbi_timer_set_delta>:
    c0001dc6:	1141                	addi	sp,sp,-16
    c0001dc8:	e422                	sd	s0,8(sp)
    c0001dca:	0800                	addi	s0,sp,16
    c0001dcc:	00009797          	auipc	a5,0x9
    c0001dd0:	25478793          	addi	a5,a5,596 # c000b020 <time_delta_off>
    c0001dd4:	639c                	ld	a5,0(a5)
    c0001dd6:	953e                	add	a0,a0,a5
    c0001dd8:	e10c                	sd	a1,0(a0)
    c0001dda:	6422                	ld	s0,8(sp)
    c0001ddc:	0141                	addi	sp,sp,16
    c0001dde:	8082                	ret

00000000c0001de0 <sbi_timer_set_delta_upper>:
    c0001de0:	1141                	addi	sp,sp,-16
    c0001de2:	e422                	sd	s0,8(sp)
    c0001de4:	0800                	addi	s0,sp,16
    c0001de6:	00009797          	auipc	a5,0x9
    c0001dea:	23a78793          	addi	a5,a5,570 # c000b020 <time_delta_off>
    c0001dee:	639c                	ld	a5,0(a5)
    c0001df0:	953e                	add	a0,a0,a5
    c0001df2:	c14c                	sw	a1,4(a0)
    c0001df4:	6422                	ld	s0,8(sp)
    c0001df6:	0141                	addi	sp,sp,16
    c0001df8:	8082                	ret

00000000c0001dfa <sbi_timer_event_start>:
    c0001dfa:	03154703          	lbu	a4,49(a0)
    c0001dfe:	03054683          	lbu	a3,48(a0)
    c0001e02:	03254783          	lbu	a5,50(a0)
    c0001e06:	03354803          	lbu	a6,51(a0)
    c0001e0a:	0722                	slli	a4,a4,0x8
    c0001e0c:	03454603          	lbu	a2,52(a0)
    c0001e10:	8f55                	or	a4,a4,a3
    c0001e12:	07c2                	slli	a5,a5,0x10
    c0001e14:	03554683          	lbu	a3,53(a0)
    c0001e18:	8fd9                	or	a5,a5,a4
    c0001e1a:	0862                	slli	a6,a6,0x18
    c0001e1c:	03654703          	lbu	a4,54(a0)
    c0001e20:	00f86833          	or	a6,a6,a5
    c0001e24:	1602                	slli	a2,a2,0x20
    c0001e26:	03754783          	lbu	a5,55(a0)
    c0001e2a:	01066633          	or	a2,a2,a6
    c0001e2e:	16a2                	slli	a3,a3,0x28
    c0001e30:	8ed1                	or	a3,a3,a2
    c0001e32:	1742                	slli	a4,a4,0x30
    c0001e34:	8f55                	or	a4,a4,a3
    c0001e36:	17e2                	slli	a5,a5,0x38
    c0001e38:	8fd9                	or	a5,a5,a4
    c0001e3a:	c7cd                	beqz	a5,c0001ee4 <sbi_timer_event_start+0xea>
    c0001e3c:	0697c703          	lbu	a4,105(a5)
    c0001e40:	0687c683          	lbu	a3,104(a5)
    c0001e44:	06a7c803          	lbu	a6,106(a5)
    c0001e48:	06b7c503          	lbu	a0,107(a5)
    c0001e4c:	06c7c603          	lbu	a2,108(a5)
    c0001e50:	0722                	slli	a4,a4,0x8
    c0001e52:	8f55                	or	a4,a4,a3
    c0001e54:	0842                	slli	a6,a6,0x10
    c0001e56:	06d7c683          	lbu	a3,109(a5)
    c0001e5a:	00e86833          	or	a6,a6,a4
    c0001e5e:	0562                	slli	a0,a0,0x18
    c0001e60:	06e7c703          	lbu	a4,110(a5)
    c0001e64:	01056533          	or	a0,a0,a6
    c0001e68:	1602                	slli	a2,a2,0x20
    c0001e6a:	06f7c783          	lbu	a5,111(a5)
    c0001e6e:	8e49                	or	a2,a2,a0
    c0001e70:	16a2                	slli	a3,a3,0x28
    c0001e72:	8ed1                	or	a3,a3,a2
    c0001e74:	1742                	slli	a4,a4,0x30
    c0001e76:	8f55                	or	a4,a4,a3
    c0001e78:	17e2                	slli	a5,a5,0x38
    c0001e7a:	8fd9                	or	a5,a5,a4
    c0001e7c:	0917c703          	lbu	a4,145(a5)
    c0001e80:	0907c683          	lbu	a3,144(a5)
    c0001e84:	0927c883          	lbu	a7,146(a5)
    c0001e88:	0937c803          	lbu	a6,147(a5)
    c0001e8c:	0947c603          	lbu	a2,148(a5)
    c0001e90:	0722                	slli	a4,a4,0x8
    c0001e92:	8f55                	or	a4,a4,a3
    c0001e94:	08c2                	slli	a7,a7,0x10
    c0001e96:	0957c683          	lbu	a3,149(a5)
    c0001e9a:	00e8e8b3          	or	a7,a7,a4
    c0001e9e:	0862                	slli	a6,a6,0x18
    c0001ea0:	0967c703          	lbu	a4,150(a5)
    c0001ea4:	01186833          	or	a6,a6,a7
    c0001ea8:	1602                	slli	a2,a2,0x20
    c0001eaa:	0977c783          	lbu	a5,151(a5)
    c0001eae:	01066633          	or	a2,a2,a6
    c0001eb2:	16a2                	slli	a3,a3,0x28
    c0001eb4:	8ed1                	or	a3,a3,a2
    c0001eb6:	1742                	slli	a4,a4,0x30
    c0001eb8:	8f55                	or	a4,a4,a3
    c0001eba:	17e2                	slli	a5,a5,0x38
    c0001ebc:	8fd9                	or	a5,a5,a4
    c0001ebe:	c39d                	beqz	a5,c0001ee4 <sbi_timer_event_start+0xea>
    c0001ec0:	1141                	addi	sp,sp,-16
    c0001ec2:	e022                	sd	s0,0(sp)
    c0001ec4:	e406                	sd	ra,8(sp)
    c0001ec6:	0800                	addi	s0,sp,16
    c0001ec8:	852e                	mv	a0,a1
    c0001eca:	9782                	jalr	a5
    c0001ecc:	02000793          	li	a5,32
    c0001ed0:	3447b073          	csrc	mip,a5
    c0001ed4:	08000793          	li	a5,128
    c0001ed8:	3047a073          	csrs	mie,a5
    c0001edc:	60a2                	ld	ra,8(sp)
    c0001ede:	6402                	ld	s0,0(sp)
    c0001ee0:	0141                	addi	sp,sp,16
    c0001ee2:	8082                	ret
    c0001ee4:	02000793          	li	a5,32
    c0001ee8:	3447b073          	csrc	mip,a5
    c0001eec:	08000793          	li	a5,128
    c0001ef0:	3047a073          	csrs	mie,a5
    c0001ef4:	8082                	ret

00000000c0001ef6 <sbi_timer_process>:
    c0001ef6:	1141                	addi	sp,sp,-16
    c0001ef8:	e422                	sd	s0,8(sp)
    c0001efa:	0800                	addi	s0,sp,16
    c0001efc:	08000793          	li	a5,128
    c0001f00:	3047b073          	csrc	mie,a5
    c0001f04:	02000793          	li	a5,32
    c0001f08:	3447a073          	csrs	mip,a5
    c0001f0c:	6422                	ld	s0,8(sp)
    c0001f0e:	0141                	addi	sp,sp,16
    c0001f10:	8082                	ret

00000000c0001f12 <sbi_timer_init>:
    c0001f12:	1101                	addi	sp,sp,-32
    c0001f14:	e822                	sd	s0,16(sp)
    c0001f16:	e426                	sd	s1,8(sp)
    c0001f18:	e04a                	sd	s2,0(sp)
    c0001f1a:	ec06                	sd	ra,24(sp)
    c0001f1c:	1000                	addi	s0,sp,32
    c0001f1e:	892e                	mv	s2,a1
    c0001f20:	84aa                	mv	s1,a0
    c0001f22:	e1fd                	bnez	a1,c0002008 <sbi_timer_init+0xf6>
    c0001f24:	00009797          	auipc	a5,0x9
    c0001f28:	0fc78793          	addi	a5,a5,252 # c000b020 <time_delta_off>
    c0001f2c:	6388                	ld	a0,0(a5)
    c0001f2e:	c96d                	beqz	a0,c0002020 <sbi_timer_init+0x10e>
    c0001f30:	9526                	add	a0,a0,s1
    c0001f32:	00053023          	sd	zero,0(a0)
    c0001f36:	0314c703          	lbu	a4,49(s1)
    c0001f3a:	0304c683          	lbu	a3,48(s1)
    c0001f3e:	0324c783          	lbu	a5,50(s1)
    c0001f42:	0334c583          	lbu	a1,51(s1)
    c0001f46:	0722                	slli	a4,a4,0x8
    c0001f48:	0344c603          	lbu	a2,52(s1)
    c0001f4c:	8f55                	or	a4,a4,a3
    c0001f4e:	07c2                	slli	a5,a5,0x10
    c0001f50:	0354c683          	lbu	a3,53(s1)
    c0001f54:	8fd9                	or	a5,a5,a4
    c0001f56:	05e2                	slli	a1,a1,0x18
    c0001f58:	0364c703          	lbu	a4,54(s1)
    c0001f5c:	8ddd                	or	a1,a1,a5
    c0001f5e:	1602                	slli	a2,a2,0x20
    c0001f60:	0374c783          	lbu	a5,55(s1)
    c0001f64:	8e4d                	or	a2,a2,a1
    c0001f66:	16a2                	slli	a3,a3,0x28
    c0001f68:	8ed1                	or	a3,a3,a2
    c0001f6a:	1742                	slli	a4,a4,0x30
    c0001f6c:	8f55                	or	a4,a4,a3
    c0001f6e:	17e2                	slli	a5,a5,0x38
    c0001f70:	8fd9                	or	a5,a5,a4
    c0001f72:	4501                	li	a0,0
    c0001f74:	c7c1                	beqz	a5,c0001ffc <sbi_timer_init+0xea>
    c0001f76:	0697c703          	lbu	a4,105(a5)
    c0001f7a:	0687c683          	lbu	a3,104(a5)
    c0001f7e:	06a7c803          	lbu	a6,106(a5)
    c0001f82:	06b7c583          	lbu	a1,107(a5)
    c0001f86:	06c7c603          	lbu	a2,108(a5)
    c0001f8a:	0722                	slli	a4,a4,0x8
    c0001f8c:	8f55                	or	a4,a4,a3
    c0001f8e:	0842                	slli	a6,a6,0x10
    c0001f90:	06d7c683          	lbu	a3,109(a5)
    c0001f94:	00e86833          	or	a6,a6,a4
    c0001f98:	05e2                	slli	a1,a1,0x18
    c0001f9a:	06e7c703          	lbu	a4,110(a5)
    c0001f9e:	0105e5b3          	or	a1,a1,a6
    c0001fa2:	1602                	slli	a2,a2,0x20
    c0001fa4:	06f7c783          	lbu	a5,111(a5)
    c0001fa8:	8e4d                	or	a2,a2,a1
    c0001faa:	16a2                	slli	a3,a3,0x28
    c0001fac:	8ed1                	or	a3,a3,a2
    c0001fae:	1742                	slli	a4,a4,0x30
    c0001fb0:	8f55                	or	a4,a4,a3
    c0001fb2:	17e2                	slli	a5,a5,0x38
    c0001fb4:	8fd9                	or	a5,a5,a4
    c0001fb6:	0a17c703          	lbu	a4,161(a5)
    c0001fba:	0a07c683          	lbu	a3,160(a5)
    c0001fbe:	0a27c803          	lbu	a6,162(a5)
    c0001fc2:	0a37c583          	lbu	a1,163(a5)
    c0001fc6:	0a47c603          	lbu	a2,164(a5)
    c0001fca:	0722                	slli	a4,a4,0x8
    c0001fcc:	8f55                	or	a4,a4,a3
    c0001fce:	0842                	slli	a6,a6,0x10
    c0001fd0:	0a57c683          	lbu	a3,165(a5)
    c0001fd4:	00e86833          	or	a6,a6,a4
    c0001fd8:	05e2                	slli	a1,a1,0x18
    c0001fda:	0a67c703          	lbu	a4,166(a5)
    c0001fde:	0105e5b3          	or	a1,a1,a6
    c0001fe2:	1602                	slli	a2,a2,0x20
    c0001fe4:	0a77c783          	lbu	a5,167(a5)
    c0001fe8:	8e4d                	or	a2,a2,a1
    c0001fea:	16a2                	slli	a3,a3,0x28
    c0001fec:	8ed1                	or	a3,a3,a2
    c0001fee:	1742                	slli	a4,a4,0x30
    c0001ff0:	8f55                	or	a4,a4,a3
    c0001ff2:	17e2                	slli	a5,a5,0x38
    c0001ff4:	8fd9                	or	a5,a5,a4
    c0001ff6:	c399                	beqz	a5,c0001ffc <sbi_timer_init+0xea>
    c0001ff8:	854a                	mv	a0,s2
    c0001ffa:	9782                	jalr	a5
    c0001ffc:	60e2                	ld	ra,24(sp)
    c0001ffe:	6442                	ld	s0,16(sp)
    c0002000:	64a2                	ld	s1,8(sp)
    c0002002:	6902                	ld	s2,0(sp)
    c0002004:	6105                	addi	sp,sp,32
    c0002006:	8082                	ret
    c0002008:	00007597          	auipc	a1,0x7
    c000200c:	27858593          	addi	a1,a1,632 # c0009280 <sbi_emulate_csr_write+0x950>
    c0002010:	4521                	li	a0,8
    c0002012:	d20ff0ef          	jal	ra,c0001532 <sbi_scratch_alloc_offset>
    c0002016:	00009797          	auipc	a5,0x9
    c000201a:	00a7b523          	sd	a0,10(a5) # c000b020 <time_delta_off>
    c000201e:	f909                	bnez	a0,c0001f30 <sbi_timer_init+0x1e>
    c0002020:	5551                	li	a0,-12
    c0002022:	bfe9                	j	c0001ffc <sbi_timer_init+0xea>

00000000c0002024 <sbi_timer_exit>:
    c0002024:	1101                	addi	sp,sp,-32
    c0002026:	e822                	sd	s0,16(sp)
    c0002028:	e426                	sd	s1,8(sp)
    c000202a:	ec06                	sd	ra,24(sp)
    c000202c:	1000                	addi	s0,sp,32
    c000202e:	03154703          	lbu	a4,49(a0)
    c0002032:	03054683          	lbu	a3,48(a0)
    c0002036:	03254783          	lbu	a5,50(a0)
    c000203a:	03354583          	lbu	a1,51(a0)
    c000203e:	0722                	slli	a4,a4,0x8
    c0002040:	03454603          	lbu	a2,52(a0)
    c0002044:	8f55                	or	a4,a4,a3
    c0002046:	07c2                	slli	a5,a5,0x10
    c0002048:	03554683          	lbu	a3,53(a0)
    c000204c:	8fd9                	or	a5,a5,a4
    c000204e:	05e2                	slli	a1,a1,0x18
    c0002050:	03654703          	lbu	a4,54(a0)
    c0002054:	8ddd                	or	a1,a1,a5
    c0002056:	1602                	slli	a2,a2,0x20
    c0002058:	03754783          	lbu	a5,55(a0)
    c000205c:	8e4d                	or	a2,a2,a1
    c000205e:	16a2                	slli	a3,a3,0x28
    c0002060:	8ed1                	or	a3,a3,a2
    c0002062:	1742                	slli	a4,a4,0x30
    c0002064:	8f55                	or	a4,a4,a3
    c0002066:	17e2                	slli	a5,a5,0x38
    c0002068:	8fd9                	or	a5,a5,a4
    c000206a:	84aa                	mv	s1,a0
    c000206c:	cfbd                	beqz	a5,c00020ea <sbi_timer_exit+0xc6>
    c000206e:	0697c703          	lbu	a4,105(a5)
    c0002072:	0687c683          	lbu	a3,104(a5)
    c0002076:	06a7c503          	lbu	a0,106(a5)
    c000207a:	06b7c583          	lbu	a1,107(a5)
    c000207e:	06c7c603          	lbu	a2,108(a5)
    c0002082:	0722                	slli	a4,a4,0x8
    c0002084:	8f55                	or	a4,a4,a3
    c0002086:	0542                	slli	a0,a0,0x10
    c0002088:	06d7c683          	lbu	a3,109(a5)
    c000208c:	8d59                	or	a0,a0,a4
    c000208e:	05e2                	slli	a1,a1,0x18
    c0002090:	06e7c703          	lbu	a4,110(a5)
    c0002094:	8dc9                	or	a1,a1,a0
    c0002096:	1602                	slli	a2,a2,0x20
    c0002098:	06f7c783          	lbu	a5,111(a5)
    c000209c:	8e4d                	or	a2,a2,a1
    c000209e:	16a2                	slli	a3,a3,0x28
    c00020a0:	8ed1                	or	a3,a3,a2
    c00020a2:	1742                	slli	a4,a4,0x30
    c00020a4:	8f55                	or	a4,a4,a3
    c00020a6:	17e2                	slli	a5,a5,0x38
    c00020a8:	8fd9                	or	a5,a5,a4
    c00020aa:	0997c703          	lbu	a4,153(a5)
    c00020ae:	0987c683          	lbu	a3,152(a5)
    c00020b2:	09a7c503          	lbu	a0,154(a5)
    c00020b6:	09b7c583          	lbu	a1,155(a5)
    c00020ba:	09c7c603          	lbu	a2,156(a5)
    c00020be:	0722                	slli	a4,a4,0x8
    c00020c0:	8f55                	or	a4,a4,a3
    c00020c2:	0542                	slli	a0,a0,0x10
    c00020c4:	09d7c683          	lbu	a3,157(a5)
    c00020c8:	8d59                	or	a0,a0,a4
    c00020ca:	05e2                	slli	a1,a1,0x18
    c00020cc:	09e7c703          	lbu	a4,158(a5)
    c00020d0:	8dc9                	or	a1,a1,a0
    c00020d2:	1602                	slli	a2,a2,0x20
    c00020d4:	09f7c783          	lbu	a5,159(a5)
    c00020d8:	8e4d                	or	a2,a2,a1
    c00020da:	16a2                	slli	a3,a3,0x28
    c00020dc:	8ed1                	or	a3,a3,a2
    c00020de:	1742                	slli	a4,a4,0x30
    c00020e0:	8f55                	or	a4,a4,a3
    c00020e2:	17e2                	slli	a5,a5,0x38
    c00020e4:	8fd9                	or	a5,a5,a4
    c00020e6:	c391                	beqz	a5,c00020ea <sbi_timer_exit+0xc6>
    c00020e8:	9782                	jalr	a5
    c00020ea:	02000793          	li	a5,32
    c00020ee:	3447b073          	csrc	mip,a5
    c00020f2:	08000793          	li	a5,128
    c00020f6:	3047b073          	csrc	mie,a5
    c00020fa:	0314c703          	lbu	a4,49(s1)
    c00020fe:	0304c683          	lbu	a3,48(s1)
    c0002102:	0324c783          	lbu	a5,50(s1)
    c0002106:	0334c583          	lbu	a1,51(s1)
    c000210a:	0722                	slli	a4,a4,0x8
    c000210c:	0344c603          	lbu	a2,52(s1)
    c0002110:	8f55                	or	a4,a4,a3
    c0002112:	07c2                	slli	a5,a5,0x10
    c0002114:	0354c683          	lbu	a3,53(s1)
    c0002118:	8fd9                	or	a5,a5,a4
    c000211a:	05e2                	slli	a1,a1,0x18
    c000211c:	0364c703          	lbu	a4,54(s1)
    c0002120:	8ddd                	or	a1,a1,a5
    c0002122:	1602                	slli	a2,a2,0x20
    c0002124:	0374c783          	lbu	a5,55(s1)
    c0002128:	8e4d                	or	a2,a2,a1
    c000212a:	16a2                	slli	a3,a3,0x28
    c000212c:	8ed1                	or	a3,a3,a2
    c000212e:	1742                	slli	a4,a4,0x30
    c0002130:	8f55                	or	a4,a4,a3
    c0002132:	17e2                	slli	a5,a5,0x38
    c0002134:	8fd9                	or	a5,a5,a4
    c0002136:	cfbd                	beqz	a5,c00021b4 <sbi_timer_exit+0x190>
    c0002138:	0697c703          	lbu	a4,105(a5)
    c000213c:	0687c683          	lbu	a3,104(a5)
    c0002140:	06a7c503          	lbu	a0,106(a5)
    c0002144:	06b7c583          	lbu	a1,107(a5)
    c0002148:	06c7c603          	lbu	a2,108(a5)
    c000214c:	0722                	slli	a4,a4,0x8
    c000214e:	8f55                	or	a4,a4,a3
    c0002150:	0542                	slli	a0,a0,0x10
    c0002152:	06d7c683          	lbu	a3,109(a5)
    c0002156:	8d59                	or	a0,a0,a4
    c0002158:	05e2                	slli	a1,a1,0x18
    c000215a:	06e7c703          	lbu	a4,110(a5)
    c000215e:	8dc9                	or	a1,a1,a0
    c0002160:	1602                	slli	a2,a2,0x20
    c0002162:	06f7c783          	lbu	a5,111(a5)
    c0002166:	8e4d                	or	a2,a2,a1
    c0002168:	16a2                	slli	a3,a3,0x28
    c000216a:	8ed1                	or	a3,a3,a2
    c000216c:	1742                	slli	a4,a4,0x30
    c000216e:	8f55                	or	a4,a4,a3
    c0002170:	17e2                	slli	a5,a5,0x38
    c0002172:	8fd9                	or	a5,a5,a4
    c0002174:	0a97c703          	lbu	a4,169(a5)
    c0002178:	0a87c683          	lbu	a3,168(a5)
    c000217c:	0aa7c503          	lbu	a0,170(a5)
    c0002180:	0ab7c583          	lbu	a1,171(a5)
    c0002184:	0ac7c603          	lbu	a2,172(a5)
    c0002188:	0722                	slli	a4,a4,0x8
    c000218a:	8f55                	or	a4,a4,a3
    c000218c:	0542                	slli	a0,a0,0x10
    c000218e:	0ad7c683          	lbu	a3,173(a5)
    c0002192:	8d59                	or	a0,a0,a4
    c0002194:	05e2                	slli	a1,a1,0x18
    c0002196:	0ae7c703          	lbu	a4,174(a5)
    c000219a:	8dc9                	or	a1,a1,a0
    c000219c:	1602                	slli	a2,a2,0x20
    c000219e:	0af7c783          	lbu	a5,175(a5)
    c00021a2:	8e4d                	or	a2,a2,a1
    c00021a4:	16a2                	slli	a3,a3,0x28
    c00021a6:	8ed1                	or	a3,a3,a2
    c00021a8:	1742                	slli	a4,a4,0x30
    c00021aa:	8f55                	or	a4,a4,a3
    c00021ac:	17e2                	slli	a5,a5,0x38
    c00021ae:	8fd9                	or	a5,a5,a4
    c00021b0:	c391                	beqz	a5,c00021b4 <sbi_timer_exit+0x190>
    c00021b2:	9782                	jalr	a5
    c00021b4:	60e2                	ld	ra,24(sp)
    c00021b6:	6442                	ld	s0,16(sp)
    c00021b8:	64a2                	ld	s1,8(sp)
    c00021ba:	6105                	addi	sp,sp,32
    c00021bc:	8082                	ret

00000000c00021be <sbi_tlb_local_flush>:
    c00021be:	7139                	addi	sp,sp,-64
    c00021c0:	f822                	sd	s0,48(sp)
    c00021c2:	fc06                	sd	ra,56(sp)
    c00021c4:	f426                	sd	s1,40(sp)
    c00021c6:	f04a                	sd	s2,32(sp)
    c00021c8:	ec4e                	sd	s3,24(sp)
    c00021ca:	e852                	sd	s4,16(sp)
    c00021cc:	e456                	sd	s5,8(sp)
    c00021ce:	0080                	addi	s0,sp,64
    c00021d0:	6d0c                	ld	a1,24(a0)
    c00021d2:	4799                	li	a5,6
    c00021d4:	12b7ec63          	bltu	a5,a1,c000230c <sbi_tlb_local_flush+0x14e>
    c00021d8:	00007697          	auipc	a3,0x7
    c00021dc:	0b468693          	addi	a3,a3,180 # c000928c <sbi_emulate_csr_write+0x95c>
    c00021e0:	00259713          	slli	a4,a1,0x2
    c00021e4:	9736                	add	a4,a4,a3
    c00021e6:	431c                	lw	a5,0(a4)
    c00021e8:	97b6                	add	a5,a5,a3
    c00021ea:	8782                	jr	a5
    c00021ec:	00053983          	ld	s3,0(a0)
    c00021f0:	00853903          	ld	s2,8(a0)
    c00021f4:	0129e7b3          	or	a5,s3,s2
    c00021f8:	12078463          	beqz	a5,c0002320 <sbi_tlb_local_flush+0x162>
    c00021fc:	57fd                	li	a5,-1
    c00021fe:	01053a03          	ld	s4,16(a0)
    c0002202:	12f90863          	beq	s2,a5,c0002332 <sbi_tlb_local_flush+0x174>
    c0002206:	4481                	li	s1,0
    c0002208:	6a85                	lui	s5,0x1
    c000220a:	00090d63          	beqz	s2,c0002224 <sbi_tlb_local_flush+0x66>
    c000220e:	009985b3          	add	a1,s3,s1
    c0002212:	8552                	mv	a0,s4
    c0002214:	94d6                	add	s1,s1,s5
    c0002216:	2c2040ef          	jal	ra,c00064d8 <__sbi_hfence_vvma_asid_va>
    c000221a:	ff24eae3          	bltu	s1,s2,c000220e <sbi_tlb_local_flush+0x50>
    c000221e:	a019                	j	c0002224 <sbi_tlb_local_flush+0x66>
    c0002220:	0000100f          	fence.i
    c0002224:	70e2                	ld	ra,56(sp)
    c0002226:	7442                	ld	s0,48(sp)
    c0002228:	74a2                	ld	s1,40(sp)
    c000222a:	7902                	ld	s2,32(sp)
    c000222c:	69e2                	ld	s3,24(sp)
    c000222e:	6a42                	ld	s4,16(sp)
    c0002230:	6aa2                	ld	s5,8(sp)
    c0002232:	6121                	addi	sp,sp,64
    c0002234:	8082                	ret
    c0002236:	6114                	ld	a3,0(a0)
    c0002238:	6518                	ld	a4,8(a0)
    c000223a:	00e6e7b3          	or	a5,a3,a4
    c000223e:	cff1                	beqz	a5,c000231a <sbi_tlb_local_flush+0x15c>
    c0002240:	57fd                	li	a5,-1
    c0002242:	0cf70c63          	beq	a4,a5,c000231a <sbi_tlb_local_flush+0x15c>
    c0002246:	6605                	lui	a2,0x1
    c0002248:	df71                	beqz	a4,c0002224 <sbi_tlb_local_flush+0x66>
    c000224a:	00b687b3          	add	a5,a3,a1
    c000224e:	12078073          	sfence.vma	a5
    c0002252:	95b2                	add	a1,a1,a2
    c0002254:	fee5ebe3          	bltu	a1,a4,c000224a <sbi_tlb_local_flush+0x8c>
    c0002258:	b7f1                	j	c0002224 <sbi_tlb_local_flush+0x66>
    c000225a:	6110                	ld	a2,0(a0)
    c000225c:	6514                	ld	a3,8(a0)
    c000225e:	00d667b3          	or	a5,a2,a3
    c0002262:	cfc5                	beqz	a5,c000231a <sbi_tlb_local_flush+0x15c>
    c0002264:	57fd                	li	a5,-1
    c0002266:	690c                	ld	a1,16(a0)
    c0002268:	0cf68263          	beq	a3,a5,c000232c <sbi_tlb_local_flush+0x16e>
    c000226c:	4781                	li	a5,0
    c000226e:	6505                	lui	a0,0x1
    c0002270:	dad5                	beqz	a3,c0002224 <sbi_tlb_local_flush+0x66>
    c0002272:	00f60733          	add	a4,a2,a5
    c0002276:	12b70073          	sfence.vma	a4,a1
    c000227a:	97aa                	add	a5,a5,a0
    c000227c:	fed7ebe3          	bltu	a5,a3,c0002272 <sbi_tlb_local_flush+0xb4>
    c0002280:	b755                	j	c0002224 <sbi_tlb_local_flush+0x66>
    c0002282:	00053983          	ld	s3,0(a0) # 1000 <_fw_start-0xbffff000>
    c0002286:	00853903          	ld	s2,8(a0)
    c000228a:	0129e7b3          	or	a5,s3,s2
    c000228e:	cfc1                	beqz	a5,c0002326 <sbi_tlb_local_flush+0x168>
    c0002290:	57fd                	li	a5,-1
    c0002292:	01053a03          	ld	s4,16(a0)
    c0002296:	0af90263          	beq	s2,a5,c000233a <sbi_tlb_local_flush+0x17c>
    c000229a:	4481                	li	s1,0
    c000229c:	6a85                	lui	s5,0x1
    c000229e:	f80903e3          	beqz	s2,c0002224 <sbi_tlb_local_flush+0x66>
    c00022a2:	013485b3          	add	a1,s1,s3
    c00022a6:	8552                	mv	a0,s4
    c00022a8:	94d6                	add	s1,s1,s5
    c00022aa:	20e040ef          	jal	ra,c00064b8 <__sbi_hfence_gvma_vmid_gpa>
    c00022ae:	ff24eae3          	bltu	s1,s2,c00022a2 <sbi_tlb_local_flush+0xe4>
    c00022b2:	bf8d                	j	c0002224 <sbi_tlb_local_flush+0x66>
    c00022b4:	00053983          	ld	s3,0(a0)
    c00022b8:	00853903          	ld	s2,8(a0)
    c00022bc:	0129e7b3          	or	a5,s3,s2
    c00022c0:	c3a5                	beqz	a5,c0002320 <sbi_tlb_local_flush+0x162>
    c00022c2:	57fd                	li	a5,-1
    c00022c4:	04f90e63          	beq	s2,a5,c0002320 <sbi_tlb_local_flush+0x162>
    c00022c8:	4481                	li	s1,0
    c00022ca:	6a05                	lui	s4,0x1
    c00022cc:	f4090ce3          	beqz	s2,c0002224 <sbi_tlb_local_flush+0x66>
    c00022d0:	00998533          	add	a0,s3,s1
    c00022d4:	94d2                	add	s1,s1,s4
    c00022d6:	212040ef          	jal	ra,c00064e8 <__sbi_hfence_vvma_va>
    c00022da:	ff24ebe3          	bltu	s1,s2,c00022d0 <sbi_tlb_local_flush+0x112>
    c00022de:	b799                	j	c0002224 <sbi_tlb_local_flush+0x66>
    c00022e0:	00053983          	ld	s3,0(a0)
    c00022e4:	00853903          	ld	s2,8(a0)
    c00022e8:	0129e7b3          	or	a5,s3,s2
    c00022ec:	cf8d                	beqz	a5,c0002326 <sbi_tlb_local_flush+0x168>
    c00022ee:	57fd                	li	a5,-1
    c00022f0:	02f90b63          	beq	s2,a5,c0002326 <sbi_tlb_local_flush+0x168>
    c00022f4:	4481                	li	s1,0
    c00022f6:	6a05                	lui	s4,0x1
    c00022f8:	f20906e3          	beqz	s2,c0002224 <sbi_tlb_local_flush+0x66>
    c00022fc:	00998533          	add	a0,s3,s1
    c0002300:	94d2                	add	s1,s1,s4
    c0002302:	1c6040ef          	jal	ra,c00064c8 <__sbi_hfence_gvma_gpa>
    c0002306:	ff24ebe3          	bltu	s1,s2,c00022fc <sbi_tlb_local_flush+0x13e>
    c000230a:	bf29                	j	c0002224 <sbi_tlb_local_flush+0x66>
    c000230c:	00007517          	auipc	a0,0x7
    c0002310:	f9c50513          	addi	a0,a0,-100 # c00092a8 <sbi_emulate_csr_write+0x978>
    c0002314:	63b020ef          	jal	ra,c000514e <sbi_printf>
    c0002318:	b731                	j	c0002224 <sbi_tlb_local_flush+0x66>
    c000231a:	12000073          	sfence.vma
    c000231e:	b719                	j	c0002224 <sbi_tlb_local_flush+0x66>
    c0002320:	1d0040ef          	jal	ra,c00064f0 <__sbi_hfence_vvma_all>
    c0002324:	b701                	j	c0002224 <sbi_tlb_local_flush+0x66>
    c0002326:	1aa040ef          	jal	ra,c00064d0 <__sbi_hfence_gvma_all>
    c000232a:	bded                	j	c0002224 <sbi_tlb_local_flush+0x66>
    c000232c:	12b00073          	sfence.vma	zero,a1
    c0002330:	bdd5                	j	c0002224 <sbi_tlb_local_flush+0x66>
    c0002332:	8552                	mv	a0,s4
    c0002334:	1ac040ef          	jal	ra,c00064e0 <__sbi_hfence_vvma_asid>
    c0002338:	b5f5                	j	c0002224 <sbi_tlb_local_flush+0x66>
    c000233a:	8552                	mv	a0,s4
    c000233c:	184040ef          	jal	ra,c00064c0 <__sbi_hfence_gvma_vmid>
    c0002340:	b5d5                	j	c0002224 <sbi_tlb_local_flush+0x66>

00000000c0002342 <sbi_tlb_entry_process>:
    c0002342:	7139                	addi	sp,sp,-64
    c0002344:	f822                	sd	s0,48(sp)
    c0002346:	f426                	sd	s1,40(sp)
    c0002348:	e852                	sd	s4,16(sp)
    c000234a:	fc06                	sd	ra,56(sp)
    c000234c:	f04a                	sd	s2,32(sp)
    c000234e:	ec4e                	sd	s3,24(sp)
    c0002350:	e456                	sd	s5,8(sp)
    c0002352:	0080                	addi	s0,sp,64
    c0002354:	84ae                	mv	s1,a1
    c0002356:	8a2a                	mv	s4,a0
    c0002358:	852e                	mv	a0,a1
    c000235a:	e65ff0ef          	jal	ra,c00021be <sbi_tlb_local_flush>
    c000235e:	7084                	ld	s1,32(s1)
    c0002360:	cc85                	beqz	s1,c0002398 <sbi_tlb_entry_process+0x56>
    c0002362:	4981                	li	s3,0
    c0002364:	00009a97          	auipc	s5,0x9
    c0002368:	cc4a8a93          	addi	s5,s5,-828 # c000b028 <tlb_sync_off>
    c000236c:	a021                	j	c0002374 <sbi_tlb_entry_process+0x32>
    c000236e:	8085                	srli	s1,s1,0x1
    c0002370:	2985                	addiw	s3,s3,1
    c0002372:	c09d                	beqz	s1,c0002398 <sbi_tlb_entry_process+0x56>
    c0002374:	0014f793          	andi	a5,s1,1
    c0002378:	dbfd                	beqz	a5,c000236e <sbi_tlb_entry_process+0x2c>
    c000237a:	85ce                	mv	a1,s3
    c000237c:	8552                	mv	a0,s4
    c000237e:	185040ef          	jal	ra,c0006d02 <sbi_hart_id_to_scratch>
    c0002382:	000ab903          	ld	s2,0(s5)
    c0002386:	992a                	add	s2,s2,a0
    c0002388:	4585                	li	a1,1
    c000238a:	854a                	mv	a0,s2
    c000238c:	23a020ef          	jal	ra,c00045c6 <atomic_raw_xchg_ulong>
    c0002390:	fd65                	bnez	a0,c0002388 <sbi_tlb_entry_process+0x46>
    c0002392:	8085                	srli	s1,s1,0x1
    c0002394:	2985                	addiw	s3,s3,1
    c0002396:	fcf9                	bnez	s1,c0002374 <sbi_tlb_entry_process+0x32>
    c0002398:	70e2                	ld	ra,56(sp)
    c000239a:	7442                	ld	s0,48(sp)
    c000239c:	74a2                	ld	s1,40(sp)
    c000239e:	7902                	ld	s2,32(sp)
    c00023a0:	69e2                	ld	s3,24(sp)
    c00023a2:	6a42                	ld	s4,16(sp)
    c00023a4:	6aa2                	ld	s5,8(sp)
    c00023a6:	6121                	addi	sp,sp,64
    c00023a8:	8082                	ret

00000000c00023aa <sbi_tlb_fifo_process_count.constprop.4>:
    c00023aa:	715d                	addi	sp,sp,-80
    c00023ac:	e0a2                	sd	s0,64(sp)
    c00023ae:	f84a                	sd	s2,48(sp)
    c00023b0:	e486                	sd	ra,72(sp)
    c00023b2:	fc26                	sd	s1,56(sp)
    c00023b4:	0880                	addi	s0,sp,80
    c00023b6:	00009797          	auipc	a5,0x9
    c00023ba:	c7278793          	addi	a5,a5,-910 # c000b028 <tlb_sync_off>
    c00023be:	6784                	ld	s1,8(a5)
    c00023c0:	892a                	mv	s2,a0
    c00023c2:	fb840593          	addi	a1,s0,-72
    c00023c6:	94aa                	add	s1,s1,a0
    c00023c8:	8526                	mv	a0,s1
    c00023ca:	060040ef          	jal	ra,c000642a <sbi_fifo_dequeue>
    c00023ce:	e10d                	bnez	a0,c00023f0 <sbi_tlb_fifo_process_count.constprop.4+0x46>
    c00023d0:	fb840593          	addi	a1,s0,-72
    c00023d4:	854a                	mv	a0,s2
    c00023d6:	f6dff0ef          	jal	ra,c0002342 <sbi_tlb_entry_process>
    c00023da:	fb840593          	addi	a1,s0,-72
    c00023de:	8526                	mv	a0,s1
    c00023e0:	04a040ef          	jal	ra,c000642a <sbi_fifo_dequeue>
    c00023e4:	e511                	bnez	a0,c00023f0 <sbi_tlb_fifo_process_count.constprop.4+0x46>
    c00023e6:	fb840593          	addi	a1,s0,-72
    c00023ea:	854a                	mv	a0,s2
    c00023ec:	f57ff0ef          	jal	ra,c0002342 <sbi_tlb_entry_process>
    c00023f0:	60a6                	ld	ra,72(sp)
    c00023f2:	6406                	ld	s0,64(sp)
    c00023f4:	74e2                	ld	s1,56(sp)
    c00023f6:	7942                	ld	s2,48(sp)
    c00023f8:	6161                	addi	sp,sp,80
    c00023fa:	8082                	ret

00000000c00023fc <sbi_tlb_fifo_update_cb>:
    c00023fc:	1141                	addi	sp,sp,-16
    c00023fe:	e422                	sd	s0,8(sp)
    c0002400:	0800                	addi	s0,sp,16
    c0002402:	cd05                	beqz	a0,c000243a <sbi_tlb_fifo_update_cb+0x3e>
    c0002404:	c99d                	beqz	a1,c000243a <sbi_tlb_fifo_update_cb+0x3e>
    c0002406:	6d18                	ld	a4,24(a0)
    c0002408:	4685                	li	a3,1
    c000240a:	87aa                	mv	a5,a0
    c000240c:	02d70b63          	beq	a4,a3,c0002442 <sbi_tlb_fifo_update_cb+0x46>
    c0002410:	e70d                	bnez	a4,c000243a <sbi_tlb_fifo_update_cb+0x3e>
    c0002412:	6d98                	ld	a4,24(a1)
    c0002414:	4509                	li	a0,2
    c0002416:	e31d                	bnez	a4,c000243c <sbi_tlb_fifo_update_cb+0x40>
    c0002418:	6390                	ld	a2,0(a5)
    c000241a:	6794                	ld	a3,8(a5)
    c000241c:	0005b803          	ld	a6,0(a1)
    c0002420:	6598                	ld	a4,8(a1)
    c0002422:	96b2                	add	a3,a3,a2
    c0002424:	9742                	add	a4,a4,a6
    c0002426:	02c87763          	bgeu	a6,a2,c0002454 <sbi_tlb_fifo_update_cb+0x58>
    c000242a:	00d76963          	bltu	a4,a3,c000243c <sbi_tlb_fifo_update_cb+0x40>
    c000242e:	7198                	ld	a4,32(a1)
    c0002430:	739c                	ld	a5,32(a5)
    c0002432:	4501                	li	a0,0
    c0002434:	8f5d                	or	a4,a4,a5
    c0002436:	f198                	sd	a4,32(a1)
    c0002438:	a011                	j	c000243c <sbi_tlb_fifo_update_cb+0x40>
    c000243a:	4509                	li	a0,2
    c000243c:	6422                	ld	s0,8(sp)
    c000243e:	0141                	addi	sp,sp,16
    c0002440:	8082                	ret
    c0002442:	6d94                	ld	a3,24(a1)
    c0002444:	4509                	li	a0,2
    c0002446:	fee69be3          	bne	a3,a4,c000243c <sbi_tlb_fifo_update_cb+0x40>
    c000244a:	6b94                	ld	a3,16(a5)
    c000244c:	6998                	ld	a4,16(a1)
    c000244e:	fee697e3          	bne	a3,a4,c000243c <sbi_tlb_fifo_update_cb+0x40>
    c0002452:	b7d9                	j	c0002418 <sbi_tlb_fifo_update_cb+0x1c>
    c0002454:	00d77b63          	bgeu	a4,a3,c000246a <sbi_tlb_fifo_update_cb+0x6e>
    c0002458:	e190                	sd	a2,0(a1)
    c000245a:	6794                	ld	a3,8(a5)
    c000245c:	7198                	ld	a4,32(a1)
    c000245e:	4505                	li	a0,1
    c0002460:	e594                	sd	a3,8(a1)
    c0002462:	739c                	ld	a5,32(a5)
    c0002464:	8f5d                	or	a4,a4,a5
    c0002466:	f198                	sd	a4,32(a1)
    c0002468:	bfd1                	j	c000243c <sbi_tlb_fifo_update_cb+0x40>
    c000246a:	fd0619e3          	bne	a2,a6,c000243c <sbi_tlb_fifo_update_cb+0x40>
    c000246e:	b7c1                	j	c000242e <sbi_tlb_fifo_update_cb+0x32>

00000000c0002470 <sbi_tlb_fifo_process>:
    c0002470:	715d                	addi	sp,sp,-80
    c0002472:	e0a2                	sd	s0,64(sp)
    c0002474:	f84a                	sd	s2,48(sp)
    c0002476:	e486                	sd	ra,72(sp)
    c0002478:	fc26                	sd	s1,56(sp)
    c000247a:	0880                	addi	s0,sp,80
    c000247c:	00009797          	auipc	a5,0x9
    c0002480:	bac78793          	addi	a5,a5,-1108 # c000b028 <tlb_sync_off>
    c0002484:	6784                	ld	s1,8(a5)
    c0002486:	892a                	mv	s2,a0
    c0002488:	94aa                	add	s1,s1,a0
    c000248a:	a021                	j	c0002492 <sbi_tlb_fifo_process+0x22>
    c000248c:	854a                	mv	a0,s2
    c000248e:	eb5ff0ef          	jal	ra,c0002342 <sbi_tlb_entry_process>
    c0002492:	fb840593          	addi	a1,s0,-72
    c0002496:	8526                	mv	a0,s1
    c0002498:	793030ef          	jal	ra,c000642a <sbi_fifo_dequeue>
    c000249c:	fb840593          	addi	a1,s0,-72
    c00024a0:	d575                	beqz	a0,c000248c <sbi_tlb_fifo_process+0x1c>
    c00024a2:	60a6                	ld	ra,72(sp)
    c00024a4:	6406                	ld	s0,64(sp)
    c00024a6:	74e2                	ld	s1,56(sp)
    c00024a8:	7942                	ld	s2,48(sp)
    c00024aa:	6161                	addi	sp,sp,80
    c00024ac:	8082                	ret

00000000c00024ae <sbi_tlb_fifo_sync>:
    c00024ae:	1101                	addi	sp,sp,-32
    c00024b0:	e822                	sd	s0,16(sp)
    c00024b2:	e04a                	sd	s2,0(sp)
    c00024b4:	ec06                	sd	ra,24(sp)
    c00024b6:	e426                	sd	s1,8(sp)
    c00024b8:	1000                	addi	s0,sp,32
    c00024ba:	00009797          	auipc	a5,0x9
    c00024be:	b6e78793          	addi	a5,a5,-1170 # c000b028 <tlb_sync_off>
    c00024c2:	6384                	ld	s1,0(a5)
    c00024c4:	892a                	mv	s2,a0
    c00024c6:	94aa                	add	s1,s1,a0
    c00024c8:	a021                	j	c00024d0 <sbi_tlb_fifo_sync+0x22>
    c00024ca:	854a                	mv	a0,s2
    c00024cc:	edfff0ef          	jal	ra,c00023aa <sbi_tlb_fifo_process_count.constprop.4>
    c00024d0:	4581                	li	a1,0
    c00024d2:	8526                	mv	a0,s1
    c00024d4:	0f2020ef          	jal	ra,c00045c6 <atomic_raw_xchg_ulong>
    c00024d8:	d96d                	beqz	a0,c00024ca <sbi_tlb_fifo_sync+0x1c>
    c00024da:	60e2                	ld	ra,24(sp)
    c00024dc:	6442                	ld	s0,16(sp)
    c00024de:	64a2                	ld	s1,8(sp)
    c00024e0:	6902                	ld	s2,0(sp)
    c00024e2:	6105                	addi	sp,sp,32
    c00024e4:	8082                	ret

00000000c00024e6 <sbi_tlb_fifo_update>:
    c00024e6:	715d                	addi	sp,sp,-80
    c00024e8:	e0a2                	sd	s0,64(sp)
    c00024ea:	fc26                	sd	s1,56(sp)
    c00024ec:	f84a                	sd	s2,48(sp)
    c00024ee:	f44e                	sd	s3,40(sp)
    c00024f0:	f052                	sd	s4,32(sp)
    c00024f2:	ec56                	sd	s5,24(sp)
    c00024f4:	e486                	sd	ra,72(sp)
    c00024f6:	e85a                	sd	s6,16(sp)
    c00024f8:	e45e                	sd	s7,8(sp)
    c00024fa:	0880                	addi	s0,sp,80
    c00024fc:	84b2                	mv	s1,a2
    c00024fe:	00009917          	auipc	s2,0x9
    c0002502:	b2a90913          	addi	s2,s2,-1238 # c000b028 <tlb_sync_off>
    c0002506:	8a2a                	mv	s4,a0
    c0002508:	8aae                	mv	s5,a1
    c000250a:	7ed030ef          	jal	ra,c00064f6 <sbi_current_hartid>
    c000250e:	6498                	ld	a4,8(s1)
    c0002510:	01093783          	ld	a5,16(s2)
    c0002514:	0005099b          	sext.w	s3,a0
    c0002518:	00e7f663          	bgeu	a5,a4,c0002524 <sbi_tlb_fifo_update+0x3e>
    c000251c:	57fd                	li	a5,-1
    c000251e:	0004b023          	sd	zero,0(s1)
    c0002522:	e49c                	sd	a5,8(s1)
    c0002524:	07598763          	beq	s3,s5,c0002592 <sbi_tlb_fifo_update+0xac>
    c0002528:	85ce                	mv	a1,s3
    c000252a:	8552                	mv	a0,s4
    c000252c:	7d6040ef          	jal	ra,c0006d02 <sbi_hart_id_to_scratch>
    c0002530:	00893903          	ld	s2,8(s2)
    c0002534:	8b2a                	mv	s6,a0
    c0002536:	00000617          	auipc	a2,0x0
    c000253a:	ec660613          	addi	a2,a2,-314 # c00023fc <sbi_tlb_fifo_update_cb>
    c000253e:	9952                	add	s2,s2,s4
    c0002540:	85a6                	mv	a1,s1
    c0002542:	854a                	mv	a0,s2
    c0002544:	5cd030ef          	jal	ra,c0006310 <sbi_fifo_inplace_update>
    c0002548:	4709                	li	a4,2
    c000254a:	4785                	li	a5,1
    c000254c:	00007b97          	auipc	s7,0x7
    c0002550:	d84b8b93          	addi	s7,s7,-636 # c00092d0 <sbi_emulate_csr_write+0x9a0>
    c0002554:	02e50763          	beq	a0,a4,c0002582 <sbi_tlb_fifo_update+0x9c>
    c0002558:	60a6                	ld	ra,72(sp)
    c000255a:	6406                	ld	s0,64(sp)
    c000255c:	74e2                	ld	s1,56(sp)
    c000255e:	7942                	ld	s2,48(sp)
    c0002560:	79a2                	ld	s3,40(sp)
    c0002562:	7a02                	ld	s4,32(sp)
    c0002564:	6ae2                	ld	s5,24(sp)
    c0002566:	6b42                	ld	s6,16(sp)
    c0002568:	6ba2                	ld	s7,8(sp)
    c000256a:	853e                	mv	a0,a5
    c000256c:	6161                	addi	sp,sp,80
    c000256e:	8082                	ret
    c0002570:	855a                	mv	a0,s6
    c0002572:	e39ff0ef          	jal	ra,c00023aa <sbi_tlb_fifo_process_count.constprop.4>
    c0002576:	86d6                	mv	a3,s5
    c0002578:	864e                	mv	a2,s3
    c000257a:	85de                	mv	a1,s7
    c000257c:	8552                	mv	a0,s4
    c000257e:	429020ef          	jal	ra,c00051a6 <sbi_dprintf>
    c0002582:	85a6                	mv	a1,s1
    c0002584:	854a                	mv	a0,s2
    c0002586:	627030ef          	jal	ra,c00063ac <sbi_fifo_enqueue>
    c000258a:	fe0543e3          	bltz	a0,c0002570 <sbi_tlb_fifo_update+0x8a>
    c000258e:	4781                	li	a5,0
    c0002590:	b7e1                	j	c0002558 <sbi_tlb_fifo_update+0x72>
    c0002592:	8526                	mv	a0,s1
    c0002594:	c2bff0ef          	jal	ra,c00021be <sbi_tlb_local_flush>
    c0002598:	57fd                	li	a5,-1
    c000259a:	bf7d                	j	c0002558 <sbi_tlb_fifo_update+0x72>

00000000c000259c <sbi_tlb_fifo_init>:
    c000259c:	7179                	addi	sp,sp,-48
    c000259e:	f022                	sd	s0,32(sp)
    c00025a0:	ec26                	sd	s1,24(sp)
    c00025a2:	f406                	sd	ra,40(sp)
    c00025a4:	e84a                	sd	s2,16(sp)
    c00025a6:	e44e                	sd	s3,8(sp)
    c00025a8:	1800                	addi	s0,sp,48
    c00025aa:	84aa                	mv	s1,a0
    c00025ac:	e1b9                	bnez	a1,c00025f2 <sbi_tlb_fifo_init+0x56>
    c00025ae:	00009717          	auipc	a4,0x9
    c00025b2:	a7a70713          	addi	a4,a4,-1414 # c000b028 <tlb_sync_off>
    c00025b6:	631c                	ld	a5,0(a4)
    c00025b8:	12078663          	beqz	a5,c00026e4 <sbi_tlb_fifo_init+0x148>
    c00025bc:	00873803          	ld	a6,8(a4)
    c00025c0:	12080263          	beqz	a6,c00026e4 <sbi_tlb_fifo_init+0x148>
    c00025c4:	6f08                	ld	a0,24(a4)
    c00025c6:	10050f63          	beqz	a0,c00026e4 <sbi_tlb_fifo_init+0x148>
    c00025ca:	97a6                	add	a5,a5,s1
    c00025cc:	00a485b3          	add	a1,s1,a0
    c00025d0:	0007b023          	sd	zero,0(a5)
    c00025d4:	01048533          	add	a0,s1,a6
    c00025d8:	02800693          	li	a3,40
    c00025dc:	4621                	li	a2,8
    c00025de:	411030ef          	jal	ra,c00061ee <sbi_fifo_init>
    c00025e2:	4501                	li	a0,0
    c00025e4:	70a2                	ld	ra,40(sp)
    c00025e6:	7402                	ld	s0,32(sp)
    c00025e8:	64e2                	ld	s1,24(sp)
    c00025ea:	6942                	ld	s2,16(sp)
    c00025ec:	69a2                	ld	s3,8(sp)
    c00025ee:	6145                	addi	sp,sp,48
    c00025f0:	8082                	ret
    c00025f2:	03154783          	lbu	a5,49(a0)
    c00025f6:	03054703          	lbu	a4,48(a0)
    c00025fa:	03254903          	lbu	s2,50(a0)
    c00025fe:	03354603          	lbu	a2,51(a0)
    c0002602:	03454683          	lbu	a3,52(a0)
    c0002606:	07a2                	slli	a5,a5,0x8
    c0002608:	8fd9                	or	a5,a5,a4
    c000260a:	0942                	slli	s2,s2,0x10
    c000260c:	03554703          	lbu	a4,53(a0)
    c0002610:	00f96933          	or	s2,s2,a5
    c0002614:	0662                	slli	a2,a2,0x18
    c0002616:	03654783          	lbu	a5,54(a0)
    c000261a:	01266633          	or	a2,a2,s2
    c000261e:	1682                	slli	a3,a3,0x20
    c0002620:	03754903          	lbu	s2,55(a0)
    c0002624:	8ed1                	or	a3,a3,a2
    c0002626:	1722                	slli	a4,a4,0x28
    c0002628:	8f55                	or	a4,a4,a3
    c000262a:	17c2                	slli	a5,a5,0x30
    c000262c:	8fd9                	or	a5,a5,a4
    c000262e:	1962                	slli	s2,s2,0x38
    c0002630:	00007597          	auipc	a1,0x7
    c0002634:	cc058593          	addi	a1,a1,-832 # c00092f0 <sbi_emulate_csr_write+0x9c0>
    c0002638:	4521                	li	a0,8
    c000263a:	00f96933          	or	s2,s2,a5
    c000263e:	ef5fe0ef          	jal	ra,c0001532 <sbi_scratch_alloc_offset>
    c0002642:	00009797          	auipc	a5,0x9
    c0002646:	9ea7b323          	sd	a0,-1562(a5) # c000b028 <tlb_sync_off>
    c000264a:	00009997          	auipc	s3,0x9
    c000264e:	9de98993          	addi	s3,s3,-1570 # c000b028 <tlb_sync_off>
    c0002652:	c949                	beqz	a0,c00026e4 <sbi_tlb_fifo_init+0x148>
    c0002654:	00007597          	auipc	a1,0x7
    c0002658:	cac58593          	addi	a1,a1,-852 # c0009300 <sbi_emulate_csr_write+0x9d0>
    c000265c:	4561                	li	a0,24
    c000265e:	ed5fe0ef          	jal	ra,c0001532 <sbi_scratch_alloc_offset>
    c0002662:	00009797          	auipc	a5,0x9
    c0002666:	9ca7b723          	sd	a0,-1586(a5) # c000b030 <tlb_fifo_off>
    c000266a:	c92d                	beqz	a0,c00026dc <sbi_tlb_fifo_init+0x140>
    c000266c:	00007597          	auipc	a1,0x7
    c0002670:	ca458593          	addi	a1,a1,-860 # c0009310 <sbi_emulate_csr_write+0x9e0>
    c0002674:	14000513          	li	a0,320
    c0002678:	ebbfe0ef          	jal	ra,c0001532 <sbi_scratch_alloc_offset>
    c000267c:	00009797          	auipc	a5,0x9
    c0002680:	9ca7b223          	sd	a0,-1596(a5) # c000b040 <tlb_fifo_mem_off>
    c0002684:	c135                	beqz	a0,c00026e8 <sbi_tlb_fifo_init+0x14c>
    c0002686:	04090163          	beqz	s2,c00026c8 <sbi_tlb_fifo_init+0x12c>
    c000268a:	06194703          	lbu	a4,97(s2)
    c000268e:	06094683          	lbu	a3,96(s2)
    c0002692:	06294783          	lbu	a5,98(s2)
    c0002696:	06394583          	lbu	a1,99(s2)
    c000269a:	0722                	slli	a4,a4,0x8
    c000269c:	06494603          	lbu	a2,100(s2)
    c00026a0:	8f55                	or	a4,a4,a3
    c00026a2:	07c2                	slli	a5,a5,0x10
    c00026a4:	06594683          	lbu	a3,101(s2)
    c00026a8:	8fd9                	or	a5,a5,a4
    c00026aa:	05e2                	slli	a1,a1,0x18
    c00026ac:	06694703          	lbu	a4,102(s2)
    c00026b0:	8ddd                	or	a1,a1,a5
    c00026b2:	1602                	slli	a2,a2,0x20
    c00026b4:	06794783          	lbu	a5,103(s2)
    c00026b8:	8e4d                	or	a2,a2,a1
    c00026ba:	16a2                	slli	a3,a3,0x28
    c00026bc:	8ed1                	or	a3,a3,a2
    c00026be:	1742                	slli	a4,a4,0x30
    c00026c0:	8f55                	or	a4,a4,a3
    c00026c2:	17e2                	slli	a5,a5,0x38
    c00026c4:	8fd9                	or	a5,a5,a4
    c00026c6:	e391                	bnez	a5,c00026ca <sbi_tlb_fifo_init+0x12e>
    c00026c8:	6785                	lui	a5,0x1
    c00026ca:	00009717          	auipc	a4,0x9
    c00026ce:	96f73723          	sd	a5,-1682(a4) # c000b038 <tlb_range_flush_limit>
    c00026d2:	0089b803          	ld	a6,8(s3)
    c00026d6:	0009b783          	ld	a5,0(s3)
    c00026da:	bdc5                	j	c00025ca <sbi_tlb_fifo_init+0x2e>
    c00026dc:	0009b503          	ld	a0,0(s3)
    c00026e0:	f77fe0ef          	jal	ra,c0001656 <sbi_scratch_free_offset>
    c00026e4:	5551                	li	a0,-12
    c00026e6:	bdfd                	j	c00025e4 <sbi_tlb_fifo_init+0x48>
    c00026e8:	0089b503          	ld	a0,8(s3)
    c00026ec:	f6bfe0ef          	jal	ra,c0001656 <sbi_scratch_free_offset>
    c00026f0:	0009b503          	ld	a0,0(s3)
    c00026f4:	f63fe0ef          	jal	ra,c0001656 <sbi_scratch_free_offset>
    c00026f8:	5551                	li	a0,-12
    c00026fa:	b5ed                	j	c00025e4 <sbi_tlb_fifo_init+0x48>

00000000c00026fc <sbi_trap_redirect>:
    c00026fc:	7179                	addi	sp,sp,-48
    c00026fe:	f022                	sd	s0,32(sp)
    c0002700:	e44e                	sd	s3,8(sp)
    c0002702:	f406                	sd	ra,40(sp)
    c0002704:	ec26                	sd	s1,24(sp)
    c0002706:	e84a                	sd	s2,16(sp)
    c0002708:	e052                	sd	s4,0(sp)
    c000270a:	1800                	addi	s0,sp,48
    c000270c:	10954703          	lbu	a4,265(a0)
    c0002710:	10854683          	lbu	a3,264(a0)
    c0002714:	10a54783          	lbu	a5,266(a0)
    c0002718:	10b54803          	lbu	a6,267(a0)
    c000271c:	0722                	slli	a4,a4,0x8
    c000271e:	10c54603          	lbu	a2,268(a0)
    c0002722:	8f55                	or	a4,a4,a3
    c0002724:	07c2                	slli	a5,a5,0x10
    c0002726:	10d54683          	lbu	a3,269(a0)
    c000272a:	8fd9                	or	a5,a5,a4
    c000272c:	0862                	slli	a6,a6,0x18
    c000272e:	10e54703          	lbu	a4,270(a0)
    c0002732:	00f86833          	or	a6,a6,a5
    c0002736:	1602                	slli	a2,a2,0x20
    c0002738:	10f54783          	lbu	a5,271(a0)
    c000273c:	01066633          	or	a2,a2,a6
    c0002740:	16a2                	slli	a3,a3,0x28
    c0002742:	8ed1                	or	a3,a3,a2
    c0002744:	1742                	slli	a4,a4,0x30
    c0002746:	8f55                	or	a4,a4,a3
    c0002748:	17e2                	slli	a5,a5,0x38
    c000274a:	8fd9                	or	a5,a5,a4
    c000274c:	00b7d993          	srli	s3,a5,0xb
    c0002750:	0029f713          	andi	a4,s3,2
    c0002754:	4c071463          	bnez	a4,c0002c1c <sbi_trap_redirect+0x520>
    c0002758:	939d                	srli	a5,a5,0x27
    c000275a:	84aa                	mv	s1,a0
    c000275c:	04800513          	li	a0,72
    c0002760:	0017f913          	andi	s2,a5,1
    c0002764:	8a2e                	mv	s4,a1
    c0002766:	081010ef          	jal	ra,c0003fe6 <misa_extension_imp>
    c000276a:	0039f993          	andi	s3,s3,3
    c000276e:	1094c703          	lbu	a4,265(s1)
    c0002772:	1c051963          	bnez	a0,c0002944 <sbi_trap_redirect+0x248>
    c0002776:	1084c683          	lbu	a3,264(s1)
    c000277a:	10a4c503          	lbu	a0,266(s1)
    c000277e:	10b4c583          	lbu	a1,267(s1)
    c0002782:	10c4c603          	lbu	a2,268(s1)
    c0002786:	0722                	slli	a4,a4,0x8
    c0002788:	8f55                	or	a4,a4,a3
    c000278a:	10d4c783          	lbu	a5,269(s1)
    c000278e:	0542                	slli	a0,a0,0x10
    c0002790:	8d59                	or	a0,a0,a4
    c0002792:	10e4c683          	lbu	a3,270(s1)
    c0002796:	05e2                	slli	a1,a1,0x18
    c0002798:	8dc9                	or	a1,a1,a0
    c000279a:	1602                	slli	a2,a2,0x20
    c000279c:	8e4d                	or	a2,a2,a1
    c000279e:	10f4c703          	lbu	a4,271(s1)
    c00027a2:	17a2                	slli	a5,a5,0x28
    c00027a4:	8fd1                	or	a5,a5,a2
    c00027a6:	16c2                	slli	a3,a3,0x30
    c00027a8:	8edd                	or	a3,a3,a5
    c00027aa:	57fd                	li	a5,-1
    c00027ac:	1762                	slli	a4,a4,0x38
    c00027ae:	179e                	slli	a5,a5,0x27
    c00027b0:	8f55                	or	a4,a4,a3
    c00027b2:	17fd                	addi	a5,a5,-1
    c00027b4:	8ff9                	and	a5,a5,a4
    c00027b6:	0187d51b          	srliw	a0,a5,0x18
    c00027ba:	0087d893          	srli	a7,a5,0x8
    c00027be:	0107d813          	srli	a6,a5,0x10
    c00027c2:	0207d593          	srli	a1,a5,0x20
    c00027c6:	0287d613          	srli	a2,a5,0x28
    c00027ca:	0307d693          	srli	a3,a5,0x30
    c00027ce:	93e1                	srli	a5,a5,0x38
    c00027d0:	10a485a3          	sb	a0,267(s1)
    c00027d4:	10e48423          	sb	a4,264(s1)
    c00027d8:	111484a3          	sb	a7,265(s1)
    c00027dc:	11048523          	sb	a6,266(s1)
    c00027e0:	10b48623          	sb	a1,268(s1)
    c00027e4:	10c486a3          	sb	a2,269(s1)
    c00027e8:	10d48723          	sb	a3,270(s1)
    c00027ec:	10f487a3          	sb	a5,271(s1)
    c00027f0:	04800513          	li	a0,72
    c00027f4:	7f2010ef          	jal	ra,c0003fe6 <misa_extension_imp>
    c00027f8:	40051f63          	bnez	a0,c0002c16 <sbi_trap_redirect+0x51a>
    c00027fc:	010a3783          	ld	a5,16(s4) # 1010 <_fw_start-0xbfffeff0>
    c0002800:	14379073          	csrw	stval,a5
    c0002804:	000a3783          	ld	a5,0(s4)
    c0002808:	14179073          	csrw	sepc,a5
    c000280c:	008a3783          	ld	a5,8(s4)
    c0002810:	14279073          	csrw	scause,a5
    c0002814:	10502573          	csrr	a0,stvec
    c0002818:	1094c703          	lbu	a4,265(s1)
    c000281c:	1084c683          	lbu	a3,264(s1)
    c0002820:	10a4c783          	lbu	a5,266(s1)
    c0002824:	10b4c583          	lbu	a1,267(s1)
    c0002828:	0722                	slli	a4,a4,0x8
    c000282a:	10c4c603          	lbu	a2,268(s1)
    c000282e:	8f55                	or	a4,a4,a3
    c0002830:	07c2                	slli	a5,a5,0x10
    c0002832:	10d4c683          	lbu	a3,269(s1)
    c0002836:	8fd9                	or	a5,a5,a4
    c0002838:	05e2                	slli	a1,a1,0x18
    c000283a:	10e4c703          	lbu	a4,270(s1)
    c000283e:	8ddd                	or	a1,a1,a5
    c0002840:	1602                	slli	a2,a2,0x20
    c0002842:	10f4c783          	lbu	a5,271(s1)
    c0002846:	8e4d                	or	a2,a2,a1
    c0002848:	16a2                	slli	a3,a3,0x28
    c000284a:	8ed1                	or	a3,a3,a2
    c000284c:	1742                	slli	a4,a4,0x30
    c000284e:	8f55                	or	a4,a4,a3
    c0002850:	17e2                	slli	a5,a5,0x38
    c0002852:	8fd9                	or	a5,a5,a4
    c0002854:	00855e93          	srli	t4,a0,0x8
    c0002858:	01055e13          	srli	t3,a0,0x10
    c000285c:	0185531b          	srliw	t1,a0,0x18
    c0002860:	02055893          	srli	a7,a0,0x20
    c0002864:	02855813          	srli	a6,a0,0x28
    c0002868:	03055593          	srli	a1,a0,0x30
    c000286c:	03855613          	srli	a2,a0,0x38
    c0002870:	7779                	lui	a4,0xffffe
    c0002872:	6ff70713          	addi	a4,a4,1791 # ffffffffffffe6ff <_fw_end+0xffffffff3fff26ff>
    c0002876:	10a48023          	sb	a0,256(s1)
    c000287a:	11d480a3          	sb	t4,257(s1)
    c000287e:	11c48123          	sb	t3,258(s1)
    c0002882:	106481a3          	sb	t1,259(s1)
    c0002886:	11148223          	sb	a7,260(s1)
    c000288a:	110482a3          	sb	a6,261(s1)
    c000288e:	10b48323          	sb	a1,262(s1)
    c0002892:	10c483a3          	sb	a2,263(s1)
    c0002896:	4685                	li	a3,1
    c0002898:	8ff9                	and	a5,a5,a4
    c000289a:	6705                	lui	a4,0x1
    c000289c:	36d98a63          	beq	s3,a3,c0002c10 <sbi_trap_redirect+0x514>
    c00028a0:	80070713          	addi	a4,a4,-2048 # 800 <_fw_start-0xbffff800>
    c00028a4:	8fd9                	or	a5,a5,a4
    c00028a6:	0387d713          	srli	a4,a5,0x38
    c00028aa:	0087d893          	srli	a7,a5,0x8
    c00028ae:	0107d813          	srli	a6,a5,0x10
    c00028b2:	0187d51b          	srliw	a0,a5,0x18
    c00028b6:	0207d593          	srli	a1,a5,0x20
    c00028ba:	0287d613          	srli	a2,a5,0x28
    c00028be:	0307d693          	srli	a3,a5,0x30
    c00028c2:	10f48423          	sb	a5,264(s1)
    c00028c6:	10e487a3          	sb	a4,271(s1)
    c00028ca:	111484a3          	sb	a7,265(s1)
    c00028ce:	0027f713          	andi	a4,a5,2
    c00028d2:	11048523          	sb	a6,266(s1)
    c00028d6:	10a485a3          	sb	a0,267(s1)
    c00028da:	10b48623          	sb	a1,268(s1)
    c00028de:	10c486a3          	sb	a2,269(s1)
    c00028e2:	10d48723          	sb	a3,270(s1)
    c00028e6:	fdf7f793          	andi	a5,a5,-33
    c00028ea:	c319                	beqz	a4,c00028f0 <sbi_trap_redirect+0x1f4>
    c00028ec:	0207e793          	ori	a5,a5,32
    c00028f0:	ffd7f713          	andi	a4,a5,-3
    c00028f4:	0187551b          	srliw	a0,a4,0x18
    c00028f8:	00875893          	srli	a7,a4,0x8
    c00028fc:	01075813          	srli	a6,a4,0x10
    c0002900:	02075593          	srli	a1,a4,0x20
    c0002904:	02875613          	srli	a2,a4,0x28
    c0002908:	03075693          	srli	a3,a4,0x30
    c000290c:	0fd7f793          	andi	a5,a5,253
    c0002910:	9361                	srli	a4,a4,0x38
    c0002912:	10a485a3          	sb	a0,267(s1)
    c0002916:	10f48423          	sb	a5,264(s1)
    c000291a:	111484a3          	sb	a7,265(s1)
    c000291e:	11048523          	sb	a6,266(s1)
    c0002922:	10b48623          	sb	a1,268(s1)
    c0002926:	10c486a3          	sb	a2,269(s1)
    c000292a:	10d48723          	sb	a3,270(s1)
    c000292e:	10e487a3          	sb	a4,271(s1)
    c0002932:	4501                	li	a0,0
    c0002934:	70a2                	ld	ra,40(sp)
    c0002936:	7402                	ld	s0,32(sp)
    c0002938:	64e2                	ld	s1,24(sp)
    c000293a:	6942                	ld	s2,16(sp)
    c000293c:	69a2                	ld	s3,8(sp)
    c000293e:	6a02                	ld	s4,0(sp)
    c0002940:	6145                	addi	sp,sp,48
    c0002942:	8082                	ret
    c0002944:	1084c783          	lbu	a5,264(s1)
    c0002948:	10a4c583          	lbu	a1,266(s1)
    c000294c:	10b4c603          	lbu	a2,267(s1)
    c0002950:	0722                	slli	a4,a4,0x8
    c0002952:	10c4c683          	lbu	a3,268(s1)
    c0002956:	8f5d                	or	a4,a4,a5
    c0002958:	05c2                	slli	a1,a1,0x10
    c000295a:	10d4c783          	lbu	a5,269(s1)
    c000295e:	8dd9                	or	a1,a1,a4
    c0002960:	0662                	slli	a2,a2,0x18
    c0002962:	10e4c703          	lbu	a4,270(s1)
    c0002966:	8e4d                	or	a2,a2,a1
    c0002968:	1682                	slli	a3,a3,0x20
    c000296a:	8ed1                	or	a3,a3,a2
    c000296c:	10f4c583          	lbu	a1,271(s1)
    c0002970:	17a2                	slli	a5,a5,0x28
    c0002972:	8fd5                	or	a5,a5,a3
    c0002974:	1742                	slli	a4,a4,0x30
    c0002976:	8f5d                	or	a4,a4,a5
    c0002978:	57fd                	li	a5,-1
    c000297a:	03859693          	slli	a3,a1,0x38
    c000297e:	179e                	slli	a5,a5,0x27
    c0002980:	8f55                	or	a4,a4,a3
    c0002982:	17fd                	addi	a5,a5,-1
    c0002984:	8ff9                	and	a5,a5,a4
    c0002986:	06090263          	beqz	s2,c00029ea <sbi_trap_redirect+0x2ee>
    c000298a:	008a3603          	ld	a2,8(s4)
    c000298e:	458d                	li	a1,3
    c0002990:	1651                	addi	a2,a2,-12
    c0002992:	08c5ee63          	bltu	a1,a2,c0002a2e <sbi_trap_redirect+0x332>
    c0002996:	4905                	li	s2,1
    c0002998:	00c91633          	sll	a2,s2,a2
    c000299c:	8a2d                	andi	a2,a2,11
    c000299e:	10061763          	bnez	a2,c0002aac <sbi_trap_redirect+0x3b0>
    c00029a2:	0187d51b          	srliw	a0,a5,0x18
    c00029a6:	0087d893          	srli	a7,a5,0x8
    c00029aa:	0107d813          	srli	a6,a5,0x10
    c00029ae:	0207d593          	srli	a1,a5,0x20
    c00029b2:	0287d613          	srli	a2,a5,0x28
    c00029b6:	0307d693          	srli	a3,a5,0x30
    c00029ba:	93e1                	srli	a5,a5,0x38
    c00029bc:	10a485a3          	sb	a0,267(s1)
    c00029c0:	10e48423          	sb	a4,264(s1)
    c00029c4:	111484a3          	sb	a7,265(s1)
    c00029c8:	11048523          	sb	a6,266(s1)
    c00029cc:	10b48623          	sb	a1,268(s1)
    c00029d0:	10c486a3          	sb	a2,269(s1)
    c00029d4:	10d48723          	sb	a3,270(s1)
    c00029d8:	10f487a3          	sb	a5,271(s1)
    c00029dc:	04800513          	li	a0,72
    c00029e0:	606010ef          	jal	ra,c0003fe6 <misa_extension_imp>
    c00029e4:	e0050ce3          	beqz	a0,c00027fc <sbi_trap_redirect+0x100>
    c00029e8:	a071                	j	c0002a74 <sbi_trap_redirect+0x378>
    c00029ea:	0087d313          	srli	t1,a5,0x8
    c00029ee:	0107d893          	srli	a7,a5,0x10
    c00029f2:	0187d81b          	srliw	a6,a5,0x18
    c00029f6:	0207d513          	srli	a0,a5,0x20
    c00029fa:	0287d593          	srli	a1,a5,0x28
    c00029fe:	0307d613          	srli	a2,a5,0x30
    c0002a02:	93e1                	srli	a5,a5,0x38
    c0002a04:	10a48623          	sb	a0,268(s1)
    c0002a08:	10e48423          	sb	a4,264(s1)
    c0002a0c:	106484a3          	sb	t1,265(s1)
    c0002a10:	11148523          	sb	a7,266(s1)
    c0002a14:	110485a3          	sb	a6,267(s1)
    c0002a18:	10b486a3          	sb	a1,269(s1)
    c0002a1c:	10c48723          	sb	a2,270(s1)
    c0002a20:	10f487a3          	sb	a5,271(s1)
    c0002a24:	04800513          	li	a0,72
    c0002a28:	5be010ef          	jal	ra,c0003fe6 <misa_extension_imp>
    c0002a2c:	bbc1                	j	c00027fc <sbi_trap_redirect+0x100>
    c0002a2e:	0187d51b          	srliw	a0,a5,0x18
    c0002a32:	0087d893          	srli	a7,a5,0x8
    c0002a36:	0107d813          	srli	a6,a5,0x10
    c0002a3a:	0207d593          	srli	a1,a5,0x20
    c0002a3e:	0287d613          	srli	a2,a5,0x28
    c0002a42:	0307d693          	srli	a3,a5,0x30
    c0002a46:	93e1                	srli	a5,a5,0x38
    c0002a48:	10a485a3          	sb	a0,267(s1)
    c0002a4c:	10e48423          	sb	a4,264(s1)
    c0002a50:	111484a3          	sb	a7,265(s1)
    c0002a54:	11048523          	sb	a6,266(s1)
    c0002a58:	10b48623          	sb	a1,268(s1)
    c0002a5c:	10c486a3          	sb	a2,269(s1)
    c0002a60:	10d48723          	sb	a3,270(s1)
    c0002a64:	10f487a3          	sb	a5,271(s1)
    c0002a68:	04800513          	li	a0,72
    c0002a6c:	57a010ef          	jal	ra,c0003fe6 <misa_extension_imp>
    c0002a70:	d80506e3          	beqz	a0,c00027fc <sbi_trap_redirect+0x100>
    c0002a74:	600027f3          	csrr	a5,0x600
    c0002a78:	1094c703          	lbu	a4,265(s1)
    c0002a7c:	cff7f793          	andi	a5,a5,-769
    c0002a80:	0722                	slli	a4,a4,0x8
    c0002a82:	10077713          	andi	a4,a4,256
    c0002a86:	8f5d                	or	a4,a4,a5
    c0002a88:	00271793          	slli	a5,a4,0x2
    c0002a8c:	2007f793          	andi	a5,a5,512
    c0002a90:	8fd9                	or	a5,a5,a4
    c0002a92:	0807e793          	ori	a5,a5,128
    c0002a96:	60079073          	csrw	0x600,a5
    c0002a9a:	018a3783          	ld	a5,24(s4)
    c0002a9e:	64379073          	csrw	0x643,a5
    c0002aa2:	020a3783          	ld	a5,32(s4)
    c0002aa6:	64a79073          	csrw	0x64a,a5
    c0002aaa:	bb89                	j	c00027fc <sbi_trap_redirect+0x100>
    c0002aac:	02791713          	slli	a4,s2,0x27
    c0002ab0:	8fd9                	or	a5,a5,a4
    c0002ab2:	0087d893          	srli	a7,a5,0x8
    c0002ab6:	0107d813          	srli	a6,a5,0x10
    c0002aba:	0187d51b          	srliw	a0,a5,0x18
    c0002abe:	0207d593          	srli	a1,a5,0x20
    c0002ac2:	0287d613          	srli	a2,a5,0x28
    c0002ac6:	0307d693          	srli	a3,a5,0x30
    c0002aca:	0387d713          	srli	a4,a5,0x38
    c0002ace:	10f48423          	sb	a5,264(s1)
    c0002ad2:	10a485a3          	sb	a0,267(s1)
    c0002ad6:	111484a3          	sb	a7,265(s1)
    c0002ada:	11048523          	sb	a6,266(s1)
    c0002ade:	10b48623          	sb	a1,268(s1)
    c0002ae2:	10c486a3          	sb	a2,269(s1)
    c0002ae6:	10d48723          	sb	a3,270(s1)
    c0002aea:	10e487a3          	sb	a4,271(s1)
    c0002aee:	04800513          	li	a0,72
    c0002af2:	4f4010ef          	jal	ra,c0003fe6 <misa_extension_imp>
    c0002af6:	010a3783          	ld	a5,16(s4)
    c0002afa:	24379073          	csrw	hbadaddr,a5
    c0002afe:	000a3783          	ld	a5,0(s4)
    c0002b02:	24179073          	csrw	hepc,a5
    c0002b06:	008a3783          	ld	a5,8(s4)
    c0002b0a:	24279073          	csrw	hcause,a5
    c0002b0e:	20502773          	csrr	a4,htvec
    c0002b12:	1094c783          	lbu	a5,265(s1)
    c0002b16:	1084c683          	lbu	a3,264(s1)
    c0002b1a:	10a4c803          	lbu	a6,266(s1)
    c0002b1e:	10b4c503          	lbu	a0,267(s1)
    c0002b22:	10c4c583          	lbu	a1,268(s1)
    c0002b26:	07a2                	slli	a5,a5,0x8
    c0002b28:	10d4c603          	lbu	a2,269(s1)
    c0002b2c:	8fd5                	or	a5,a5,a3
    c0002b2e:	0842                	slli	a6,a6,0x10
    c0002b30:	10e4c683          	lbu	a3,270(s1)
    c0002b34:	00f86833          	or	a6,a6,a5
    c0002b38:	0562                	slli	a0,a0,0x18
    c0002b3a:	10f4c783          	lbu	a5,271(s1)
    c0002b3e:	01056533          	or	a0,a0,a6
    c0002b42:	1582                	slli	a1,a1,0x20
    c0002b44:	8dc9                	or	a1,a1,a0
    c0002b46:	1622                	slli	a2,a2,0x28
    c0002b48:	8e4d                	or	a2,a2,a1
    c0002b4a:	16c2                	slli	a3,a3,0x30
    c0002b4c:	8ed1                	or	a3,a3,a2
    c0002b4e:	17e2                	slli	a5,a5,0x38
    c0002b50:	8fd5                	or	a5,a5,a3
    c0002b52:	76f9                	lui	a3,0xffffe
    c0002b54:	7ff68693          	addi	a3,a3,2047 # ffffffffffffe7ff <_fw_end+0xffffffff3fff27ff>
    c0002b58:	8ff5                	and	a5,a5,a3
    c0002b5a:	6685                	lui	a3,0x1
    c0002b5c:	80068693          	addi	a3,a3,-2048 # 800 <_fw_start-0xbffff800>
    c0002b60:	8fd5                	or	a5,a5,a3
    c0002b62:	00875a13          	srli	s4,a4,0x8
    c0002b66:	01075393          	srli	t2,a4,0x10
    c0002b6a:	0187529b          	srliw	t0,a4,0x18
    c0002b6e:	02075f93          	srli	t6,a4,0x20
    c0002b72:	02875f13          	srli	t5,a4,0x28
    c0002b76:	03075e93          	srli	t4,a4,0x30
    c0002b7a:	03875e13          	srli	t3,a4,0x38
    c0002b7e:	0087d313          	srli	t1,a5,0x8
    c0002b82:	0107d893          	srli	a7,a5,0x10
    c0002b86:	0187d81b          	srliw	a6,a5,0x18
    c0002b8a:	0207d513          	srli	a0,a5,0x20
    c0002b8e:	0287d593          	srli	a1,a5,0x28
    c0002b92:	0307d613          	srli	a2,a5,0x30
    c0002b96:	0387d693          	srli	a3,a5,0x38
    c0002b9a:	10e48023          	sb	a4,256(s1)
    c0002b9e:	114480a3          	sb	s4,257(s1)
    c0002ba2:	10748123          	sb	t2,258(s1)
    c0002ba6:	105481a3          	sb	t0,259(s1)
    c0002baa:	11f48223          	sb	t6,260(s1)
    c0002bae:	11e482a3          	sb	t5,261(s1)
    c0002bb2:	11d48323          	sb	t4,262(s1)
    c0002bb6:	11c483a3          	sb	t3,263(s1)
    c0002bba:	10f48423          	sb	a5,264(s1)
    c0002bbe:	106484a3          	sb	t1,265(s1)
    c0002bc2:	11148523          	sb	a7,266(s1)
    c0002bc6:	110485a3          	sb	a6,267(s1)
    c0002bca:	10a48623          	sb	a0,268(s1)
    c0002bce:	10b486a3          	sb	a1,269(s1)
    c0002bd2:	10c48723          	sb	a2,270(s1)
    c0002bd6:	10d487a3          	sb	a3,271(s1)
    c0002bda:	200027f3          	csrr	a5,hstatus
    c0002bde:	eff7f793          	andi	a5,a5,-257
    c0002be2:	01299463          	bne	s3,s2,c0002bea <sbi_trap_redirect+0x4ee>
    c0002be6:	1007e793          	ori	a5,a5,256
    c0002bea:	0027f713          	andi	a4,a5,2
    c0002bee:	fdf7f793          	andi	a5,a5,-33
    c0002bf2:	c319                	beqz	a4,c0002bf8 <sbi_trap_redirect+0x4fc>
    c0002bf4:	0207e793          	ori	a5,a5,32
    c0002bf8:	9bf5                	andi	a5,a5,-3
    c0002bfa:	20079073          	csrw	hstatus,a5
    c0002bfe:	70a2                	ld	ra,40(sp)
    c0002c00:	7402                	ld	s0,32(sp)
    c0002c02:	64e2                	ld	s1,24(sp)
    c0002c04:	6942                	ld	s2,16(sp)
    c0002c06:	69a2                	ld	s3,8(sp)
    c0002c08:	6a02                	ld	s4,0(sp)
    c0002c0a:	4501                	li	a0,0
    c0002c0c:	6145                	addi	sp,sp,48
    c0002c0e:	8082                	ret
    c0002c10:	90070713          	addi	a4,a4,-1792
    c0002c14:	b941                	j	c00028a4 <sbi_trap_redirect+0x1a8>
    c0002c16:	e4091fe3          	bnez	s2,c0002a74 <sbi_trap_redirect+0x378>
    c0002c1a:	b6cd                	j	c00027fc <sbi_trap_redirect+0x100>
    c0002c1c:	5579                	li	a0,-2
    c0002c1e:	bb19                	j	c0002934 <sbi_trap_redirect+0x238>

00000000c0002c20 <sbi_trap_handler>:
    c0002c20:	7119                	addi	sp,sp,-128
    c0002c22:	f8a2                	sd	s0,112(sp)
    c0002c24:	f0ca                	sd	s2,96(sp)
    c0002c26:	fc5e                	sd	s7,56(sp)
    c0002c28:	f862                	sd	s8,48(sp)
    c0002c2a:	fc86                	sd	ra,120(sp)
    c0002c2c:	f4a6                	sd	s1,104(sp)
    c0002c2e:	ecce                	sd	s3,88(sp)
    c0002c30:	e8d2                	sd	s4,80(sp)
    c0002c32:	e4d6                	sd	s5,72(sp)
    c0002c34:	e0da                	sd	s6,64(sp)
    c0002c36:	0100                	addi	s0,sp,128
    c0002c38:	892a                	mv	s2,a0
    c0002c3a:	8c2e                	mv	s8,a1
    c0002c3c:	0bb030ef          	jal	ra,c00064f6 <sbi_current_hartid>
    c0002c40:	00050b9b          	sext.w	s7,a0
    c0002c44:	342024f3          	csrr	s1,mcause
    c0002c48:	89a6                	mv	s3,s1
    c0002c4a:	34302b73          	csrr	s6,mtval
    c0002c4e:	04800513          	li	a0,72
    c0002c52:	394010ef          	jal	ra,c0003fe6 <misa_extension_imp>
    c0002c56:	c505                	beqz	a0,c0002c7e <sbi_trap_handler+0x5e>
    c0002c58:	34b02a73          	csrr	s4,0x34b
    c0002c5c:	34a02af3          	csrr	s5,0x34a
    c0002c60:	0204c363          	bltz	s1,c0002c86 <sbi_trap_handler+0x66>
    c0002c64:	47bd                	li	a5,15
    c0002c66:	5097e7e3          	bltu	a5,s1,c0003974 <sbi_trap_handler+0xd54>
    c0002c6a:	00006697          	auipc	a3,0x6
    c0002c6e:	6be68693          	addi	a3,a3,1726 # c0009328 <sbi_emulate_csr_write+0x9f8>
    c0002c72:	00249713          	slli	a4,s1,0x2
    c0002c76:	9736                	add	a4,a4,a3
    c0002c78:	431c                	lw	a5,0(a4)
    c0002c7a:	97b6                	add	a5,a5,a3
    c0002c7c:	8782                	jr	a5
    c0002c7e:	4a81                	li	s5,0
    c0002c80:	4a01                	li	s4,0
    c0002c82:	fe04d1e3          	bgez	s1,c0002c64 <sbi_trap_handler+0x44>
    c0002c86:	00149993          	slli	s3,s1,0x1
    c0002c8a:	0019d993          	srli	s3,s3,0x1
    c0002c8e:	478d                	li	a5,3
    c0002c90:	5af98ee3          	beq	s3,a5,c0003a4c <sbi_trap_handler+0xe2c>
    c0002c94:	479d                	li	a5,7
    c0002c96:	02f99163          	bne	s3,a5,c0002cb8 <sbi_trap_handler+0x98>
    c0002c9a:	8562                	mv	a0,s8
    c0002c9c:	a5aff0ef          	jal	ra,c0001ef6 <sbi_timer_process>
    c0002ca0:	70e6                	ld	ra,120(sp)
    c0002ca2:	7446                	ld	s0,112(sp)
    c0002ca4:	74a6                	ld	s1,104(sp)
    c0002ca6:	7906                	ld	s2,96(sp)
    c0002ca8:	69e6                	ld	s3,88(sp)
    c0002caa:	6a46                	ld	s4,80(sp)
    c0002cac:	6aa6                	ld	s5,72(sp)
    c0002cae:	6b06                	ld	s6,64(sp)
    c0002cb0:	7be2                	ld	s7,56(sp)
    c0002cb2:	7c42                	ld	s8,48(sp)
    c0002cb4:	6109                	addi	sp,sp,128
    c0002cb6:	8082                	ret
    c0002cb8:	00006697          	auipc	a3,0x6
    c0002cbc:	78068693          	addi	a3,a3,1920 # c0009438 <__func__.1237+0xd0>
    c0002cc0:	5579                	li	a0,-2
    c0002cc2:	872a                	mv	a4,a0
    c0002cc4:	00006597          	auipc	a1,0x6
    c0002cc8:	6a458593          	addi	a1,a1,1700 # c0009368 <__func__.1237>
    c0002ccc:	865e                	mv	a2,s7
    c0002cce:	00006517          	auipc	a0,0x6
    c0002cd2:	78a50513          	addi	a0,a0,1930 # c0009458 <__func__.1237+0xf0>
    c0002cd6:	478020ef          	jal	ra,c000514e <sbi_printf>
    c0002cda:	875a                	mv	a4,s6
    c0002cdc:	86ce                	mv	a3,s3
    c0002cde:	865e                	mv	a2,s7
    c0002ce0:	00006597          	auipc	a1,0x6
    c0002ce4:	68858593          	addi	a1,a1,1672 # c0009368 <__func__.1237>
    c0002ce8:	00006517          	auipc	a0,0x6
    c0002cec:	79050513          	addi	a0,a0,1936 # c0009478 <__func__.1237+0x110>
    c0002cf0:	45e020ef          	jal	ra,c000514e <sbi_printf>
    c0002cf4:	04800513          	li	a0,72
    c0002cf8:	2ee010ef          	jal	ra,c0003fe6 <misa_extension_imp>
    c0002cfc:	54051de3          	bnez	a0,c0003a56 <sbi_trap_handler+0xe36>
    c0002d00:	10994703          	lbu	a4,265(s2)
    c0002d04:	10194783          	lbu	a5,257(s2)
    c0002d08:	10894603          	lbu	a2,264(s2)
    c0002d0c:	10094683          	lbu	a3,256(s2)
    c0002d10:	10a94e03          	lbu	t3,266(s2)
    c0002d14:	10294303          	lbu	t1,258(s2)
    c0002d18:	10b94883          	lbu	a7,267(s2)
    c0002d1c:	10394803          	lbu	a6,259(s2)
    c0002d20:	10c94503          	lbu	a0,268(s2)
    c0002d24:	10494583          	lbu	a1,260(s2)
    c0002d28:	0722                	slli	a4,a4,0x8
    c0002d2a:	07a2                	slli	a5,a5,0x8
    c0002d2c:	8f51                	or	a4,a4,a2
    c0002d2e:	8fd5                	or	a5,a5,a3
    c0002d30:	10d94603          	lbu	a2,269(s2)
    c0002d34:	10594683          	lbu	a3,261(s2)
    c0002d38:	0e42                	slli	t3,t3,0x10
    c0002d3a:	0342                	slli	t1,t1,0x10
    c0002d3c:	00ee6e33          	or	t3,t3,a4
    c0002d40:	00f36333          	or	t1,t1,a5
    c0002d44:	10e94703          	lbu	a4,270(s2)
    c0002d48:	10694783          	lbu	a5,262(s2)
    c0002d4c:	08e2                	slli	a7,a7,0x18
    c0002d4e:	0862                	slli	a6,a6,0x18
    c0002d50:	01c8e8b3          	or	a7,a7,t3
    c0002d54:	00686833          	or	a6,a6,t1
    c0002d58:	10f94e03          	lbu	t3,271(s2)
    c0002d5c:	10794303          	lbu	t1,263(s2)
    c0002d60:	1502                	slli	a0,a0,0x20
    c0002d62:	1582                	slli	a1,a1,0x20
    c0002d64:	01156533          	or	a0,a0,a7
    c0002d68:	0105e5b3          	or	a1,a1,a6
    c0002d6c:	1622                	slli	a2,a2,0x28
    c0002d6e:	16a2                	slli	a3,a3,0x28
    c0002d70:	8e49                	or	a2,a2,a0
    c0002d72:	8ecd                	or	a3,a3,a1
    c0002d74:	1742                	slli	a4,a4,0x30
    c0002d76:	17c2                	slli	a5,a5,0x30
    c0002d78:	8fd5                	or	a5,a5,a3
    c0002d7a:	1e62                	slli	t3,t3,0x38
    c0002d7c:	03831693          	slli	a3,t1,0x38
    c0002d80:	8f51                	or	a4,a4,a2
    c0002d82:	00ee6733          	or	a4,t3,a4
    c0002d86:	8edd                	or	a3,a3,a5
    c0002d88:	865e                	mv	a2,s7
    c0002d8a:	00006597          	auipc	a1,0x6
    c0002d8e:	5de58593          	addi	a1,a1,1502 # c0009368 <__func__.1237>
    c0002d92:	00006517          	auipc	a0,0x6
    c0002d96:	74650513          	addi	a0,a0,1862 # c00094d8 <__func__.1237+0x170>
    c0002d9a:	3b4020ef          	jal	ra,c000514e <sbi_printf>
    c0002d9e:	01194783          	lbu	a5,17(s2)
    c0002da2:	00994703          	lbu	a4,9(s2)
    c0002da6:	01094603          	lbu	a2,16(s2)
    c0002daa:	00894683          	lbu	a3,8(s2)
    c0002dae:	01294e03          	lbu	t3,18(s2)
    c0002db2:	00a94303          	lbu	t1,10(s2)
    c0002db6:	01394883          	lbu	a7,19(s2)
    c0002dba:	00b94803          	lbu	a6,11(s2)
    c0002dbe:	01494503          	lbu	a0,20(s2)
    c0002dc2:	00c94583          	lbu	a1,12(s2)
    c0002dc6:	07a2                	slli	a5,a5,0x8
    c0002dc8:	0722                	slli	a4,a4,0x8
    c0002dca:	8fd1                	or	a5,a5,a2
    c0002dcc:	8f55                	or	a4,a4,a3
    c0002dce:	01594603          	lbu	a2,21(s2)
    c0002dd2:	00d94683          	lbu	a3,13(s2)
    c0002dd6:	0e42                	slli	t3,t3,0x10
    c0002dd8:	0342                	slli	t1,t1,0x10
    c0002dda:	00fe6e33          	or	t3,t3,a5
    c0002dde:	00e36333          	or	t1,t1,a4
    c0002de2:	01694783          	lbu	a5,22(s2)
    c0002de6:	00e94703          	lbu	a4,14(s2)
    c0002dea:	08e2                	slli	a7,a7,0x18
    c0002dec:	0862                	slli	a6,a6,0x18
    c0002dee:	01c8e8b3          	or	a7,a7,t3
    c0002df2:	00686833          	or	a6,a6,t1
    c0002df6:	01794e03          	lbu	t3,23(s2)
    c0002dfa:	00f94303          	lbu	t1,15(s2)
    c0002dfe:	1502                	slli	a0,a0,0x20
    c0002e00:	1582                	slli	a1,a1,0x20
    c0002e02:	01156533          	or	a0,a0,a7
    c0002e06:	0105e5b3          	or	a1,a1,a6
    c0002e0a:	1622                	slli	a2,a2,0x28
    c0002e0c:	16a2                	slli	a3,a3,0x28
    c0002e0e:	8e49                	or	a2,a2,a0
    c0002e10:	8ecd                	or	a3,a3,a1
    c0002e12:	17c2                	slli	a5,a5,0x30
    c0002e14:	1742                	slli	a4,a4,0x30
    c0002e16:	8fd1                	or	a5,a5,a2
    c0002e18:	038e1813          	slli	a6,t3,0x38
    c0002e1c:	1362                	slli	t1,t1,0x38
    c0002e1e:	8f55                	or	a4,a4,a3
    c0002e20:	00f86833          	or	a6,a6,a5
    c0002e24:	00e36733          	or	a4,t1,a4
    c0002e28:	00006797          	auipc	a5,0x6
    c0002e2c:	6e078793          	addi	a5,a5,1760 # c0009508 <__func__.1237+0x1a0>
    c0002e30:	00006697          	auipc	a3,0x6
    c0002e34:	6e068693          	addi	a3,a3,1760 # c0009510 <__func__.1237+0x1a8>
    c0002e38:	865e                	mv	a2,s7
    c0002e3a:	00006597          	auipc	a1,0x6
    c0002e3e:	52e58593          	addi	a1,a1,1326 # c0009368 <__func__.1237>
    c0002e42:	00006517          	auipc	a0,0x6
    c0002e46:	6d650513          	addi	a0,a0,1750 # c0009518 <__func__.1237+0x1b0>
    c0002e4a:	304020ef          	jal	ra,c000514e <sbi_printf>
    c0002e4e:	02194783          	lbu	a5,33(s2)
    c0002e52:	01994703          	lbu	a4,25(s2)
    c0002e56:	02094603          	lbu	a2,32(s2)
    c0002e5a:	01894683          	lbu	a3,24(s2)
    c0002e5e:	02294e03          	lbu	t3,34(s2)
    c0002e62:	01a94303          	lbu	t1,26(s2)
    c0002e66:	02394883          	lbu	a7,35(s2)
    c0002e6a:	01b94803          	lbu	a6,27(s2)
    c0002e6e:	02494503          	lbu	a0,36(s2)
    c0002e72:	01c94583          	lbu	a1,28(s2)
    c0002e76:	07a2                	slli	a5,a5,0x8
    c0002e78:	0722                	slli	a4,a4,0x8
    c0002e7a:	8fd1                	or	a5,a5,a2
    c0002e7c:	8f55                	or	a4,a4,a3
    c0002e7e:	02594603          	lbu	a2,37(s2)
    c0002e82:	01d94683          	lbu	a3,29(s2)
    c0002e86:	0e42                	slli	t3,t3,0x10
    c0002e88:	0342                	slli	t1,t1,0x10
    c0002e8a:	00fe6e33          	or	t3,t3,a5
    c0002e8e:	00e36333          	or	t1,t1,a4
    c0002e92:	02694783          	lbu	a5,38(s2)
    c0002e96:	01e94703          	lbu	a4,30(s2)
    c0002e9a:	08e2                	slli	a7,a7,0x18
    c0002e9c:	0862                	slli	a6,a6,0x18
    c0002e9e:	01c8e8b3          	or	a7,a7,t3
    c0002ea2:	00686833          	or	a6,a6,t1
    c0002ea6:	02794e03          	lbu	t3,39(s2)
    c0002eaa:	01f94303          	lbu	t1,31(s2)
    c0002eae:	1502                	slli	a0,a0,0x20
    c0002eb0:	1582                	slli	a1,a1,0x20
    c0002eb2:	01156533          	or	a0,a0,a7
    c0002eb6:	0105e5b3          	or	a1,a1,a6
    c0002eba:	1622                	slli	a2,a2,0x28
    c0002ebc:	16a2                	slli	a3,a3,0x28
    c0002ebe:	8e49                	or	a2,a2,a0
    c0002ec0:	8ecd                	or	a3,a3,a1
    c0002ec2:	17c2                	slli	a5,a5,0x30
    c0002ec4:	1742                	slli	a4,a4,0x30
    c0002ec6:	8fd1                	or	a5,a5,a2
    c0002ec8:	038e1813          	slli	a6,t3,0x38
    c0002ecc:	1362                	slli	t1,t1,0x38
    c0002ece:	8f55                	or	a4,a4,a3
    c0002ed0:	00f86833          	or	a6,a6,a5
    c0002ed4:	00e36733          	or	a4,t1,a4
    c0002ed8:	00006797          	auipc	a5,0x6
    c0002edc:	66878793          	addi	a5,a5,1640 # c0009540 <__func__.1237+0x1d8>
    c0002ee0:	00006697          	auipc	a3,0x6
    c0002ee4:	66868693          	addi	a3,a3,1640 # c0009548 <__func__.1237+0x1e0>
    c0002ee8:	865e                	mv	a2,s7
    c0002eea:	00006597          	auipc	a1,0x6
    c0002eee:	47e58593          	addi	a1,a1,1150 # c0009368 <__func__.1237>
    c0002ef2:	00006517          	auipc	a0,0x6
    c0002ef6:	62650513          	addi	a0,a0,1574 # c0009518 <__func__.1237+0x1b0>
    c0002efa:	254020ef          	jal	ra,c000514e <sbi_printf>
    c0002efe:	04994783          	lbu	a5,73(s2)
    c0002f02:	04194703          	lbu	a4,65(s2)
    c0002f06:	04894603          	lbu	a2,72(s2)
    c0002f0a:	04094683          	lbu	a3,64(s2)
    c0002f0e:	04a94e03          	lbu	t3,74(s2)
    c0002f12:	04294303          	lbu	t1,66(s2)
    c0002f16:	04b94883          	lbu	a7,75(s2)
    c0002f1a:	04394803          	lbu	a6,67(s2)
    c0002f1e:	04c94503          	lbu	a0,76(s2)
    c0002f22:	04494583          	lbu	a1,68(s2)
    c0002f26:	07a2                	slli	a5,a5,0x8
    c0002f28:	0722                	slli	a4,a4,0x8
    c0002f2a:	8fd1                	or	a5,a5,a2
    c0002f2c:	8f55                	or	a4,a4,a3
    c0002f2e:	04d94603          	lbu	a2,77(s2)
    c0002f32:	04594683          	lbu	a3,69(s2)
    c0002f36:	0e42                	slli	t3,t3,0x10
    c0002f38:	0342                	slli	t1,t1,0x10
    c0002f3a:	00fe6e33          	or	t3,t3,a5
    c0002f3e:	00e36333          	or	t1,t1,a4
    c0002f42:	04e94783          	lbu	a5,78(s2)
    c0002f46:	04694703          	lbu	a4,70(s2)
    c0002f4a:	08e2                	slli	a7,a7,0x18
    c0002f4c:	0862                	slli	a6,a6,0x18
    c0002f4e:	01c8e8b3          	or	a7,a7,t3
    c0002f52:	00686833          	or	a6,a6,t1
    c0002f56:	04f94e03          	lbu	t3,79(s2)
    c0002f5a:	04794303          	lbu	t1,71(s2)
    c0002f5e:	1502                	slli	a0,a0,0x20
    c0002f60:	1582                	slli	a1,a1,0x20
    c0002f62:	01156533          	or	a0,a0,a7
    c0002f66:	0105e5b3          	or	a1,a1,a6
    c0002f6a:	1622                	slli	a2,a2,0x28
    c0002f6c:	16a2                	slli	a3,a3,0x28
    c0002f6e:	8e49                	or	a2,a2,a0
    c0002f70:	8ecd                	or	a3,a3,a1
    c0002f72:	17c2                	slli	a5,a5,0x30
    c0002f74:	1742                	slli	a4,a4,0x30
    c0002f76:	8fd1                	or	a5,a5,a2
    c0002f78:	038e1813          	slli	a6,t3,0x38
    c0002f7c:	1362                	slli	t1,t1,0x38
    c0002f7e:	8f55                	or	a4,a4,a3
    c0002f80:	00f86833          	or	a6,a6,a5
    c0002f84:	00e36733          	or	a4,t1,a4
    c0002f88:	00006797          	auipc	a5,0x6
    c0002f8c:	5c878793          	addi	a5,a5,1480 # c0009550 <__func__.1237+0x1e8>
    c0002f90:	00006697          	auipc	a3,0x6
    c0002f94:	5c868693          	addi	a3,a3,1480 # c0009558 <__func__.1237+0x1f0>
    c0002f98:	865e                	mv	a2,s7
    c0002f9a:	00006597          	auipc	a1,0x6
    c0002f9e:	3ce58593          	addi	a1,a1,974 # c0009368 <__func__.1237>
    c0002fa2:	00006517          	auipc	a0,0x6
    c0002fa6:	57650513          	addi	a0,a0,1398 # c0009518 <__func__.1237+0x1b0>
    c0002faa:	1a4020ef          	jal	ra,c000514e <sbi_printf>
    c0002fae:	05994783          	lbu	a5,89(s2)
    c0002fb2:	05194703          	lbu	a4,81(s2)
    c0002fb6:	05894603          	lbu	a2,88(s2)
    c0002fba:	05094683          	lbu	a3,80(s2)
    c0002fbe:	05a94e03          	lbu	t3,90(s2)
    c0002fc2:	05294303          	lbu	t1,82(s2)
    c0002fc6:	05b94883          	lbu	a7,91(s2)
    c0002fca:	05394803          	lbu	a6,83(s2)
    c0002fce:	05c94503          	lbu	a0,92(s2)
    c0002fd2:	05494583          	lbu	a1,84(s2)
    c0002fd6:	07a2                	slli	a5,a5,0x8
    c0002fd8:	0722                	slli	a4,a4,0x8
    c0002fda:	8fd1                	or	a5,a5,a2
    c0002fdc:	8f55                	or	a4,a4,a3
    c0002fde:	05d94603          	lbu	a2,93(s2)
    c0002fe2:	05594683          	lbu	a3,85(s2)
    c0002fe6:	0e42                	slli	t3,t3,0x10
    c0002fe8:	0342                	slli	t1,t1,0x10
    c0002fea:	00fe6e33          	or	t3,t3,a5
    c0002fee:	00e36333          	or	t1,t1,a4
    c0002ff2:	05e94783          	lbu	a5,94(s2)
    c0002ff6:	05694703          	lbu	a4,86(s2)
    c0002ffa:	08e2                	slli	a7,a7,0x18
    c0002ffc:	0862                	slli	a6,a6,0x18
    c0002ffe:	01c8e8b3          	or	a7,a7,t3
    c0003002:	00686833          	or	a6,a6,t1
    c0003006:	05f94e03          	lbu	t3,95(s2)
    c000300a:	05794303          	lbu	t1,87(s2)
    c000300e:	1502                	slli	a0,a0,0x20
    c0003010:	1582                	slli	a1,a1,0x20
    c0003012:	01156533          	or	a0,a0,a7
    c0003016:	0105e5b3          	or	a1,a1,a6
    c000301a:	1622                	slli	a2,a2,0x28
    c000301c:	16a2                	slli	a3,a3,0x28
    c000301e:	8e49                	or	a2,a2,a0
    c0003020:	8ecd                	or	a3,a3,a1
    c0003022:	17c2                	slli	a5,a5,0x30
    c0003024:	1742                	slli	a4,a4,0x30
    c0003026:	8fd1                	or	a5,a5,a2
    c0003028:	038e1813          	slli	a6,t3,0x38
    c000302c:	1362                	slli	t1,t1,0x38
    c000302e:	8f55                	or	a4,a4,a3
    c0003030:	00f86833          	or	a6,a6,a5
    c0003034:	00e36733          	or	a4,t1,a4
    c0003038:	00006797          	auipc	a5,0x6
    c000303c:	52878793          	addi	a5,a5,1320 # c0009560 <__func__.1237+0x1f8>
    c0003040:	00006697          	auipc	a3,0x6
    c0003044:	52868693          	addi	a3,a3,1320 # c0009568 <__func__.1237+0x200>
    c0003048:	865e                	mv	a2,s7
    c000304a:	00006597          	auipc	a1,0x6
    c000304e:	31e58593          	addi	a1,a1,798 # c0009368 <__func__.1237>
    c0003052:	00006517          	auipc	a0,0x6
    c0003056:	4c650513          	addi	a0,a0,1222 # c0009518 <__func__.1237+0x1b0>
    c000305a:	0f4020ef          	jal	ra,c000514e <sbi_printf>
    c000305e:	06994783          	lbu	a5,105(s2)
    c0003062:	06194703          	lbu	a4,97(s2)
    c0003066:	06894603          	lbu	a2,104(s2)
    c000306a:	06094683          	lbu	a3,96(s2)
    c000306e:	06a94e03          	lbu	t3,106(s2)
    c0003072:	06294303          	lbu	t1,98(s2)
    c0003076:	06b94883          	lbu	a7,107(s2)
    c000307a:	06394803          	lbu	a6,99(s2)
    c000307e:	06c94503          	lbu	a0,108(s2)
    c0003082:	06494583          	lbu	a1,100(s2)
    c0003086:	07a2                	slli	a5,a5,0x8
    c0003088:	0722                	slli	a4,a4,0x8
    c000308a:	8fd1                	or	a5,a5,a2
    c000308c:	8f55                	or	a4,a4,a3
    c000308e:	06d94603          	lbu	a2,109(s2)
    c0003092:	06594683          	lbu	a3,101(s2)
    c0003096:	0e42                	slli	t3,t3,0x10
    c0003098:	0342                	slli	t1,t1,0x10
    c000309a:	00fe6e33          	or	t3,t3,a5
    c000309e:	00e36333          	or	t1,t1,a4
    c00030a2:	06e94783          	lbu	a5,110(s2)
    c00030a6:	06694703          	lbu	a4,102(s2)
    c00030aa:	08e2                	slli	a7,a7,0x18
    c00030ac:	0862                	slli	a6,a6,0x18
    c00030ae:	01c8e8b3          	or	a7,a7,t3
    c00030b2:	00686833          	or	a6,a6,t1
    c00030b6:	06f94e03          	lbu	t3,111(s2)
    c00030ba:	06794303          	lbu	t1,103(s2)
    c00030be:	1502                	slli	a0,a0,0x20
    c00030c0:	1582                	slli	a1,a1,0x20
    c00030c2:	01156533          	or	a0,a0,a7
    c00030c6:	0105e5b3          	or	a1,a1,a6
    c00030ca:	1622                	slli	a2,a2,0x28
    c00030cc:	16a2                	slli	a3,a3,0x28
    c00030ce:	8e49                	or	a2,a2,a0
    c00030d0:	8ecd                	or	a3,a3,a1
    c00030d2:	17c2                	slli	a5,a5,0x30
    c00030d4:	1742                	slli	a4,a4,0x30
    c00030d6:	8fd1                	or	a5,a5,a2
    c00030d8:	038e1813          	slli	a6,t3,0x38
    c00030dc:	1362                	slli	t1,t1,0x38
    c00030de:	8f55                	or	a4,a4,a3
    c00030e0:	00f86833          	or	a6,a6,a5
    c00030e4:	00e36733          	or	a4,t1,a4
    c00030e8:	00006797          	auipc	a5,0x6
    c00030ec:	48878793          	addi	a5,a5,1160 # c0009570 <__func__.1237+0x208>
    c00030f0:	00006697          	auipc	a3,0x6
    c00030f4:	48868693          	addi	a3,a3,1160 # c0009578 <__func__.1237+0x210>
    c00030f8:	865e                	mv	a2,s7
    c00030fa:	00006597          	auipc	a1,0x6
    c00030fe:	26e58593          	addi	a1,a1,622 # c0009368 <__func__.1237>
    c0003102:	00006517          	auipc	a0,0x6
    c0003106:	41650513          	addi	a0,a0,1046 # c0009518 <__func__.1237+0x1b0>
    c000310a:	044020ef          	jal	ra,c000514e <sbi_printf>
    c000310e:	07994783          	lbu	a5,121(s2)
    c0003112:	07194703          	lbu	a4,113(s2)
    c0003116:	07894603          	lbu	a2,120(s2)
    c000311a:	07094683          	lbu	a3,112(s2)
    c000311e:	07a94e03          	lbu	t3,122(s2)
    c0003122:	07294303          	lbu	t1,114(s2)
    c0003126:	07b94883          	lbu	a7,123(s2)
    c000312a:	07394803          	lbu	a6,115(s2)
    c000312e:	07c94503          	lbu	a0,124(s2)
    c0003132:	07494583          	lbu	a1,116(s2)
    c0003136:	07a2                	slli	a5,a5,0x8
    c0003138:	0722                	slli	a4,a4,0x8
    c000313a:	8fd1                	or	a5,a5,a2
    c000313c:	8f55                	or	a4,a4,a3
    c000313e:	07d94603          	lbu	a2,125(s2)
    c0003142:	07594683          	lbu	a3,117(s2)
    c0003146:	0e42                	slli	t3,t3,0x10
    c0003148:	0342                	slli	t1,t1,0x10
    c000314a:	00fe6e33          	or	t3,t3,a5
    c000314e:	00e36333          	or	t1,t1,a4
    c0003152:	07e94783          	lbu	a5,126(s2)
    c0003156:	07694703          	lbu	a4,118(s2)
    c000315a:	08e2                	slli	a7,a7,0x18
    c000315c:	0862                	slli	a6,a6,0x18
    c000315e:	01c8e8b3          	or	a7,a7,t3
    c0003162:	00686833          	or	a6,a6,t1
    c0003166:	07f94e03          	lbu	t3,127(s2)
    c000316a:	07794303          	lbu	t1,119(s2)
    c000316e:	1502                	slli	a0,a0,0x20
    c0003170:	1582                	slli	a1,a1,0x20
    c0003172:	01156533          	or	a0,a0,a7
    c0003176:	0105e5b3          	or	a1,a1,a6
    c000317a:	1622                	slli	a2,a2,0x28
    c000317c:	16a2                	slli	a3,a3,0x28
    c000317e:	8e49                	or	a2,a2,a0
    c0003180:	8ecd                	or	a3,a3,a1
    c0003182:	17c2                	slli	a5,a5,0x30
    c0003184:	1742                	slli	a4,a4,0x30
    c0003186:	8fd1                	or	a5,a5,a2
    c0003188:	038e1813          	slli	a6,t3,0x38
    c000318c:	1362                	slli	t1,t1,0x38
    c000318e:	8f55                	or	a4,a4,a3
    c0003190:	00f86833          	or	a6,a6,a5
    c0003194:	00e36733          	or	a4,t1,a4
    c0003198:	00006797          	auipc	a5,0x6
    c000319c:	3e878793          	addi	a5,a5,1000 # c0009580 <__func__.1237+0x218>
    c00031a0:	00006697          	auipc	a3,0x6
    c00031a4:	3e868693          	addi	a3,a3,1000 # c0009588 <__func__.1237+0x220>
    c00031a8:	865e                	mv	a2,s7
    c00031aa:	00006597          	auipc	a1,0x6
    c00031ae:	1be58593          	addi	a1,a1,446 # c0009368 <__func__.1237>
    c00031b2:	00006517          	auipc	a0,0x6
    c00031b6:	36650513          	addi	a0,a0,870 # c0009518 <__func__.1237+0x1b0>
    c00031ba:	795010ef          	jal	ra,c000514e <sbi_printf>
    c00031be:	08994783          	lbu	a5,137(s2)
    c00031c2:	08194703          	lbu	a4,129(s2)
    c00031c6:	08894603          	lbu	a2,136(s2)
    c00031ca:	08094683          	lbu	a3,128(s2)
    c00031ce:	08a94e03          	lbu	t3,138(s2)
    c00031d2:	08294303          	lbu	t1,130(s2)
    c00031d6:	08b94883          	lbu	a7,139(s2)
    c00031da:	08394803          	lbu	a6,131(s2)
    c00031de:	08c94503          	lbu	a0,140(s2)
    c00031e2:	08494583          	lbu	a1,132(s2)
    c00031e6:	07a2                	slli	a5,a5,0x8
    c00031e8:	0722                	slli	a4,a4,0x8
    c00031ea:	8fd1                	or	a5,a5,a2
    c00031ec:	8f55                	or	a4,a4,a3
    c00031ee:	08d94603          	lbu	a2,141(s2)
    c00031f2:	08594683          	lbu	a3,133(s2)
    c00031f6:	0e42                	slli	t3,t3,0x10
    c00031f8:	0342                	slli	t1,t1,0x10
    c00031fa:	00fe6e33          	or	t3,t3,a5
    c00031fe:	00e36333          	or	t1,t1,a4
    c0003202:	08e94783          	lbu	a5,142(s2)
    c0003206:	08694703          	lbu	a4,134(s2)
    c000320a:	08e2                	slli	a7,a7,0x18
    c000320c:	0862                	slli	a6,a6,0x18
    c000320e:	01c8e8b3          	or	a7,a7,t3
    c0003212:	00686833          	or	a6,a6,t1
    c0003216:	08f94e03          	lbu	t3,143(s2)
    c000321a:	08794303          	lbu	t1,135(s2)
    c000321e:	1502                	slli	a0,a0,0x20
    c0003220:	1582                	slli	a1,a1,0x20
    c0003222:	01156533          	or	a0,a0,a7
    c0003226:	0105e5b3          	or	a1,a1,a6
    c000322a:	1622                	slli	a2,a2,0x28
    c000322c:	16a2                	slli	a3,a3,0x28
    c000322e:	8e49                	or	a2,a2,a0
    c0003230:	8ecd                	or	a3,a3,a1
    c0003232:	17c2                	slli	a5,a5,0x30
    c0003234:	1742                	slli	a4,a4,0x30
    c0003236:	8fd1                	or	a5,a5,a2
    c0003238:	038e1813          	slli	a6,t3,0x38
    c000323c:	1362                	slli	t1,t1,0x38
    c000323e:	8f55                	or	a4,a4,a3
    c0003240:	00f86833          	or	a6,a6,a5
    c0003244:	00e36733          	or	a4,t1,a4
    c0003248:	00006797          	auipc	a5,0x6
    c000324c:	34878793          	addi	a5,a5,840 # c0009590 <__func__.1237+0x228>
    c0003250:	00006697          	auipc	a3,0x6
    c0003254:	34868693          	addi	a3,a3,840 # c0009598 <__func__.1237+0x230>
    c0003258:	865e                	mv	a2,s7
    c000325a:	00006597          	auipc	a1,0x6
    c000325e:	10e58593          	addi	a1,a1,270 # c0009368 <__func__.1237>
    c0003262:	00006517          	auipc	a0,0x6
    c0003266:	2b650513          	addi	a0,a0,694 # c0009518 <__func__.1237+0x1b0>
    c000326a:	6e5010ef          	jal	ra,c000514e <sbi_printf>
    c000326e:	09994783          	lbu	a5,153(s2)
    c0003272:	09194703          	lbu	a4,145(s2)
    c0003276:	09894603          	lbu	a2,152(s2)
    c000327a:	09094683          	lbu	a3,144(s2)
    c000327e:	09a94e03          	lbu	t3,154(s2)
    c0003282:	09294303          	lbu	t1,146(s2)
    c0003286:	09b94883          	lbu	a7,155(s2)
    c000328a:	09394803          	lbu	a6,147(s2)
    c000328e:	09c94503          	lbu	a0,156(s2)
    c0003292:	09494583          	lbu	a1,148(s2)
    c0003296:	07a2                	slli	a5,a5,0x8
    c0003298:	0722                	slli	a4,a4,0x8
    c000329a:	8fd1                	or	a5,a5,a2
    c000329c:	8f55                	or	a4,a4,a3
    c000329e:	09d94603          	lbu	a2,157(s2)
    c00032a2:	09594683          	lbu	a3,149(s2)
    c00032a6:	0e42                	slli	t3,t3,0x10
    c00032a8:	0342                	slli	t1,t1,0x10
    c00032aa:	00fe6e33          	or	t3,t3,a5
    c00032ae:	00e36333          	or	t1,t1,a4
    c00032b2:	09e94783          	lbu	a5,158(s2)
    c00032b6:	09694703          	lbu	a4,150(s2)
    c00032ba:	08e2                	slli	a7,a7,0x18
    c00032bc:	0862                	slli	a6,a6,0x18
    c00032be:	01c8e8b3          	or	a7,a7,t3
    c00032c2:	00686833          	or	a6,a6,t1
    c00032c6:	09f94e03          	lbu	t3,159(s2)
    c00032ca:	09794303          	lbu	t1,151(s2)
    c00032ce:	1502                	slli	a0,a0,0x20
    c00032d0:	1582                	slli	a1,a1,0x20
    c00032d2:	01156533          	or	a0,a0,a7
    c00032d6:	0105e5b3          	or	a1,a1,a6
    c00032da:	1622                	slli	a2,a2,0x28
    c00032dc:	16a2                	slli	a3,a3,0x28
    c00032de:	8e49                	or	a2,a2,a0
    c00032e0:	8ecd                	or	a3,a3,a1
    c00032e2:	17c2                	slli	a5,a5,0x30
    c00032e4:	1742                	slli	a4,a4,0x30
    c00032e6:	8fd1                	or	a5,a5,a2
    c00032e8:	038e1813          	slli	a6,t3,0x38
    c00032ec:	1362                	slli	t1,t1,0x38
    c00032ee:	8f55                	or	a4,a4,a3
    c00032f0:	00f86833          	or	a6,a6,a5
    c00032f4:	00e36733          	or	a4,t1,a4
    c00032f8:	00006797          	auipc	a5,0x6
    c00032fc:	2a878793          	addi	a5,a5,680 # c00095a0 <__func__.1237+0x238>
    c0003300:	00006697          	auipc	a3,0x6
    c0003304:	2a868693          	addi	a3,a3,680 # c00095a8 <__func__.1237+0x240>
    c0003308:	865e                	mv	a2,s7
    c000330a:	00006597          	auipc	a1,0x6
    c000330e:	05e58593          	addi	a1,a1,94 # c0009368 <__func__.1237>
    c0003312:	00006517          	auipc	a0,0x6
    c0003316:	20650513          	addi	a0,a0,518 # c0009518 <__func__.1237+0x1b0>
    c000331a:	635010ef          	jal	ra,c000514e <sbi_printf>
    c000331e:	0a994783          	lbu	a5,169(s2)
    c0003322:	0a194703          	lbu	a4,161(s2)
    c0003326:	0a894603          	lbu	a2,168(s2)
    c000332a:	0a094683          	lbu	a3,160(s2)
    c000332e:	0aa94e03          	lbu	t3,170(s2)
    c0003332:	0a294303          	lbu	t1,162(s2)
    c0003336:	0ab94883          	lbu	a7,171(s2)
    c000333a:	0a394803          	lbu	a6,163(s2)
    c000333e:	0ac94503          	lbu	a0,172(s2)
    c0003342:	0a494583          	lbu	a1,164(s2)
    c0003346:	07a2                	slli	a5,a5,0x8
    c0003348:	0722                	slli	a4,a4,0x8
    c000334a:	8fd1                	or	a5,a5,a2
    c000334c:	8f55                	or	a4,a4,a3
    c000334e:	0ad94603          	lbu	a2,173(s2)
    c0003352:	0a594683          	lbu	a3,165(s2)
    c0003356:	0e42                	slli	t3,t3,0x10
    c0003358:	0342                	slli	t1,t1,0x10
    c000335a:	00fe6e33          	or	t3,t3,a5
    c000335e:	00e36333          	or	t1,t1,a4
    c0003362:	0ae94783          	lbu	a5,174(s2)
    c0003366:	0a694703          	lbu	a4,166(s2)
    c000336a:	08e2                	slli	a7,a7,0x18
    c000336c:	0862                	slli	a6,a6,0x18
    c000336e:	01c8e8b3          	or	a7,a7,t3
    c0003372:	00686833          	or	a6,a6,t1
    c0003376:	0af94e03          	lbu	t3,175(s2)
    c000337a:	0a794303          	lbu	t1,167(s2)
    c000337e:	1502                	slli	a0,a0,0x20
    c0003380:	1582                	slli	a1,a1,0x20
    c0003382:	01156533          	or	a0,a0,a7
    c0003386:	0105e5b3          	or	a1,a1,a6
    c000338a:	1622                	slli	a2,a2,0x28
    c000338c:	16a2                	slli	a3,a3,0x28
    c000338e:	8e49                	or	a2,a2,a0
    c0003390:	8ecd                	or	a3,a3,a1
    c0003392:	17c2                	slli	a5,a5,0x30
    c0003394:	1742                	slli	a4,a4,0x30
    c0003396:	8fd1                	or	a5,a5,a2
    c0003398:	038e1813          	slli	a6,t3,0x38
    c000339c:	1362                	slli	t1,t1,0x38
    c000339e:	8f55                	or	a4,a4,a3
    c00033a0:	00f86833          	or	a6,a6,a5
    c00033a4:	00e36733          	or	a4,t1,a4
    c00033a8:	00006797          	auipc	a5,0x6
    c00033ac:	20878793          	addi	a5,a5,520 # c00095b0 <__func__.1237+0x248>
    c00033b0:	00006697          	auipc	a3,0x6
    c00033b4:	20868693          	addi	a3,a3,520 # c00095b8 <__func__.1237+0x250>
    c00033b8:	865e                	mv	a2,s7
    c00033ba:	00006597          	auipc	a1,0x6
    c00033be:	fae58593          	addi	a1,a1,-82 # c0009368 <__func__.1237>
    c00033c2:	00006517          	auipc	a0,0x6
    c00033c6:	15650513          	addi	a0,a0,342 # c0009518 <__func__.1237+0x1b0>
    c00033ca:	585010ef          	jal	ra,c000514e <sbi_printf>
    c00033ce:	0b994783          	lbu	a5,185(s2)
    c00033d2:	0b194703          	lbu	a4,177(s2)
    c00033d6:	0b894603          	lbu	a2,184(s2)
    c00033da:	0b094683          	lbu	a3,176(s2)
    c00033de:	0ba94e03          	lbu	t3,186(s2)
    c00033e2:	0b294303          	lbu	t1,178(s2)
    c00033e6:	0bb94883          	lbu	a7,187(s2)
    c00033ea:	0b394803          	lbu	a6,179(s2)
    c00033ee:	0bc94503          	lbu	a0,188(s2)
    c00033f2:	0b494583          	lbu	a1,180(s2)
    c00033f6:	07a2                	slli	a5,a5,0x8
    c00033f8:	0722                	slli	a4,a4,0x8
    c00033fa:	8fd1                	or	a5,a5,a2
    c00033fc:	8f55                	or	a4,a4,a3
    c00033fe:	0bd94603          	lbu	a2,189(s2)
    c0003402:	0b594683          	lbu	a3,181(s2)
    c0003406:	0e42                	slli	t3,t3,0x10
    c0003408:	0342                	slli	t1,t1,0x10
    c000340a:	00fe6e33          	or	t3,t3,a5
    c000340e:	00e36333          	or	t1,t1,a4
    c0003412:	0be94783          	lbu	a5,190(s2)
    c0003416:	0b694703          	lbu	a4,182(s2)
    c000341a:	08e2                	slli	a7,a7,0x18
    c000341c:	0862                	slli	a6,a6,0x18
    c000341e:	01c8e8b3          	or	a7,a7,t3
    c0003422:	00686833          	or	a6,a6,t1
    c0003426:	0bf94e03          	lbu	t3,191(s2)
    c000342a:	0b794303          	lbu	t1,183(s2)
    c000342e:	1502                	slli	a0,a0,0x20
    c0003430:	1582                	slli	a1,a1,0x20
    c0003432:	01156533          	or	a0,a0,a7
    c0003436:	0105e5b3          	or	a1,a1,a6
    c000343a:	1622                	slli	a2,a2,0x28
    c000343c:	16a2                	slli	a3,a3,0x28
    c000343e:	8e49                	or	a2,a2,a0
    c0003440:	8ecd                	or	a3,a3,a1
    c0003442:	17c2                	slli	a5,a5,0x30
    c0003444:	1742                	slli	a4,a4,0x30
    c0003446:	8fd1                	or	a5,a5,a2
    c0003448:	038e1813          	slli	a6,t3,0x38
    c000344c:	1362                	slli	t1,t1,0x38
    c000344e:	8f55                	or	a4,a4,a3
    c0003450:	00f86833          	or	a6,a6,a5
    c0003454:	00e36733          	or	a4,t1,a4
    c0003458:	00006797          	auipc	a5,0x6
    c000345c:	16878793          	addi	a5,a5,360 # c00095c0 <__func__.1237+0x258>
    c0003460:	00006697          	auipc	a3,0x6
    c0003464:	16868693          	addi	a3,a3,360 # c00095c8 <__func__.1237+0x260>
    c0003468:	865e                	mv	a2,s7
    c000346a:	00006597          	auipc	a1,0x6
    c000346e:	efe58593          	addi	a1,a1,-258 # c0009368 <__func__.1237>
    c0003472:	00006517          	auipc	a0,0x6
    c0003476:	0a650513          	addi	a0,a0,166 # c0009518 <__func__.1237+0x1b0>
    c000347a:	4d5010ef          	jal	ra,c000514e <sbi_printf>
    c000347e:	0c994783          	lbu	a5,201(s2)
    c0003482:	0c194703          	lbu	a4,193(s2)
    c0003486:	0c894603          	lbu	a2,200(s2)
    c000348a:	0c094683          	lbu	a3,192(s2)
    c000348e:	0ca94e03          	lbu	t3,202(s2)
    c0003492:	0c294303          	lbu	t1,194(s2)
    c0003496:	0cb94883          	lbu	a7,203(s2)
    c000349a:	0c394803          	lbu	a6,195(s2)
    c000349e:	0cc94503          	lbu	a0,204(s2)
    c00034a2:	0c494583          	lbu	a1,196(s2)
    c00034a6:	07a2                	slli	a5,a5,0x8
    c00034a8:	0722                	slli	a4,a4,0x8
    c00034aa:	8fd1                	or	a5,a5,a2
    c00034ac:	8f55                	or	a4,a4,a3
    c00034ae:	0cd94603          	lbu	a2,205(s2)
    c00034b2:	0c594683          	lbu	a3,197(s2)
    c00034b6:	0e42                	slli	t3,t3,0x10
    c00034b8:	0342                	slli	t1,t1,0x10
    c00034ba:	00fe6e33          	or	t3,t3,a5
    c00034be:	00e36333          	or	t1,t1,a4
    c00034c2:	0ce94783          	lbu	a5,206(s2)
    c00034c6:	0c694703          	lbu	a4,198(s2)
    c00034ca:	08e2                	slli	a7,a7,0x18
    c00034cc:	0862                	slli	a6,a6,0x18
    c00034ce:	01c8e8b3          	or	a7,a7,t3
    c00034d2:	00686833          	or	a6,a6,t1
    c00034d6:	0cf94e03          	lbu	t3,207(s2)
    c00034da:	0c794303          	lbu	t1,199(s2)
    c00034de:	1502                	slli	a0,a0,0x20
    c00034e0:	1582                	slli	a1,a1,0x20
    c00034e2:	01156533          	or	a0,a0,a7
    c00034e6:	0105e5b3          	or	a1,a1,a6
    c00034ea:	1622                	slli	a2,a2,0x28
    c00034ec:	16a2                	slli	a3,a3,0x28
    c00034ee:	8e49                	or	a2,a2,a0
    c00034f0:	8ecd                	or	a3,a3,a1
    c00034f2:	17c2                	slli	a5,a5,0x30
    c00034f4:	1742                	slli	a4,a4,0x30
    c00034f6:	8fd1                	or	a5,a5,a2
    c00034f8:	038e1813          	slli	a6,t3,0x38
    c00034fc:	1362                	slli	t1,t1,0x38
    c00034fe:	8f55                	or	a4,a4,a3
    c0003500:	00f86833          	or	a6,a6,a5
    c0003504:	00e36733          	or	a4,t1,a4
    c0003508:	00006797          	auipc	a5,0x6
    c000350c:	0c878793          	addi	a5,a5,200 # c00095d0 <__func__.1237+0x268>
    c0003510:	00006697          	auipc	a3,0x6
    c0003514:	0c868693          	addi	a3,a3,200 # c00095d8 <__func__.1237+0x270>
    c0003518:	865e                	mv	a2,s7
    c000351a:	00006597          	auipc	a1,0x6
    c000351e:	e4e58593          	addi	a1,a1,-434 # c0009368 <__func__.1237>
    c0003522:	00006517          	auipc	a0,0x6
    c0003526:	ff650513          	addi	a0,a0,-10 # c0009518 <__func__.1237+0x1b0>
    c000352a:	425010ef          	jal	ra,c000514e <sbi_printf>
    c000352e:	0d994783          	lbu	a5,217(s2)
    c0003532:	0d194703          	lbu	a4,209(s2)
    c0003536:	0d894603          	lbu	a2,216(s2)
    c000353a:	0d094683          	lbu	a3,208(s2)
    c000353e:	0da94e03          	lbu	t3,218(s2)
    c0003542:	0d294303          	lbu	t1,210(s2)
    c0003546:	0db94883          	lbu	a7,219(s2)
    c000354a:	0d394803          	lbu	a6,211(s2)
    c000354e:	0dc94503          	lbu	a0,220(s2)
    c0003552:	0d494583          	lbu	a1,212(s2)
    c0003556:	07a2                	slli	a5,a5,0x8
    c0003558:	0722                	slli	a4,a4,0x8
    c000355a:	8fd1                	or	a5,a5,a2
    c000355c:	8f55                	or	a4,a4,a3
    c000355e:	0dd94603          	lbu	a2,221(s2)
    c0003562:	0d594683          	lbu	a3,213(s2)
    c0003566:	0e42                	slli	t3,t3,0x10
    c0003568:	0342                	slli	t1,t1,0x10
    c000356a:	00fe6e33          	or	t3,t3,a5
    c000356e:	00e36333          	or	t1,t1,a4
    c0003572:	0de94783          	lbu	a5,222(s2)
    c0003576:	0d694703          	lbu	a4,214(s2)
    c000357a:	08e2                	slli	a7,a7,0x18
    c000357c:	0862                	slli	a6,a6,0x18
    c000357e:	01c8e8b3          	or	a7,a7,t3
    c0003582:	00686833          	or	a6,a6,t1
    c0003586:	0df94e03          	lbu	t3,223(s2)
    c000358a:	0d794303          	lbu	t1,215(s2)
    c000358e:	1502                	slli	a0,a0,0x20
    c0003590:	1582                	slli	a1,a1,0x20
    c0003592:	01156533          	or	a0,a0,a7
    c0003596:	0105e5b3          	or	a1,a1,a6
    c000359a:	1622                	slli	a2,a2,0x28
    c000359c:	16a2                	slli	a3,a3,0x28
    c000359e:	8e49                	or	a2,a2,a0
    c00035a0:	8ecd                	or	a3,a3,a1
    c00035a2:	17c2                	slli	a5,a5,0x30
    c00035a4:	1742                	slli	a4,a4,0x30
    c00035a6:	8fd1                	or	a5,a5,a2
    c00035a8:	038e1813          	slli	a6,t3,0x38
    c00035ac:	1362                	slli	t1,t1,0x38
    c00035ae:	8f55                	or	a4,a4,a3
    c00035b0:	00f86833          	or	a6,a6,a5
    c00035b4:	00e36733          	or	a4,t1,a4
    c00035b8:	00006797          	auipc	a5,0x6
    c00035bc:	02878793          	addi	a5,a5,40 # c00095e0 <__func__.1237+0x278>
    c00035c0:	00006697          	auipc	a3,0x6
    c00035c4:	02868693          	addi	a3,a3,40 # c00095e8 <__func__.1237+0x280>
    c00035c8:	865e                	mv	a2,s7
    c00035ca:	00006597          	auipc	a1,0x6
    c00035ce:	d9e58593          	addi	a1,a1,-610 # c0009368 <__func__.1237>
    c00035d2:	00006517          	auipc	a0,0x6
    c00035d6:	f4650513          	addi	a0,a0,-186 # c0009518 <__func__.1237+0x1b0>
    c00035da:	375010ef          	jal	ra,c000514e <sbi_printf>
    c00035de:	03194783          	lbu	a5,49(s2)
    c00035e2:	02994703          	lbu	a4,41(s2)
    c00035e6:	03094603          	lbu	a2,48(s2)
    c00035ea:	02894683          	lbu	a3,40(s2)
    c00035ee:	03294e03          	lbu	t3,50(s2)
    c00035f2:	02a94303          	lbu	t1,42(s2)
    c00035f6:	03394883          	lbu	a7,51(s2)
    c00035fa:	02b94803          	lbu	a6,43(s2)
    c00035fe:	03494503          	lbu	a0,52(s2)
    c0003602:	02c94583          	lbu	a1,44(s2)
    c0003606:	07a2                	slli	a5,a5,0x8
    c0003608:	0722                	slli	a4,a4,0x8
    c000360a:	8fd1                	or	a5,a5,a2
    c000360c:	8f55                	or	a4,a4,a3
    c000360e:	03594603          	lbu	a2,53(s2)
    c0003612:	02d94683          	lbu	a3,45(s2)
    c0003616:	0e42                	slli	t3,t3,0x10
    c0003618:	0342                	slli	t1,t1,0x10
    c000361a:	00fe6e33          	or	t3,t3,a5
    c000361e:	00e36333          	or	t1,t1,a4
    c0003622:	03694783          	lbu	a5,54(s2)
    c0003626:	02e94703          	lbu	a4,46(s2)
    c000362a:	08e2                	slli	a7,a7,0x18
    c000362c:	0862                	slli	a6,a6,0x18
    c000362e:	01c8e8b3          	or	a7,a7,t3
    c0003632:	00686833          	or	a6,a6,t1
    c0003636:	03794e03          	lbu	t3,55(s2)
    c000363a:	02f94303          	lbu	t1,47(s2)
    c000363e:	1502                	slli	a0,a0,0x20
    c0003640:	1582                	slli	a1,a1,0x20
    c0003642:	01156533          	or	a0,a0,a7
    c0003646:	0105e5b3          	or	a1,a1,a6
    c000364a:	1622                	slli	a2,a2,0x28
    c000364c:	16a2                	slli	a3,a3,0x28
    c000364e:	8e49                	or	a2,a2,a0
    c0003650:	8ecd                	or	a3,a3,a1
    c0003652:	17c2                	slli	a5,a5,0x30
    c0003654:	1742                	slli	a4,a4,0x30
    c0003656:	8fd1                	or	a5,a5,a2
    c0003658:	038e1813          	slli	a6,t3,0x38
    c000365c:	1362                	slli	t1,t1,0x38
    c000365e:	8f55                	or	a4,a4,a3
    c0003660:	00f86833          	or	a6,a6,a5
    c0003664:	00e36733          	or	a4,t1,a4
    c0003668:	00006797          	auipc	a5,0x6
    c000366c:	f8878793          	addi	a5,a5,-120 # c00095f0 <__func__.1237+0x288>
    c0003670:	00006697          	auipc	a3,0x6
    c0003674:	f8868693          	addi	a3,a3,-120 # c00095f8 <__func__.1237+0x290>
    c0003678:	865e                	mv	a2,s7
    c000367a:	00006597          	auipc	a1,0x6
    c000367e:	cee58593          	addi	a1,a1,-786 # c0009368 <__func__.1237>
    c0003682:	00006517          	auipc	a0,0x6
    c0003686:	e9650513          	addi	a0,a0,-362 # c0009518 <__func__.1237+0x1b0>
    c000368a:	2c5010ef          	jal	ra,c000514e <sbi_printf>
    c000368e:	0e194783          	lbu	a5,225(s2)
    c0003692:	03994703          	lbu	a4,57(s2)
    c0003696:	0e094603          	lbu	a2,224(s2)
    c000369a:	03894683          	lbu	a3,56(s2)
    c000369e:	0e294e03          	lbu	t3,226(s2)
    c00036a2:	03a94303          	lbu	t1,58(s2)
    c00036a6:	0e394883          	lbu	a7,227(s2)
    c00036aa:	03b94803          	lbu	a6,59(s2)
    c00036ae:	0e494503          	lbu	a0,228(s2)
    c00036b2:	03c94583          	lbu	a1,60(s2)
    c00036b6:	07a2                	slli	a5,a5,0x8
    c00036b8:	0722                	slli	a4,a4,0x8
    c00036ba:	8fd1                	or	a5,a5,a2
    c00036bc:	8f55                	or	a4,a4,a3
    c00036be:	0e594603          	lbu	a2,229(s2)
    c00036c2:	03d94683          	lbu	a3,61(s2)
    c00036c6:	0e42                	slli	t3,t3,0x10
    c00036c8:	0342                	slli	t1,t1,0x10
    c00036ca:	00fe6e33          	or	t3,t3,a5
    c00036ce:	00e36333          	or	t1,t1,a4
    c00036d2:	0e694783          	lbu	a5,230(s2)
    c00036d6:	03e94703          	lbu	a4,62(s2)
    c00036da:	08e2                	slli	a7,a7,0x18
    c00036dc:	0862                	slli	a6,a6,0x18
    c00036de:	01c8e8b3          	or	a7,a7,t3
    c00036e2:	00686833          	or	a6,a6,t1
    c00036e6:	0e794e03          	lbu	t3,231(s2)
    c00036ea:	03f94303          	lbu	t1,63(s2)
    c00036ee:	1502                	slli	a0,a0,0x20
    c00036f0:	1582                	slli	a1,a1,0x20
    c00036f2:	01156533          	or	a0,a0,a7
    c00036f6:	0105e5b3          	or	a1,a1,a6
    c00036fa:	1622                	slli	a2,a2,0x28
    c00036fc:	16a2                	slli	a3,a3,0x28
    c00036fe:	8e49                	or	a2,a2,a0
    c0003700:	8ecd                	or	a3,a3,a1
    c0003702:	17c2                	slli	a5,a5,0x30
    c0003704:	1742                	slli	a4,a4,0x30
    c0003706:	8fd1                	or	a5,a5,a2
    c0003708:	038e1813          	slli	a6,t3,0x38
    c000370c:	1362                	slli	t1,t1,0x38
    c000370e:	8f55                	or	a4,a4,a3
    c0003710:	00f86833          	or	a6,a6,a5
    c0003714:	00e36733          	or	a4,t1,a4
    c0003718:	00006797          	auipc	a5,0x6
    c000371c:	ee878793          	addi	a5,a5,-280 # c0009600 <__func__.1237+0x298>
    c0003720:	00006697          	auipc	a3,0x6
    c0003724:	ee868693          	addi	a3,a3,-280 # c0009608 <__func__.1237+0x2a0>
    c0003728:	865e                	mv	a2,s7
    c000372a:	00006597          	auipc	a1,0x6
    c000372e:	c3e58593          	addi	a1,a1,-962 # c0009368 <__func__.1237>
    c0003732:	00006517          	auipc	a0,0x6
    c0003736:	de650513          	addi	a0,a0,-538 # c0009518 <__func__.1237+0x1b0>
    c000373a:	215010ef          	jal	ra,c000514e <sbi_printf>
    c000373e:	0f194783          	lbu	a5,241(s2)
    c0003742:	0e994703          	lbu	a4,233(s2)
    c0003746:	0f094603          	lbu	a2,240(s2)
    c000374a:	0e894683          	lbu	a3,232(s2)
    c000374e:	0f294e03          	lbu	t3,242(s2)
    c0003752:	0ea94303          	lbu	t1,234(s2)
    c0003756:	0f394883          	lbu	a7,243(s2)
    c000375a:	0eb94803          	lbu	a6,235(s2)
    c000375e:	0f494503          	lbu	a0,244(s2)
    c0003762:	0ec94583          	lbu	a1,236(s2)
    c0003766:	07a2                	slli	a5,a5,0x8
    c0003768:	0722                	slli	a4,a4,0x8
    c000376a:	8fd1                	or	a5,a5,a2
    c000376c:	8f55                	or	a4,a4,a3
    c000376e:	0f594603          	lbu	a2,245(s2)
    c0003772:	0ed94683          	lbu	a3,237(s2)
    c0003776:	0e42                	slli	t3,t3,0x10
    c0003778:	0342                	slli	t1,t1,0x10
    c000377a:	00fe6e33          	or	t3,t3,a5
    c000377e:	00e36333          	or	t1,t1,a4
    c0003782:	0f694783          	lbu	a5,246(s2)
    c0003786:	0ee94703          	lbu	a4,238(s2)
    c000378a:	08e2                	slli	a7,a7,0x18
    c000378c:	0862                	slli	a6,a6,0x18
    c000378e:	01c8e8b3          	or	a7,a7,t3
    c0003792:	00686833          	or	a6,a6,t1
    c0003796:	0f794e03          	lbu	t3,247(s2)
    c000379a:	0ef94303          	lbu	t1,239(s2)
    c000379e:	1502                	slli	a0,a0,0x20
    c00037a0:	1582                	slli	a1,a1,0x20
    c00037a2:	01156533          	or	a0,a0,a7
    c00037a6:	0105e5b3          	or	a1,a1,a6
    c00037aa:	1622                	slli	a2,a2,0x28
    c00037ac:	16a2                	slli	a3,a3,0x28
    c00037ae:	8e49                	or	a2,a2,a0
    c00037b0:	8ecd                	or	a3,a3,a1
    c00037b2:	17c2                	slli	a5,a5,0x30
    c00037b4:	1742                	slli	a4,a4,0x30
    c00037b6:	8fd1                	or	a5,a5,a2
    c00037b8:	038e1813          	slli	a6,t3,0x38
    c00037bc:	1362                	slli	t1,t1,0x38
    c00037be:	8f55                	or	a4,a4,a3
    c00037c0:	00f86833          	or	a6,a6,a5
    c00037c4:	00e36733          	or	a4,t1,a4
    c00037c8:	00006797          	auipc	a5,0x6
    c00037cc:	e4878793          	addi	a5,a5,-440 # c0009610 <__func__.1237+0x2a8>
    c00037d0:	00006697          	auipc	a3,0x6
    c00037d4:	e4868693          	addi	a3,a3,-440 # c0009618 <__func__.1237+0x2b0>
    c00037d8:	865e                	mv	a2,s7
    c00037da:	00006597          	auipc	a1,0x6
    c00037de:	b8e58593          	addi	a1,a1,-1138 # c0009368 <__func__.1237>
    c00037e2:	00006517          	auipc	a0,0x6
    c00037e6:	d3650513          	addi	a0,a0,-714 # c0009518 <__func__.1237+0x1b0>
    c00037ea:	165010ef          	jal	ra,c000514e <sbi_printf>
    c00037ee:	0f994783          	lbu	a5,249(s2)
    c00037f2:	0f894703          	lbu	a4,248(s2)
    c00037f6:	0fa94583          	lbu	a1,250(s2)
    c00037fa:	0fb94603          	lbu	a2,251(s2)
    c00037fe:	07a2                	slli	a5,a5,0x8
    c0003800:	0fc94683          	lbu	a3,252(s2)
    c0003804:	8fd9                	or	a5,a5,a4
    c0003806:	05c2                	slli	a1,a1,0x10
    c0003808:	0fd94703          	lbu	a4,253(s2)
    c000380c:	8ddd                	or	a1,a1,a5
    c000380e:	0662                	slli	a2,a2,0x18
    c0003810:	0fe94783          	lbu	a5,254(s2)
    c0003814:	8e4d                	or	a2,a2,a1
    c0003816:	1682                	slli	a3,a3,0x20
    c0003818:	0ff94583          	lbu	a1,255(s2)
    c000381c:	8ed1                	or	a3,a3,a2
    c000381e:	1722                	slli	a4,a4,0x28
    c0003820:	8f55                	or	a4,a4,a3
    c0003822:	17c2                	slli	a5,a5,0x30
    c0003824:	8fd9                	or	a5,a5,a4
    c0003826:	03859713          	slli	a4,a1,0x38
    c000382a:	8f5d                	or	a4,a4,a5
    c000382c:	00006697          	auipc	a3,0x6
    c0003830:	df468693          	addi	a3,a3,-524 # c0009620 <__func__.1237+0x2b8>
    c0003834:	865e                	mv	a2,s7
    c0003836:	00006597          	auipc	a1,0x6
    c000383a:	b3258593          	addi	a1,a1,-1230 # c0009368 <__func__.1237>
    c000383e:	00006517          	auipc	a0,0x6
    c0003842:	dea50513          	addi	a0,a0,-534 # c0009628 <__func__.1237+0x2c0>
    c0003846:	109010ef          	jal	ra,c000514e <sbi_printf>
    c000384a:	2f8030ef          	jal	ra,c0006b42 <sbi_hart_hang>
    c000384e:	86e2                	mv	a3,s8
    c0003850:	864a                	mv	a2,s2
    c0003852:	85a6                	mv	a1,s1
    c0003854:	855e                	mv	a0,s7
    c0003856:	18c020ef          	jal	ra,c00059e2 <sbi_ecall_handler>
    c000385a:	00006697          	auipc	a3,0x6
    c000385e:	b9e68693          	addi	a3,a3,-1122 # c00093f8 <__func__.1237+0x90>
    c0003862:	c2050f63          	beqz	a0,c0002ca0 <sbi_trap_handler+0x80>
    c0003866:	c5cff06f          	j	c0002cc2 <sbi_trap_handler+0xa2>
    c000386a:	86ca                	mv	a3,s2
    c000386c:	8762                	mv	a4,s8
    c000386e:	865a                	mv	a2,s6
    c0003870:	4589                	li	a1,2
    c0003872:	855e                	mv	a0,s7
    c0003874:	243030ef          	jal	ra,c00072b6 <sbi_illegal_insn_handler>
    c0003878:	00006697          	auipc	a3,0x6
    c000387c:	b1868693          	addi	a3,a3,-1256 # c0009390 <__func__.1237+0x28>
    c0003880:	c2050063          	beqz	a0,c0002ca0 <sbi_trap_handler+0x80>
    c0003884:	c3eff06f          	j	c0002cc2 <sbi_trap_handler+0xa2>
    c0003888:	86d2                	mv	a3,s4
    c000388a:	8862                	mv	a6,s8
    c000388c:	87ca                	mv	a5,s2
    c000388e:	8756                	mv	a4,s5
    c0003890:	865a                	mv	a2,s6
    c0003892:	4591                	li	a1,4
    c0003894:	855e                	mv	a0,s7
    c0003896:	39b030ef          	jal	ra,c0007430 <sbi_misaligned_load_handler>
    c000389a:	00006697          	auipc	a3,0x6
    c000389e:	b1e68693          	addi	a3,a3,-1250 # c00093b8 <__func__.1237+0x50>
    c00038a2:	be050f63          	beqz	a0,c0002ca0 <sbi_trap_handler+0x80>
    c00038a6:	c1cff06f          	j	c0002cc2 <sbi_trap_handler+0xa2>
    c00038aa:	8562                	mv	a0,s8
    c00038ac:	256030ef          	jal	ra,c0006b02 <sbi_hart_get_trap_info>
    c00038b0:	10a94783          	lbu	a5,266(s2)
    c00038b4:	8385                	srli	a5,a5,0x1
    c00038b6:	8b85                	andi	a5,a5,1
    c00038b8:	12078463          	beqz	a5,c00039e0 <sbi_trap_handler+0xdc0>
    c00038bc:	10194703          	lbu	a4,257(s2)
    c00038c0:	10094683          	lbu	a3,256(s2)
    c00038c4:	10294783          	lbu	a5,258(s2)
    c00038c8:	10394583          	lbu	a1,259(s2)
    c00038cc:	0722                	slli	a4,a4,0x8
    c00038ce:	10494603          	lbu	a2,260(s2)
    c00038d2:	8f55                	or	a4,a4,a3
    c00038d4:	07c2                	slli	a5,a5,0x10
    c00038d6:	10594683          	lbu	a3,261(s2)
    c00038da:	8fd9                	or	a5,a5,a4
    c00038dc:	05e2                	slli	a1,a1,0x18
    c00038de:	10694703          	lbu	a4,262(s2)
    c00038e2:	8ddd                	or	a1,a1,a5
    c00038e4:	1602                	slli	a2,a2,0x20
    c00038e6:	10794783          	lbu	a5,263(s2)
    c00038ea:	8e4d                	or	a2,a2,a1
    c00038ec:	16a2                	slli	a3,a3,0x28
    c00038ee:	8ed1                	or	a3,a3,a2
    c00038f0:	1742                	slli	a4,a4,0x30
    c00038f2:	8f55                	or	a4,a4,a3
    c00038f4:	17e2                	slli	a5,a5,0x38
    c00038f6:	8fd9                	or	a5,a5,a4
    c00038f8:	873e                	mv	a4,a5
    c00038fa:	12050163          	beqz	a0,c0003a1c <sbi_trap_handler+0xdfc>
    c00038fe:	00478713          	addi	a4,a5,4
    c0003902:	e11c                	sd	a5,0(a0)
    c0003904:	00875313          	srli	t1,a4,0x8
    c0003908:	01075893          	srli	a7,a4,0x10
    c000390c:	0187581b          	srliw	a6,a4,0x18
    c0003910:	02075593          	srli	a1,a4,0x20
    c0003914:	02875613          	srli	a2,a4,0x28
    c0003918:	03075693          	srli	a3,a4,0x30
    c000391c:	03875793          	srli	a5,a4,0x38
    c0003920:	10e90023          	sb	a4,256(s2)
    c0003924:	106900a3          	sb	t1,257(s2)
    c0003928:	11190123          	sb	a7,258(s2)
    c000392c:	110901a3          	sb	a6,259(s2)
    c0003930:	10b90223          	sb	a1,260(s2)
    c0003934:	10c902a3          	sb	a2,261(s2)
    c0003938:	10d90323          	sb	a3,262(s2)
    c000393c:	10f903a3          	sb	a5,263(s2)
    c0003940:	e504                	sd	s1,8(a0)
    c0003942:	01653823          	sd	s6,16(a0)
    c0003946:	01453c23          	sd	s4,24(a0)
    c000394a:	03553023          	sd	s5,32(a0)
    c000394e:	b52ff06f          	j	c0002ca0 <sbi_trap_handler+0x80>
    c0003952:	86d2                	mv	a3,s4
    c0003954:	8862                	mv	a6,s8
    c0003956:	87ca                	mv	a5,s2
    c0003958:	8756                	mv	a4,s5
    c000395a:	865a                	mv	a2,s6
    c000395c:	4599                	li	a1,6
    c000395e:	855e                	mv	a0,s7
    c0003960:	631030ef          	jal	ra,c0007790 <sbi_misaligned_store_handler>
    c0003964:	00006697          	auipc	a3,0x6
    c0003968:	a7468693          	addi	a3,a3,-1420 # c00093d8 <__func__.1237+0x70>
    c000396c:	b2050a63          	beqz	a0,c0002ca0 <sbi_trap_handler+0x80>
    c0003970:	b52ff06f          	j	c0002cc2 <sbi_trap_handler+0xa2>
    c0003974:	10194703          	lbu	a4,257(s2)
    c0003978:	10094683          	lbu	a3,256(s2)
    c000397c:	10294783          	lbu	a5,258(s2)
    c0003980:	10394583          	lbu	a1,259(s2)
    c0003984:	10494603          	lbu	a2,260(s2)
    c0003988:	0722                	slli	a4,a4,0x8
    c000398a:	8f55                	or	a4,a4,a3
    c000398c:	07c2                	slli	a5,a5,0x10
    c000398e:	10594683          	lbu	a3,261(s2)
    c0003992:	8fd9                	or	a5,a5,a4
    c0003994:	05e2                	slli	a1,a1,0x18
    c0003996:	10694703          	lbu	a4,262(s2)
    c000399a:	8ddd                	or	a1,a1,a5
    c000399c:	1602                	slli	a2,a2,0x20
    c000399e:	10794783          	lbu	a5,263(s2)
    c00039a2:	8e4d                	or	a2,a2,a1
    c00039a4:	16a2                	slli	a3,a3,0x28
    c00039a6:	8ed1                	or	a3,a3,a2
    c00039a8:	1742                	slli	a4,a4,0x30
    c00039aa:	8f55                	or	a4,a4,a3
    c00039ac:	17e2                	slli	a5,a5,0x38
    c00039ae:	8fd9                	or	a5,a5,a4
    c00039b0:	8662                	mv	a2,s8
    c00039b2:	f8840593          	addi	a1,s0,-120
    c00039b6:	854a                	mv	a0,s2
    c00039b8:	f8f43423          	sd	a5,-120(s0)
    c00039bc:	f8943823          	sd	s1,-112(s0)
    c00039c0:	f9643c23          	sd	s6,-104(s0)
    c00039c4:	fb443023          	sd	s4,-96(s0)
    c00039c8:	fb543423          	sd	s5,-88(s0)
    c00039cc:	d31fe0ef          	jal	ra,c00026fc <sbi_trap_redirect>
    c00039d0:	00006697          	auipc	a3,0x6
    c00039d4:	9a868693          	addi	a3,a3,-1624 # c0009378 <__func__.1237+0x10>
    c00039d8:	ac050463          	beqz	a0,c0002ca0 <sbi_trap_handler+0x80>
    c00039dc:	ae6ff06f          	j	c0002cc2 <sbi_trap_handler+0xa2>
    c00039e0:	10194783          	lbu	a5,257(s2)
    c00039e4:	10094683          	lbu	a3,256(s2)
    c00039e8:	10294703          	lbu	a4,258(s2)
    c00039ec:	10394583          	lbu	a1,259(s2)
    c00039f0:	07a2                	slli	a5,a5,0x8
    c00039f2:	10494603          	lbu	a2,260(s2)
    c00039f6:	8fd5                	or	a5,a5,a3
    c00039f8:	0742                	slli	a4,a4,0x10
    c00039fa:	10594683          	lbu	a3,261(s2)
    c00039fe:	8f5d                	or	a4,a4,a5
    c0003a00:	05e2                	slli	a1,a1,0x18
    c0003a02:	10694783          	lbu	a5,262(s2)
    c0003a06:	8dd9                	or	a1,a1,a4
    c0003a08:	1602                	slli	a2,a2,0x20
    c0003a0a:	10794703          	lbu	a4,263(s2)
    c0003a0e:	8e4d                	or	a2,a2,a1
    c0003a10:	16a2                	slli	a3,a3,0x28
    c0003a12:	8ed1                	or	a3,a3,a2
    c0003a14:	17c2                	slli	a5,a5,0x30
    c0003a16:	8fd5                	or	a5,a5,a3
    c0003a18:	1762                	slli	a4,a4,0x38
    c0003a1a:	8f5d                	or	a4,a4,a5
    c0003a1c:	8662                	mv	a2,s8
    c0003a1e:	f8840593          	addi	a1,s0,-120
    c0003a22:	854a                	mv	a0,s2
    c0003a24:	f8e43423          	sd	a4,-120(s0)
    c0003a28:	f8943823          	sd	s1,-112(s0)
    c0003a2c:	f9643c23          	sd	s6,-104(s0)
    c0003a30:	fb443023          	sd	s4,-96(s0)
    c0003a34:	fb543423          	sd	s5,-88(s0)
    c0003a38:	cc5fe0ef          	jal	ra,c00026fc <sbi_trap_redirect>
    c0003a3c:	00006697          	auipc	a3,0x6
    c0003a40:	9d468693          	addi	a3,a3,-1580 # c0009410 <__func__.1237+0xa8>
    c0003a44:	a4050e63          	beqz	a0,c0002ca0 <sbi_trap_handler+0x80>
    c0003a48:	a7aff06f          	j	c0002cc2 <sbi_trap_handler+0xa2>
    c0003a4c:	8562                	mv	a0,s8
    c0003a4e:	fa4fd0ef          	jal	ra,c00011f2 <sbi_ipi_process>
    c0003a52:	a4eff06f          	j	c0002ca0 <sbi_trap_handler+0x80>
    c0003a56:	8756                	mv	a4,s5
    c0003a58:	86d2                	mv	a3,s4
    c0003a5a:	865e                	mv	a2,s7
    c0003a5c:	00006597          	auipc	a1,0x6
    c0003a60:	90c58593          	addi	a1,a1,-1780 # c0009368 <__func__.1237>
    c0003a64:	00006517          	auipc	a0,0x6
    c0003a68:	a4450513          	addi	a0,a0,-1468 # c00094a8 <__func__.1237+0x140>
    c0003a6c:	6e2010ef          	jal	ra,c000514e <sbi_printf>
    c0003a70:	a90ff06f          	j	c0002d00 <sbi_trap_handler+0xe0>

00000000c0003a74 <sbi_strcmp>:
    c0003a74:	1141                	addi	sp,sp,-16
    c0003a76:	e422                	sd	s0,8(sp)
    c0003a78:	0800                	addi	s0,sp,16
    c0003a7a:	00054703          	lbu	a4,0(a0)
    c0003a7e:	0005c783          	lbu	a5,0(a1)
    c0003a82:	00e79b63          	bne	a5,a4,c0003a98 <sbi_strcmp+0x24>
    c0003a86:	cf99                	beqz	a5,c0003aa4 <sbi_strcmp+0x30>
    c0003a88:	0505                	addi	a0,a0,1
    c0003a8a:	0585                	addi	a1,a1,1
    c0003a8c:	0005c783          	lbu	a5,0(a1)
    c0003a90:	00054703          	lbu	a4,0(a0)
    c0003a94:	fef709e3          	beq	a4,a5,c0003a86 <sbi_strcmp+0x12>
    c0003a98:	6422                	ld	s0,8(sp)
    c0003a9a:	0007051b          	sext.w	a0,a4
    c0003a9e:	9d1d                	subw	a0,a0,a5
    c0003aa0:	0141                	addi	sp,sp,16
    c0003aa2:	8082                	ret
    c0003aa4:	6422                	ld	s0,8(sp)
    c0003aa6:	4501                	li	a0,0
    c0003aa8:	9d1d                	subw	a0,a0,a5
    c0003aaa:	0141                	addi	sp,sp,16
    c0003aac:	8082                	ret

00000000c0003aae <sbi_strlen>:
    c0003aae:	1141                	addi	sp,sp,-16
    c0003ab0:	e422                	sd	s0,8(sp)
    c0003ab2:	0800                	addi	s0,sp,16
    c0003ab4:	00054783          	lbu	a5,0(a0)
    c0003ab8:	cf81                	beqz	a5,c0003ad0 <sbi_strlen+0x22>
    c0003aba:	4781                	li	a5,0
    c0003abc:	0785                	addi	a5,a5,1
    c0003abe:	00f50733          	add	a4,a0,a5
    c0003ac2:	00074703          	lbu	a4,0(a4)
    c0003ac6:	fb7d                	bnez	a4,c0003abc <sbi_strlen+0xe>
    c0003ac8:	6422                	ld	s0,8(sp)
    c0003aca:	853e                	mv	a0,a5
    c0003acc:	0141                	addi	sp,sp,16
    c0003ace:	8082                	ret
    c0003ad0:	6422                	ld	s0,8(sp)
    c0003ad2:	4781                	li	a5,0
    c0003ad4:	853e                	mv	a0,a5
    c0003ad6:	0141                	addi	sp,sp,16
    c0003ad8:	8082                	ret

00000000c0003ada <sbi_strnlen>:
    c0003ada:	1141                	addi	sp,sp,-16
    c0003adc:	e422                	sd	s0,8(sp)
    c0003ade:	0800                	addi	s0,sp,16
    c0003ae0:	00054783          	lbu	a5,0(a0)
    c0003ae4:	c395                	beqz	a5,c0003b08 <sbi_strnlen+0x2e>
    c0003ae6:	4781                	li	a5,0
    c0003ae8:	e581                	bnez	a1,c0003af0 <sbi_strnlen+0x16>
    c0003aea:	a819                	j	c0003b00 <sbi_strnlen+0x26>
    c0003aec:	00d7fa63          	bgeu	a5,a3,c0003b00 <sbi_strnlen+0x26>
    c0003af0:	0785                	addi	a5,a5,1
    c0003af2:	00f50733          	add	a4,a0,a5
    c0003af6:	00074703          	lbu	a4,0(a4)
    c0003afa:	40f586b3          	sub	a3,a1,a5
    c0003afe:	f77d                	bnez	a4,c0003aec <sbi_strnlen+0x12>
    c0003b00:	6422                	ld	s0,8(sp)
    c0003b02:	853e                	mv	a0,a5
    c0003b04:	0141                	addi	sp,sp,16
    c0003b06:	8082                	ret
    c0003b08:	4781                	li	a5,0
    c0003b0a:	bfdd                	j	c0003b00 <sbi_strnlen+0x26>

00000000c0003b0c <sbi_strcpy>:
    c0003b0c:	1141                	addi	sp,sp,-16
    c0003b0e:	e422                	sd	s0,8(sp)
    c0003b10:	0800                	addi	s0,sp,16
    c0003b12:	0005c783          	lbu	a5,0(a1)
    c0003b16:	cb89                	beqz	a5,c0003b28 <sbi_strcpy+0x1c>
    c0003b18:	872a                	mv	a4,a0
    c0003b1a:	0705                	addi	a4,a4,1
    c0003b1c:	0585                	addi	a1,a1,1
    c0003b1e:	fef70fa3          	sb	a5,-1(a4)
    c0003b22:	0005c783          	lbu	a5,0(a1)
    c0003b26:	fbf5                	bnez	a5,c0003b1a <sbi_strcpy+0xe>
    c0003b28:	6422                	ld	s0,8(sp)
    c0003b2a:	0141                	addi	sp,sp,16
    c0003b2c:	8082                	ret

00000000c0003b2e <sbi_strncpy>:
    c0003b2e:	1141                	addi	sp,sp,-16
    c0003b30:	e422                	sd	s0,8(sp)
    c0003b32:	0800                	addi	s0,sp,16
    c0003b34:	c205                	beqz	a2,c0003b54 <sbi_strncpy+0x26>
    c0003b36:	0005c703          	lbu	a4,0(a1)
    c0003b3a:	cf09                	beqz	a4,c0003b54 <sbi_strncpy+0x26>
    c0003b3c:	962a                	add	a2,a2,a0
    c0003b3e:	87aa                	mv	a5,a0
    c0003b40:	a021                	j	c0003b48 <sbi_strncpy+0x1a>
    c0003b42:	0005c703          	lbu	a4,0(a1)
    c0003b46:	c719                	beqz	a4,c0003b54 <sbi_strncpy+0x26>
    c0003b48:	0785                	addi	a5,a5,1
    c0003b4a:	fee78fa3          	sb	a4,-1(a5)
    c0003b4e:	0585                	addi	a1,a1,1
    c0003b50:	fec799e3          	bne	a5,a2,c0003b42 <sbi_strncpy+0x14>
    c0003b54:	6422                	ld	s0,8(sp)
    c0003b56:	0141                	addi	sp,sp,16
    c0003b58:	8082                	ret

00000000c0003b5a <sbi_strchr>:
    c0003b5a:	1141                	addi	sp,sp,-16
    c0003b5c:	e422                	sd	s0,8(sp)
    c0003b5e:	0800                	addi	s0,sp,16
    c0003b60:	00054783          	lbu	a5,0(a0)
    c0003b64:	cb89                	beqz	a5,c0003b76 <sbi_strchr+0x1c>
    c0003b66:	0ff5f593          	andi	a1,a1,255
    c0003b6a:	00f58763          	beq	a1,a5,c0003b78 <sbi_strchr+0x1e>
    c0003b6e:	0505                	addi	a0,a0,1
    c0003b70:	00054783          	lbu	a5,0(a0)
    c0003b74:	fbfd                	bnez	a5,c0003b6a <sbi_strchr+0x10>
    c0003b76:	4501                	li	a0,0
    c0003b78:	6422                	ld	s0,8(sp)
    c0003b7a:	0141                	addi	sp,sp,16
    c0003b7c:	8082                	ret

00000000c0003b7e <sbi_strrchr>:
    c0003b7e:	1141                	addi	sp,sp,-16
    c0003b80:	e422                	sd	s0,8(sp)
    c0003b82:	0800                	addi	s0,sp,16
    c0003b84:	00054703          	lbu	a4,0(a0)
    c0003b88:	0ff5f593          	andi	a1,a1,255
    c0003b8c:	cb0d                	beqz	a4,c0003bbe <sbi_strrchr+0x40>
    c0003b8e:	4701                	li	a4,0
    c0003b90:	0705                	addi	a4,a4,1
    c0003b92:	00e507b3          	add	a5,a0,a4
    c0003b96:	0007c683          	lbu	a3,0(a5)
    c0003b9a:	fafd                	bnez	a3,c0003b90 <sbi_strrchr+0x12>
    c0003b9c:	8736                	mv	a4,a3
    c0003b9e:	00f57963          	bgeu	a0,a5,c0003bb0 <sbi_strrchr+0x32>
    c0003ba2:	00b70a63          	beq	a4,a1,c0003bb6 <sbi_strrchr+0x38>
    c0003ba6:	17fd                	addi	a5,a5,-1
    c0003ba8:	0007c703          	lbu	a4,0(a5)
    c0003bac:	fef51be3          	bne	a0,a5,c0003ba2 <sbi_strrchr+0x24>
    c0003bb0:	00b70363          	beq	a4,a1,c0003bb6 <sbi_strrchr+0x38>
    c0003bb4:	4781                	li	a5,0
    c0003bb6:	6422                	ld	s0,8(sp)
    c0003bb8:	853e                	mv	a0,a5
    c0003bba:	0141                	addi	sp,sp,16
    c0003bbc:	8082                	ret
    c0003bbe:	87aa                	mv	a5,a0
    c0003bc0:	feb71ae3          	bne	a4,a1,c0003bb4 <sbi_strrchr+0x36>
    c0003bc4:	bfcd                	j	c0003bb6 <sbi_strrchr+0x38>

00000000c0003bc6 <sbi_memset>:
    c0003bc6:	1141                	addi	sp,sp,-16
    c0003bc8:	e422                	sd	s0,8(sp)
    c0003bca:	0800                	addi	s0,sp,16
    c0003bcc:	00c50733          	add	a4,a0,a2
    c0003bd0:	ca09                	beqz	a2,c0003be2 <sbi_memset+0x1c>
    c0003bd2:	0ff5f593          	andi	a1,a1,255
    c0003bd6:	87aa                	mv	a5,a0
    c0003bd8:	0785                	addi	a5,a5,1
    c0003bda:	feb78fa3          	sb	a1,-1(a5)
    c0003bde:	fee79de3          	bne	a5,a4,c0003bd8 <sbi_memset+0x12>
    c0003be2:	6422                	ld	s0,8(sp)
    c0003be4:	0141                	addi	sp,sp,16
    c0003be6:	8082                	ret

00000000c0003be8 <sbi_memcpy>:
    c0003be8:	1141                	addi	sp,sp,-16
    c0003bea:	e422                	sd	s0,8(sp)
    c0003bec:	0800                	addi	s0,sp,16
    c0003bee:	ca19                	beqz	a2,c0003c04 <sbi_memcpy+0x1c>
    c0003bf0:	962a                	add	a2,a2,a0
    c0003bf2:	87aa                	mv	a5,a0
    c0003bf4:	0585                	addi	a1,a1,1
    c0003bf6:	fff5c703          	lbu	a4,-1(a1)
    c0003bfa:	0785                	addi	a5,a5,1
    c0003bfc:	fee78fa3          	sb	a4,-1(a5)
    c0003c00:	fec79ae3          	bne	a5,a2,c0003bf4 <sbi_memcpy+0xc>
    c0003c04:	6422                	ld	s0,8(sp)
    c0003c06:	0141                	addi	sp,sp,16
    c0003c08:	8082                	ret

00000000c0003c0a <sbi_memmove>:
    c0003c0a:	1141                	addi	sp,sp,-16
    c0003c0c:	e422                	sd	s0,8(sp)
    c0003c0e:	0800                	addi	s0,sp,16
    c0003c10:	00b50f63          	beq	a0,a1,c0003c2e <sbi_memmove+0x24>
    c0003c14:	02b57063          	bgeu	a0,a1,c0003c34 <sbi_memmove+0x2a>
    c0003c18:	ca19                	beqz	a2,c0003c2e <sbi_memmove+0x24>
    c0003c1a:	962a                	add	a2,a2,a0
    c0003c1c:	87aa                	mv	a5,a0
    c0003c1e:	0585                	addi	a1,a1,1
    c0003c20:	fff5c703          	lbu	a4,-1(a1)
    c0003c24:	0785                	addi	a5,a5,1
    c0003c26:	fee78fa3          	sb	a4,-1(a5)
    c0003c2a:	fef61ae3          	bne	a2,a5,c0003c1e <sbi_memmove+0x14>
    c0003c2e:	6422                	ld	s0,8(sp)
    c0003c30:	0141                	addi	sp,sp,16
    c0003c32:	8082                	ret
    c0003c34:	fff60713          	addi	a4,a2,-1
    c0003c38:	00e507b3          	add	a5,a0,a4
    c0003c3c:	95ba                	add	a1,a1,a4
    c0003c3e:	da65                	beqz	a2,c0003c2e <sbi_memmove+0x24>
    c0003c40:	fff50693          	addi	a3,a0,-1
    c0003c44:	15fd                	addi	a1,a1,-1
    c0003c46:	0015c703          	lbu	a4,1(a1)
    c0003c4a:	17fd                	addi	a5,a5,-1
    c0003c4c:	00e780a3          	sb	a4,1(a5)
    c0003c50:	fed79ae3          	bne	a5,a3,c0003c44 <sbi_memmove+0x3a>
    c0003c54:	6422                	ld	s0,8(sp)
    c0003c56:	0141                	addi	sp,sp,16
    c0003c58:	8082                	ret

00000000c0003c5a <sbi_memcmp>:
    c0003c5a:	1141                	addi	sp,sp,-16
    c0003c5c:	e422                	sd	s0,8(sp)
    c0003c5e:	0800                	addi	s0,sp,16
    c0003c60:	c21d                	beqz	a2,c0003c86 <sbi_memcmp+0x2c>
    c0003c62:	00054783          	lbu	a5,0(a0)
    c0003c66:	0005c703          	lbu	a4,0(a1)
    c0003c6a:	02f71263          	bne	a4,a5,c0003c8e <sbi_memcmp+0x34>
    c0003c6e:	962a                	add	a2,a2,a0
    c0003c70:	a039                	j	c0003c7e <sbi_memcmp+0x24>
    c0003c72:	00054783          	lbu	a5,0(a0)
    c0003c76:	0005c703          	lbu	a4,0(a1)
    c0003c7a:	00e79a63          	bne	a5,a4,c0003c8e <sbi_memcmp+0x34>
    c0003c7e:	0505                	addi	a0,a0,1
    c0003c80:	0585                	addi	a1,a1,1
    c0003c82:	fec518e3          	bne	a0,a2,c0003c72 <sbi_memcmp+0x18>
    c0003c86:	6422                	ld	s0,8(sp)
    c0003c88:	4501                	li	a0,0
    c0003c8a:	0141                	addi	sp,sp,16
    c0003c8c:	8082                	ret
    c0003c8e:	6422                	ld	s0,8(sp)
    c0003c90:	40e7853b          	subw	a0,a5,a4
    c0003c94:	0141                	addi	sp,sp,16
    c0003c96:	8082                	ret

00000000c0003c98 <sbi_memchr>:
    c0003c98:	1141                	addi	sp,sp,-16
    c0003c9a:	e422                	sd	s0,8(sp)
    c0003c9c:	0800                	addi	s0,sp,16
    c0003c9e:	c605                	beqz	a2,c0003cc6 <sbi_memchr+0x2e>
    c0003ca0:	00054703          	lbu	a4,0(a0)
    c0003ca4:	0ff5f593          	andi	a1,a1,255
    c0003ca8:	00150793          	addi	a5,a0,1
    c0003cac:	02b70263          	beq	a4,a1,c0003cd0 <sbi_memchr+0x38>
    c0003cb0:	962a                	add	a2,a2,a0
    c0003cb2:	a031                	j	c0003cbe <sbi_memchr+0x26>
    c0003cb4:	fff74683          	lbu	a3,-1(a4)
    c0003cb8:	00b68863          	beq	a3,a1,c0003cc8 <sbi_memchr+0x30>
    c0003cbc:	87ba                	mv	a5,a4
    c0003cbe:	00178713          	addi	a4,a5,1
    c0003cc2:	fef619e3          	bne	a2,a5,c0003cb4 <sbi_memchr+0x1c>
    c0003cc6:	4781                	li	a5,0
    c0003cc8:	6422                	ld	s0,8(sp)
    c0003cca:	853e                	mv	a0,a5
    c0003ccc:	0141                	addi	sp,sp,16
    c0003cce:	8082                	ret
    c0003cd0:	87aa                	mv	a5,a0
    c0003cd2:	bfdd                	j	c0003cc8 <sbi_memchr+0x30>

00000000c0003cd4 <c910_final_init>:
    c0003cd4:	1141                	addi	sp,sp,-16
    c0003cd6:	e422                	sd	s0,8(sp)
    c0003cd8:	0800                	addi	s0,sp,16
    c0003cda:	302027f3          	csrr	a5,medeleg
    c0003cde:	0ff7e793          	ori	a5,a5,255
    c0003ce2:	30279073          	csrw	medeleg,a5
    c0003ce6:	6422                	ld	s0,8(sp)
    c0003ce8:	4501                	li	a0,0
    c0003cea:	0141                	addi	sp,sp,16
    c0003cec:	8082                	ret

00000000c0003cee <c910_irqchip_init>:
    c0003cee:	1141                	addi	sp,sp,-16
    c0003cf0:	e422                	sd	s0,8(sp)
    c0003cf2:	0800                	addi	s0,sp,16
    c0003cf4:	0140000f          	fence	w,o
    c0003cf8:	00007797          	auipc	a5,0x7
    c0003cfc:	35078793          	addi	a5,a5,848 # c000b048 <c910_regs>
    c0003d00:	7bbc                	ld	a5,112(a5)
    c0003d02:	00200737          	lui	a4,0x200
    c0003d06:	1771                	addi	a4,a4,-4
    c0003d08:	97ba                	add	a5,a5,a4
    c0003d0a:	4705                	li	a4,1
    c0003d0c:	c398                	sw	a4,0(a5)
    c0003d0e:	6422                	ld	s0,8(sp)
    c0003d10:	4501                	li	a0,0
    c0003d12:	0141                	addi	sp,sp,16
    c0003d14:	8082                	ret

00000000c0003d16 <c910_system_shutdown>:
    c0003d16:	1141                	addi	sp,sp,-16
    c0003d18:	e422                	sd	s0,8(sp)
    c0003d1a:	0800                	addi	s0,sp,16
    c0003d1c:	9002                	ebreak
    c0003d1e:	6422                	ld	s0,8(sp)
    c0003d20:	4501                	li	a0,0
    c0003d22:	0141                	addi	sp,sp,16
    c0003d24:	8082                	ret

00000000c0003d26 <c910_timer_init>:
    c0003d26:	1141                	addi	sp,sp,-16
    c0003d28:	e022                	sd	s0,0(sp)
    c0003d2a:	e406                	sd	ra,8(sp)
    c0003d2c:	0800                	addi	s0,sp,16
    c0003d2e:	c919                	beqz	a0,c0003d44 <c910_timer_init+0x1e>
    c0003d30:	00007797          	auipc	a5,0x7
    c0003d34:	31878793          	addi	a5,a5,792 # c000b048 <c910_regs>
    c0003d38:	7fa8                	ld	a0,120(a5)
    c0003d3a:	4601                	li	a2,0
    c0003d3c:	45c1                	li	a1,16
    c0003d3e:	422040ef          	jal	ra,c0008160 <clint_cold_timer_init>
    c0003d42:	e119                	bnez	a0,c0003d48 <c910_timer_init+0x22>
    c0003d44:	3d6040ef          	jal	ra,c000811a <clint_warm_timer_init>
    c0003d48:	60a2                	ld	ra,8(sp)
    c0003d4a:	6402                	ld	s0,0(sp)
    c0003d4c:	0141                	addi	sp,sp,16
    c0003d4e:	8082                	ret

00000000c0003d50 <c910_ipi_init>:
    c0003d50:	1141                	addi	sp,sp,-16
    c0003d52:	e022                	sd	s0,0(sp)
    c0003d54:	e406                	sd	ra,8(sp)
    c0003d56:	0800                	addi	s0,sp,16
    c0003d58:	c911                	beqz	a0,c0003d6c <c910_ipi_init+0x1c>
    c0003d5a:	00007797          	auipc	a5,0x7
    c0003d5e:	2ee78793          	addi	a5,a5,750 # c000b048 <c910_regs>
    c0003d62:	7fa8                	ld	a0,120(a5)
    c0003d64:	45c1                	li	a1,16
    c0003d66:	2f4040ef          	jal	ra,c000805a <clint_cold_ipi_init>
    c0003d6a:	e119                	bnez	a0,c0003d70 <c910_ipi_init+0x20>
    c0003d6c:	2ae040ef          	jal	ra,c000801a <clint_warm_ipi_init>
    c0003d70:	60a2                	ld	ra,8(sp)
    c0003d72:	6402                	ld	s0,0(sp)
    c0003d74:	0141                	addi	sp,sp,16
    c0003d76:	8082                	ret

00000000c0003d78 <c910_console_init>:
    c0003d78:	1141                	addi	sp,sp,-16
    c0003d7a:	e022                	sd	s0,0(sp)
    c0003d7c:	e406                	sd	ra,8(sp)
    c0003d7e:	0800                	addi	s0,sp,16
    c0003d80:	6671                	lui	a2,0x1c
    c0003d82:	01c9c5b7          	lui	a1,0x1c9c
    c0003d86:	4711                	li	a4,4
    c0003d88:	4689                	li	a3,2
    c0003d8a:	20060613          	addi	a2,a2,512 # 1c200 <_fw_start-0xbffe3e00>
    c0003d8e:	38058593          	addi	a1,a1,896 # 1c9c380 <_fw_start-0xbe363c80>
    c0003d92:	1fba4537          	lui	a0,0x1fba4
    c0003d96:	530040ef          	jal	ra,c00082c6 <uart8250_init>
    c0003d9a:	60a2                	ld	ra,8(sp)
    c0003d9c:	6402                	ld	s0,0(sp)
    c0003d9e:	0141                	addi	sp,sp,16
    c0003da0:	8082                	ret

00000000c0003da2 <c910_early_init>:
    c0003da2:	1141                	addi	sp,sp,-16
    c0003da4:	e422                	sd	s0,8(sp)
    c0003da6:	0800                	addi	s0,sp,16
    c0003da8:	c571                	beqz	a0,c0003e74 <c910_early_init+0xd2>
    c0003daa:	3b0027f3          	csrr	a5,pmpaddr0
    c0003dae:	00007717          	auipc	a4,0x7
    c0003db2:	28f73d23          	sd	a5,666(a4) # c000b048 <c910_regs>
    c0003db6:	3b1027f3          	csrr	a5,pmpaddr1
    c0003dba:	00007717          	auipc	a4,0x7
    c0003dbe:	28f73b23          	sd	a5,662(a4) # c000b050 <c910_regs+0x8>
    c0003dc2:	3b2027f3          	csrr	a5,pmpaddr2
    c0003dc6:	00007717          	auipc	a4,0x7
    c0003dca:	28f73923          	sd	a5,658(a4) # c000b058 <c910_regs+0x10>
    c0003dce:	3b3027f3          	csrr	a5,pmpaddr3
    c0003dd2:	00007717          	auipc	a4,0x7
    c0003dd6:	28f73723          	sd	a5,654(a4) # c000b060 <c910_regs+0x18>
    c0003dda:	3b4027f3          	csrr	a5,pmpaddr4
    c0003dde:	00007717          	auipc	a4,0x7
    c0003de2:	28f73523          	sd	a5,650(a4) # c000b068 <c910_regs+0x20>
    c0003de6:	3b5027f3          	csrr	a5,pmpaddr5
    c0003dea:	00007717          	auipc	a4,0x7
    c0003dee:	28f73323          	sd	a5,646(a4) # c000b070 <c910_regs+0x28>
    c0003df2:	3b6027f3          	csrr	a5,pmpaddr6
    c0003df6:	00007717          	auipc	a4,0x7
    c0003dfa:	28f73123          	sd	a5,642(a4) # c000b078 <c910_regs+0x30>
    c0003dfe:	3b7027f3          	csrr	a5,pmpaddr7
    c0003e02:	00007717          	auipc	a4,0x7
    c0003e06:	26f73f23          	sd	a5,638(a4) # c000b080 <c910_regs+0x38>
    c0003e0a:	3a0027f3          	csrr	a5,pmpcfg0
    c0003e0e:	00007717          	auipc	a4,0x7
    c0003e12:	26f73d23          	sd	a5,634(a4) # c000b088 <c910_regs+0x40>
    c0003e16:	7c2027f3          	csrr	a5,mcor
    c0003e1a:	00007717          	auipc	a4,0x7
    c0003e1e:	26f73b23          	sd	a5,630(a4) # c000b090 <c910_regs+0x48>
    c0003e22:	7c1027f3          	csrr	a5,mhcr
    c0003e26:	00007717          	auipc	a4,0x7
    c0003e2a:	26f73923          	sd	a5,626(a4) # c000b098 <c910_regs+0x50>
    c0003e2e:	7c3027f3          	csrr	a5,mccr2
    c0003e32:	00007717          	auipc	a4,0x7
    c0003e36:	26f73723          	sd	a5,622(a4) # c000b0a0 <c910_regs+0x58>
    c0003e3a:	7c5027f3          	csrr	a5,mhint
    c0003e3e:	00007717          	auipc	a4,0x7
    c0003e42:	26f73523          	sd	a5,618(a4) # c000b0a8 <c910_regs+0x60>
    c0003e46:	7c0027f3          	csrr	a5,mxstatus
    c0003e4a:	00007717          	auipc	a4,0x7
    c0003e4e:	26f73323          	sd	a5,614(a4) # c000b0b0 <c910_regs+0x68>
    c0003e52:	fc102773          	csrr	a4,0xfc1
    c0003e56:	040007b7          	lui	a5,0x4000
    c0003e5a:	6422                	ld	s0,8(sp)
    c0003e5c:	97ba                	add	a5,a5,a4
    c0003e5e:	00007697          	auipc	a3,0x7
    c0003e62:	24e6bd23          	sd	a4,602(a3) # c000b0b8 <c910_regs+0x70>
    c0003e66:	00007717          	auipc	a4,0x7
    c0003e6a:	24f73d23          	sd	a5,602(a4) # c000b0c0 <c910_regs+0x78>
    c0003e6e:	4501                	li	a0,0
    c0003e70:	0141                	addi	sp,sp,16
    c0003e72:	8082                	ret
    c0003e74:	00007797          	auipc	a5,0x7
    c0003e78:	1d478793          	addi	a5,a5,468 # c000b048 <c910_regs>
    c0003e7c:	6398                	ld	a4,0(a5)
    c0003e7e:	3b071073          	csrw	pmpaddr0,a4
    c0003e82:	6798                	ld	a4,8(a5)
    c0003e84:	3b171073          	csrw	pmpaddr1,a4
    c0003e88:	6b98                	ld	a4,16(a5)
    c0003e8a:	3b271073          	csrw	pmpaddr2,a4
    c0003e8e:	6f98                	ld	a4,24(a5)
    c0003e90:	3b371073          	csrw	pmpaddr3,a4
    c0003e94:	7398                	ld	a4,32(a5)
    c0003e96:	3b471073          	csrw	pmpaddr4,a4
    c0003e9a:	7798                	ld	a4,40(a5)
    c0003e9c:	3b571073          	csrw	pmpaddr5,a4
    c0003ea0:	7b98                	ld	a4,48(a5)
    c0003ea2:	3b671073          	csrw	pmpaddr6,a4
    c0003ea6:	7f98                	ld	a4,56(a5)
    c0003ea8:	3b771073          	csrw	pmpaddr7,a4
    c0003eac:	63b8                	ld	a4,64(a5)
    c0003eae:	3a071073          	csrw	pmpcfg0,a4
    c0003eb2:	67b8                	ld	a4,72(a5)
    c0003eb4:	7c271073          	csrw	mcor,a4
    c0003eb8:	6bb8                	ld	a4,80(a5)
    c0003eba:	7c171073          	csrw	mhcr,a4
    c0003ebe:	73b8                	ld	a4,96(a5)
    c0003ec0:	7c571073          	csrw	mhint,a4
    c0003ec4:	77bc                	ld	a5,104(a5)
    c0003ec6:	7c079073          	csrw	mxstatus,a5
    c0003eca:	6422                	ld	s0,8(sp)
    c0003ecc:	4501                	li	a0,0
    c0003ece:	0141                	addi	sp,sp,16
    c0003ed0:	8082                	ret

00000000c0003ed2 <sbi_set_pmu>:
    c0003ed2:	1141                	addi	sp,sp,-16
    c0003ed4:	e422                	sd	s0,8(sp)
    c0003ed6:	0800                	addi	s0,sp,16
    c0003ed8:	303027f3          	csrr	a5,mideleg
    c0003edc:	00020737          	lui	a4,0x20
    c0003ee0:	8fd9                	or	a5,a5,a4
    c0003ee2:	30379073          	csrw	mideleg,a5
    c0003ee6:	57fd                	li	a5,-1
    c0003ee8:	9381                	srli	a5,a5,0x20
    c0003eea:	7c979073          	csrw	mcounterwen,a5
    c0003eee:	3230d073          	csrwi	mhpmevent3,1
    c0003ef2:	32415073          	csrwi	mhpmevent4,2
    c0003ef6:	3251d073          	csrwi	mhpmevent5,3
    c0003efa:	32625073          	csrwi	mhpmevent6,4
    c0003efe:	3272d073          	csrwi	mhpmevent7,5
    c0003f02:	32835073          	csrwi	mhpmevent8,6
    c0003f06:	3293d073          	csrwi	mhpmevent9,7
    c0003f0a:	32a45073          	csrwi	mhpmevent10,8
    c0003f0e:	32b4d073          	csrwi	mhpmevent11,9
    c0003f12:	32c55073          	csrwi	mhpmevent12,10
    c0003f16:	32d5d073          	csrwi	mhpmevent13,11
    c0003f1a:	32e65073          	csrwi	mhpmevent14,12
    c0003f1e:	32f6d073          	csrwi	mhpmevent15,13
    c0003f22:	33075073          	csrwi	mhpmevent16,14
    c0003f26:	3317d073          	csrwi	mhpmevent17,15
    c0003f2a:	33285073          	csrwi	mhpmevent18,16
    c0003f2e:	3338d073          	csrwi	mhpmevent19,17
    c0003f32:	33495073          	csrwi	mhpmevent20,18
    c0003f36:	3359d073          	csrwi	mhpmevent21,19
    c0003f3a:	336a5073          	csrwi	mhpmevent22,20
    c0003f3e:	337ad073          	csrwi	mhpmevent23,21
    c0003f42:	338b5073          	csrwi	mhpmevent24,22
    c0003f46:	339bd073          	csrwi	mhpmevent25,23
    c0003f4a:	33ac5073          	csrwi	mhpmevent26,24
    c0003f4e:	33bcd073          	csrwi	mhpmevent27,25
    c0003f52:	33cd5073          	csrwi	mhpmevent28,26
    c0003f56:	6422                	ld	s0,8(sp)
    c0003f58:	0141                	addi	sp,sp,16
    c0003f5a:	8082                	ret

00000000c0003f5c <c910_vendor_ext_provider>:
    c0003f5c:	1141                	addi	sp,sp,-16
    c0003f5e:	e022                	sd	s0,0(sp)
    c0003f60:	e406                	sd	ra,8(sp)
    c0003f62:	0800                	addi	s0,sp,16
    c0003f64:	090007b7          	lui	a5,0x9000
    c0003f68:	00178713          	addi	a4,a5,1 # 9000001 <_fw_start-0xb6ffffff>
    c0003f6c:	02e50763          	beq	a0,a4,c0003f9a <c910_vendor_ext_provider+0x3e>
    c0003f70:	078d                	addi	a5,a5,3
    c0003f72:	02f51b63          	bne	a0,a5,c0003fa8 <c910_vendor_ext_provider+0x4c>
    c0003f76:	470d                	li	a4,3
    c0003f78:	4214                	lw	a3,0(a2)
    c0003f7a:	077a                	slli	a4,a4,0x1e
    c0003f7c:	7c771073          	csrw	mrvbr,a4
    c0003f80:	7c602773          	csrr	a4,mrmr
    c0003f84:	4785                	li	a5,1
    c0003f86:	00d797bb          	sllw	a5,a5,a3
    c0003f8a:	8fd9                	or	a5,a5,a4
    c0003f8c:	7c679073          	csrw	mrmr,a5
    c0003f90:	60a2                	ld	ra,8(sp)
    c0003f92:	6402                	ld	s0,0(sp)
    c0003f94:	4501                	li	a0,0
    c0003f96:	0141                	addi	sp,sp,16
    c0003f98:	8082                	ret
    c0003f9a:	f39ff0ef          	jal	ra,c0003ed2 <sbi_set_pmu>
    c0003f9e:	60a2                	ld	ra,8(sp)
    c0003fa0:	6402                	ld	s0,0(sp)
    c0003fa2:	4501                	li	a0,0
    c0003fa4:	0141                	addi	sp,sp,16
    c0003fa6:	8082                	ret
    c0003fa8:	85aa                	mv	a1,a0
    c0003faa:	00005517          	auipc	a0,0x5
    c0003fae:	7e650513          	addi	a0,a0,2022 # c0009790 <platform_ops+0xd0>
    c0003fb2:	19c010ef          	jal	ra,c000514e <sbi_printf>
    c0003fb6:	9002                	ebreak
    c0003fb8:	60a2                	ld	ra,8(sp)
    c0003fba:	6402                	ld	s0,0(sp)
    c0003fbc:	4501                	li	a0,0
    c0003fbe:	0141                	addi	sp,sp,16
    c0003fc0:	8082                	ret

00000000c0003fc2 <sbi_boot_other_core>:
    c0003fc2:	1141                	addi	sp,sp,-16
    c0003fc4:	e422                	sd	s0,8(sp)
    c0003fc6:	470d                	li	a4,3
    c0003fc8:	0800                	addi	s0,sp,16
    c0003fca:	077a                	slli	a4,a4,0x1e
    c0003fcc:	7c771073          	csrw	mrvbr,a4
    c0003fd0:	7c602773          	csrr	a4,mrmr
    c0003fd4:	4785                	li	a5,1
    c0003fd6:	00a797bb          	sllw	a5,a5,a0
    c0003fda:	8fd9                	or	a5,a5,a4
    c0003fdc:	7c679073          	csrw	mrmr,a5
    c0003fe0:	6422                	ld	s0,8(sp)
    c0003fe2:	0141                	addi	sp,sp,16
    c0003fe4:	8082                	ret

00000000c0003fe6 <misa_extension_imp>:
    c0003fe6:	301027f3          	csrr	a5,misa
    c0003fea:	e7e5                	bnez	a5,c00040d2 <misa_extension_imp+0xec>
    c0003fec:	34002773          	csrr	a4,mscratch
    c0003ff0:	03174683          	lbu	a3,49(a4) # 20031 <_fw_start-0xbffdffcf>
    c0003ff4:	03074603          	lbu	a2,48(a4)
    c0003ff8:	03274783          	lbu	a5,50(a4)
    c0003ffc:	03374803          	lbu	a6,51(a4)
    c0004000:	03474583          	lbu	a1,52(a4)
    c0004004:	06a2                	slli	a3,a3,0x8
    c0004006:	8ed1                	or	a3,a3,a2
    c0004008:	07c2                	slli	a5,a5,0x10
    c000400a:	03574603          	lbu	a2,53(a4)
    c000400e:	8fd5                	or	a5,a5,a3
    c0004010:	0862                	slli	a6,a6,0x18
    c0004012:	03674683          	lbu	a3,54(a4)
    c0004016:	00f86833          	or	a6,a6,a5
    c000401a:	1582                	slli	a1,a1,0x20
    c000401c:	03774783          	lbu	a5,55(a4)
    c0004020:	0105e5b3          	or	a1,a1,a6
    c0004024:	02861713          	slli	a4,a2,0x28
    c0004028:	00b76633          	or	a2,a4,a1
    c000402c:	03069713          	slli	a4,a3,0x30
    c0004030:	8f51                	or	a4,a4,a2
    c0004032:	17e2                	slli	a5,a5,0x38
    c0004034:	8fd9                	or	a5,a5,a4
    c0004036:	4701                	li	a4,0
    c0004038:	c7cd                	beqz	a5,c00040e2 <misa_extension_imp+0xfc>
    c000403a:	0697c683          	lbu	a3,105(a5)
    c000403e:	0687c603          	lbu	a2,104(a5)
    c0004042:	06a7c883          	lbu	a7,106(a5)
    c0004046:	06b7c803          	lbu	a6,107(a5)
    c000404a:	06c7c583          	lbu	a1,108(a5)
    c000404e:	06a2                	slli	a3,a3,0x8
    c0004050:	8ed1                	or	a3,a3,a2
    c0004052:	08c2                	slli	a7,a7,0x10
    c0004054:	06d7c603          	lbu	a2,109(a5)
    c0004058:	00d8e8b3          	or	a7,a7,a3
    c000405c:	0862                	slli	a6,a6,0x18
    c000405e:	06e7c683          	lbu	a3,110(a5)
    c0004062:	01186833          	or	a6,a6,a7
    c0004066:	1582                	slli	a1,a1,0x20
    c0004068:	06f7c783          	lbu	a5,111(a5)
    c000406c:	0105e5b3          	or	a1,a1,a6
    c0004070:	1622                	slli	a2,a2,0x28
    c0004072:	8e4d                	or	a2,a2,a1
    c0004074:	16c2                	slli	a3,a3,0x30
    c0004076:	8ed1                	or	a3,a3,a2
    c0004078:	17e2                	slli	a5,a5,0x38
    c000407a:	8fd5                	or	a5,a5,a3
    c000407c:	0217c683          	lbu	a3,33(a5)
    c0004080:	0207c603          	lbu	a2,32(a5)
    c0004084:	0227c883          	lbu	a7,34(a5)
    c0004088:	0237c803          	lbu	a6,35(a5)
    c000408c:	0247c583          	lbu	a1,36(a5)
    c0004090:	06a2                	slli	a3,a3,0x8
    c0004092:	8ed1                	or	a3,a3,a2
    c0004094:	08c2                	slli	a7,a7,0x10
    c0004096:	0257c603          	lbu	a2,37(a5)
    c000409a:	00d8e8b3          	or	a7,a7,a3
    c000409e:	0862                	slli	a6,a6,0x18
    c00040a0:	0267c683          	lbu	a3,38(a5)
    c00040a4:	01186833          	or	a6,a6,a7
    c00040a8:	1582                	slli	a1,a1,0x20
    c00040aa:	0277c783          	lbu	a5,39(a5)
    c00040ae:	0105e5b3          	or	a1,a1,a6
    c00040b2:	1622                	slli	a2,a2,0x28
    c00040b4:	8e4d                	or	a2,a2,a1
    c00040b6:	16c2                	slli	a3,a3,0x30
    c00040b8:	8ed1                	or	a3,a3,a2
    c00040ba:	17e2                	slli	a5,a5,0x38
    c00040bc:	8fd5                	or	a5,a5,a3
    c00040be:	c395                	beqz	a5,c00040e2 <misa_extension_imp+0xfc>
    c00040c0:	1141                	addi	sp,sp,-16
    c00040c2:	e022                	sd	s0,0(sp)
    c00040c4:	e406                	sd	ra,8(sp)
    c00040c6:	0800                	addi	s0,sp,16
    c00040c8:	9782                	jalr	a5
    c00040ca:	60a2                	ld	ra,8(sp)
    c00040cc:	6402                	ld	s0,0(sp)
    c00040ce:	0141                	addi	sp,sp,16
    c00040d0:	8082                	ret
    c00040d2:	fbf5071b          	addiw	a4,a0,-65
    c00040d6:	4685                	li	a3,1
    c00040d8:	00e6973b          	sllw	a4,a3,a4
    c00040dc:	8ff9                	and	a5,a5,a4
    c00040de:	0007871b          	sext.w	a4,a5
    c00040e2:	853a                	mv	a0,a4
    c00040e4:	8082                	ret

00000000c00040e6 <misa_xlen>:
    c00040e6:	301027f3          	csrr	a5,misa
    c00040ea:	cf91                	beqz	a5,c0004106 <misa_xlen+0x20>
    c00040ec:	301022f3          	csrr	t0,misa
    c00040f0:	0002a313          	slti	t1,t0,0
    c00040f4:	0306                	slli	t1,t1,0x1
    c00040f6:	0286                	slli	t0,t0,0x1
    c00040f8:	0002a293          	slti	t0,t0,0
    c00040fc:	00628533          	add	a0,t0,t1
    c0004100:	cd69                	beqz	a0,c00041da <misa_xlen+0xf4>
    c0004102:	2501                	sext.w	a0,a0
    c0004104:	8082                	ret
    c0004106:	34002773          	csrr	a4,mscratch
    c000410a:	03174683          	lbu	a3,49(a4)
    c000410e:	03074603          	lbu	a2,48(a4)
    c0004112:	03274783          	lbu	a5,50(a4)
    c0004116:	03374503          	lbu	a0,51(a4)
    c000411a:	03474583          	lbu	a1,52(a4)
    c000411e:	06a2                	slli	a3,a3,0x8
    c0004120:	8ed1                	or	a3,a3,a2
    c0004122:	07c2                	slli	a5,a5,0x10
    c0004124:	03574603          	lbu	a2,53(a4)
    c0004128:	8fd5                	or	a5,a5,a3
    c000412a:	0562                	slli	a0,a0,0x18
    c000412c:	03674683          	lbu	a3,54(a4)
    c0004130:	8d5d                	or	a0,a0,a5
    c0004132:	1582                	slli	a1,a1,0x20
    c0004134:	03774783          	lbu	a5,55(a4)
    c0004138:	8dc9                	or	a1,a1,a0
    c000413a:	02861713          	slli	a4,a2,0x28
    c000413e:	00b76633          	or	a2,a4,a1
    c0004142:	03069713          	slli	a4,a3,0x30
    c0004146:	8f51                	or	a4,a4,a2
    c0004148:	17e2                	slli	a5,a5,0x38
    c000414a:	8fd9                	or	a5,a5,a4
    c000414c:	c7d9                	beqz	a5,c00041da <misa_xlen+0xf4>
    c000414e:	0697c703          	lbu	a4,105(a5)
    c0004152:	0687c683          	lbu	a3,104(a5)
    c0004156:	06a7c503          	lbu	a0,106(a5)
    c000415a:	06b7c583          	lbu	a1,107(a5)
    c000415e:	06c7c603          	lbu	a2,108(a5)
    c0004162:	0722                	slli	a4,a4,0x8
    c0004164:	8f55                	or	a4,a4,a3
    c0004166:	0542                	slli	a0,a0,0x10
    c0004168:	06d7c683          	lbu	a3,109(a5)
    c000416c:	8d59                	or	a0,a0,a4
    c000416e:	05e2                	slli	a1,a1,0x18
    c0004170:	06e7c703          	lbu	a4,110(a5)
    c0004174:	8dc9                	or	a1,a1,a0
    c0004176:	1602                	slli	a2,a2,0x20
    c0004178:	06f7c783          	lbu	a5,111(a5)
    c000417c:	8e4d                	or	a2,a2,a1
    c000417e:	16a2                	slli	a3,a3,0x28
    c0004180:	8ed1                	or	a3,a3,a2
    c0004182:	1742                	slli	a4,a4,0x30
    c0004184:	8f55                	or	a4,a4,a3
    c0004186:	17e2                	slli	a5,a5,0x38
    c0004188:	8fd9                	or	a5,a5,a4
    c000418a:	0297c703          	lbu	a4,41(a5)
    c000418e:	0287c683          	lbu	a3,40(a5)
    c0004192:	02a7c503          	lbu	a0,42(a5)
    c0004196:	02b7c583          	lbu	a1,43(a5)
    c000419a:	02c7c603          	lbu	a2,44(a5)
    c000419e:	0722                	slli	a4,a4,0x8
    c00041a0:	8f55                	or	a4,a4,a3
    c00041a2:	0542                	slli	a0,a0,0x10
    c00041a4:	02d7c683          	lbu	a3,45(a5)
    c00041a8:	8d59                	or	a0,a0,a4
    c00041aa:	05e2                	slli	a1,a1,0x18
    c00041ac:	02e7c703          	lbu	a4,46(a5)
    c00041b0:	8dc9                	or	a1,a1,a0
    c00041b2:	1602                	slli	a2,a2,0x20
    c00041b4:	02f7c783          	lbu	a5,47(a5)
    c00041b8:	8e4d                	or	a2,a2,a1
    c00041ba:	16a2                	slli	a3,a3,0x28
    c00041bc:	8ed1                	or	a3,a3,a2
    c00041be:	1742                	slli	a4,a4,0x30
    c00041c0:	8f55                	or	a4,a4,a3
    c00041c2:	17e2                	slli	a5,a5,0x38
    c00041c4:	8fd9                	or	a5,a5,a4
    c00041c6:	cb91                	beqz	a5,c00041da <misa_xlen+0xf4>
    c00041c8:	1141                	addi	sp,sp,-16
    c00041ca:	e022                	sd	s0,0(sp)
    c00041cc:	e406                	sd	ra,8(sp)
    c00041ce:	0800                	addi	s0,sp,16
    c00041d0:	9782                	jalr	a5
    c00041d2:	60a2                	ld	ra,8(sp)
    c00041d4:	6402                	ld	s0,0(sp)
    c00041d6:	0141                	addi	sp,sp,16
    c00041d8:	8082                	ret
    c00041da:	557d                	li	a0,-1
    c00041dc:	8082                	ret

00000000c00041de <csr_read_num>:
    c00041de:	1141                	addi	sp,sp,-16
    c00041e0:	e422                	sd	s0,8(sp)
    c00041e2:	c605051b          	addiw	a0,a0,-928
    c00041e6:	0800                	addi	s0,sp,16
    c00041e8:	0005071b          	sext.w	a4,a0
    c00041ec:	47fd                	li	a5,31
    c00041ee:	08e7eb63          	bltu	a5,a4,c0004284 <csr_read_num+0xa6>
    c00041f2:	1502                	slli	a0,a0,0x20
    c00041f4:	9101                	srli	a0,a0,0x20
    c00041f6:	00005717          	auipc	a4,0x5
    c00041fa:	5be70713          	addi	a4,a4,1470 # c00097b4 <platform_ops+0xf4>
    c00041fe:	050a                	slli	a0,a0,0x2
    c0004200:	953a                	add	a0,a0,a4
    c0004202:	411c                	lw	a5,0(a0)
    c0004204:	97ba                	add	a5,a5,a4
    c0004206:	8782                	jr	a5
    c0004208:	3bf02573          	csrr	a0,pmpaddr15
    c000420c:	6422                	ld	s0,8(sp)
    c000420e:	0141                	addi	sp,sp,16
    c0004210:	8082                	ret
    c0004212:	3be02573          	csrr	a0,pmpaddr14
    c0004216:	bfdd                	j	c000420c <csr_read_num+0x2e>
    c0004218:	3bd02573          	csrr	a0,pmpaddr13
    c000421c:	bfc5                	j	c000420c <csr_read_num+0x2e>
    c000421e:	3bc02573          	csrr	a0,pmpaddr12
    c0004222:	b7ed                	j	c000420c <csr_read_num+0x2e>
    c0004224:	3bb02573          	csrr	a0,pmpaddr11
    c0004228:	b7d5                	j	c000420c <csr_read_num+0x2e>
    c000422a:	3ba02573          	csrr	a0,pmpaddr10
    c000422e:	bff9                	j	c000420c <csr_read_num+0x2e>
    c0004230:	3b902573          	csrr	a0,pmpaddr9
    c0004234:	bfe1                	j	c000420c <csr_read_num+0x2e>
    c0004236:	3b802573          	csrr	a0,pmpaddr8
    c000423a:	bfc9                	j	c000420c <csr_read_num+0x2e>
    c000423c:	3b702573          	csrr	a0,pmpaddr7
    c0004240:	b7f1                	j	c000420c <csr_read_num+0x2e>
    c0004242:	3b602573          	csrr	a0,pmpaddr6
    c0004246:	b7d9                	j	c000420c <csr_read_num+0x2e>
    c0004248:	3b502573          	csrr	a0,pmpaddr5
    c000424c:	b7c1                	j	c000420c <csr_read_num+0x2e>
    c000424e:	3b402573          	csrr	a0,pmpaddr4
    c0004252:	bf6d                	j	c000420c <csr_read_num+0x2e>
    c0004254:	3b302573          	csrr	a0,pmpaddr3
    c0004258:	bf55                	j	c000420c <csr_read_num+0x2e>
    c000425a:	3b202573          	csrr	a0,pmpaddr2
    c000425e:	b77d                	j	c000420c <csr_read_num+0x2e>
    c0004260:	3b102573          	csrr	a0,pmpaddr1
    c0004264:	b765                	j	c000420c <csr_read_num+0x2e>
    c0004266:	3b002573          	csrr	a0,pmpaddr0
    c000426a:	b74d                	j	c000420c <csr_read_num+0x2e>
    c000426c:	3a302573          	csrr	a0,pmpcfg3
    c0004270:	bf71                	j	c000420c <csr_read_num+0x2e>
    c0004272:	3a202573          	csrr	a0,pmpcfg2
    c0004276:	bf59                	j	c000420c <csr_read_num+0x2e>
    c0004278:	3a102573          	csrr	a0,pmpcfg1
    c000427c:	bf41                	j	c000420c <csr_read_num+0x2e>
    c000427e:	3a002573          	csrr	a0,pmpcfg0
    c0004282:	b769                	j	c000420c <csr_read_num+0x2e>
    c0004284:	4501                	li	a0,0
    c0004286:	b759                	j	c000420c <csr_read_num+0x2e>

00000000c0004288 <csr_write_num>:
    c0004288:	1141                	addi	sp,sp,-16
    c000428a:	e422                	sd	s0,8(sp)
    c000428c:	c605051b          	addiw	a0,a0,-928
    c0004290:	0800                	addi	s0,sp,16
    c0004292:	0005071b          	sext.w	a4,a0
    c0004296:	47fd                	li	a5,31
    c0004298:	00e7ef63          	bltu	a5,a4,c00042b6 <csr_write_num+0x2e>
    c000429c:	1502                	slli	a0,a0,0x20
    c000429e:	9101                	srli	a0,a0,0x20
    c00042a0:	00005717          	auipc	a4,0x5
    c00042a4:	59470713          	addi	a4,a4,1428 # c0009834 <platform_ops+0x174>
    c00042a8:	050a                	slli	a0,a0,0x2
    c00042aa:	953a                	add	a0,a0,a4
    c00042ac:	411c                	lw	a5,0(a0)
    c00042ae:	97ba                	add	a5,a5,a4
    c00042b0:	8782                	jr	a5
    c00042b2:	3bf59073          	csrw	pmpaddr15,a1
    c00042b6:	6422                	ld	s0,8(sp)
    c00042b8:	0141                	addi	sp,sp,16
    c00042ba:	8082                	ret
    c00042bc:	3be59073          	csrw	pmpaddr14,a1
    c00042c0:	bfdd                	j	c00042b6 <csr_write_num+0x2e>
    c00042c2:	3bd59073          	csrw	pmpaddr13,a1
    c00042c6:	bfc5                	j	c00042b6 <csr_write_num+0x2e>
    c00042c8:	3bc59073          	csrw	pmpaddr12,a1
    c00042cc:	b7ed                	j	c00042b6 <csr_write_num+0x2e>
    c00042ce:	3bb59073          	csrw	pmpaddr11,a1
    c00042d2:	b7d5                	j	c00042b6 <csr_write_num+0x2e>
    c00042d4:	3ba59073          	csrw	pmpaddr10,a1
    c00042d8:	bff9                	j	c00042b6 <csr_write_num+0x2e>
    c00042da:	3b959073          	csrw	pmpaddr9,a1
    c00042de:	bfe1                	j	c00042b6 <csr_write_num+0x2e>
    c00042e0:	3b859073          	csrw	pmpaddr8,a1
    c00042e4:	bfc9                	j	c00042b6 <csr_write_num+0x2e>
    c00042e6:	3b759073          	csrw	pmpaddr7,a1
    c00042ea:	b7f1                	j	c00042b6 <csr_write_num+0x2e>
    c00042ec:	3b659073          	csrw	pmpaddr6,a1
    c00042f0:	b7d9                	j	c00042b6 <csr_write_num+0x2e>
    c00042f2:	3b559073          	csrw	pmpaddr5,a1
    c00042f6:	b7c1                	j	c00042b6 <csr_write_num+0x2e>
    c00042f8:	3b459073          	csrw	pmpaddr4,a1
    c00042fc:	bf6d                	j	c00042b6 <csr_write_num+0x2e>
    c00042fe:	3b359073          	csrw	pmpaddr3,a1
    c0004302:	bf55                	j	c00042b6 <csr_write_num+0x2e>
    c0004304:	3b259073          	csrw	pmpaddr2,a1
    c0004308:	b77d                	j	c00042b6 <csr_write_num+0x2e>
    c000430a:	3b159073          	csrw	pmpaddr1,a1
    c000430e:	b765                	j	c00042b6 <csr_write_num+0x2e>
    c0004310:	3b059073          	csrw	pmpaddr0,a1
    c0004314:	b74d                	j	c00042b6 <csr_write_num+0x2e>
    c0004316:	3a359073          	csrw	pmpcfg3,a1
    c000431a:	bf71                	j	c00042b6 <csr_write_num+0x2e>
    c000431c:	3a259073          	csrw	pmpcfg2,a1
    c0004320:	bf59                	j	c00042b6 <csr_write_num+0x2e>
    c0004322:	3a159073          	csrw	pmpcfg1,a1
    c0004326:	bf41                	j	c00042b6 <csr_write_num+0x2e>
    c0004328:	3a059073          	csrw	pmpcfg0,a1
    c000432c:	b769                	j	c00042b6 <csr_write_num+0x2e>

00000000c000432e <pmp_set>:
    c000432e:	47bd                	li	a5,15
    c0004330:	0ea7e063          	bltu	a5,a0,c0004410 <pmp_set+0xe2>
    c0004334:	ffe68793          	addi	a5,a3,-2
    c0004338:	03e00713          	li	a4,62
    c000433c:	0cf76a63          	bltu	a4,a5,c0004410 <pmp_set+0xe2>
    c0004340:	715d                	addi	sp,sp,-80
    c0004342:	fc26                	sd	s1,56(sp)
    c0004344:	84ae                	mv	s1,a1
    c0004346:	0035159b          	slliw	a1,a0,0x3
    c000434a:	ec56                	sd	s5,24(sp)
    c000434c:	e45e                	sd	s7,8(sp)
    c000434e:	00255a9b          	srliw	s5,a0,0x2
    c0004352:	0385fb93          	andi	s7,a1,56
    c0004356:	0ff00793          	li	a5,255
    c000435a:	e0a2                	sd	s0,64(sp)
    c000435c:	f84a                	sd	s2,48(sp)
    c000435e:	f44e                	sd	s3,40(sp)
    c0004360:	f052                	sd	s4,32(sp)
    c0004362:	e85a                	sd	s6,16(sp)
    c0004364:	e486                	sd	ra,72(sp)
    c0004366:	0880                	addi	s0,sp,80
    c0004368:	3a0a8a9b          	addiw	s5,s5,928
    c000436c:	017797bb          	sllw	a5,a5,s7
    c0004370:	ffeafa93          	andi	s5,s5,-2
    c0004374:	fff7c793          	not	a5,a5
    c0004378:	4709                	li	a4,2
    c000437a:	8b36                	mv	s6,a3
    c000437c:	89b2                	mv	s3,a2
    c000437e:	2a81                	sext.w	s5,s5
    c0004380:	3b050a1b          	addiw	s4,a0,944
    c0004384:	0007891b          	sext.w	s2,a5
    c0004388:	06e68563          	beq	a3,a4,c00043f2 <pmp_set+0xc4>
    c000438c:	8556                	mv	a0,s5
    c000438e:	e51ff0ef          	jal	ra,c00041de <csr_read_num>
    c0004392:	0184e593          	ori	a1,s1,24
    c0004396:	017595b3          	sll	a1,a1,s7
    c000439a:	8d2d                	xor	a0,a0,a1
    c000439c:	01257933          	and	s2,a0,s2
    c00043a0:	04000793          	li	a5,64
    c00043a4:	00b94933          	xor	s2,s2,a1
    c00043a8:	55fd                	li	a1,-1
    c00043aa:	02fb0163          	beq	s6,a5,c00043cc <pmp_set+0x9e>
    c00043ae:	4585                	li	a1,1
    c00043b0:	3b79                	addiw	s6,s6,-2
    c00043b2:	01659b33          	sll	s6,a1,s6
    c00043b6:	0029d993          	srli	s3,s3,0x2
    c00043ba:	41600633          	neg	a2,s6
    c00043be:	fffb0593          	addi	a1,s6,-1
    c00043c2:	00c9f9b3          	and	s3,s3,a2
    c00043c6:	8185                	srli	a1,a1,0x1
    c00043c8:	0135e5b3          	or	a1,a1,s3
    c00043cc:	8552                	mv	a0,s4
    c00043ce:	ebbff0ef          	jal	ra,c0004288 <csr_write_num>
    c00043d2:	8556                	mv	a0,s5
    c00043d4:	85ca                	mv	a1,s2
    c00043d6:	eb3ff0ef          	jal	ra,c0004288 <csr_write_num>
    c00043da:	60a6                	ld	ra,72(sp)
    c00043dc:	6406                	ld	s0,64(sp)
    c00043de:	74e2                	ld	s1,56(sp)
    c00043e0:	7942                	ld	s2,48(sp)
    c00043e2:	79a2                	ld	s3,40(sp)
    c00043e4:	7a02                	ld	s4,32(sp)
    c00043e6:	6ae2                	ld	s5,24(sp)
    c00043e8:	6b42                	ld	s6,16(sp)
    c00043ea:	6ba2                	ld	s7,8(sp)
    c00043ec:	4501                	li	a0,0
    c00043ee:	6161                	addi	sp,sp,80
    c00043f0:	8082                	ret
    c00043f2:	8556                	mv	a0,s5
    c00043f4:	debff0ef          	jal	ra,c00041de <csr_read_num>
    c00043f8:	0104e593          	ori	a1,s1,16
    c00043fc:	017595b3          	sll	a1,a1,s7
    c0004400:	8d2d                	xor	a0,a0,a1
    c0004402:	01257933          	and	s2,a0,s2
    c0004406:	00b94933          	xor	s2,s2,a1
    c000440a:	0029d593          	srli	a1,s3,0x2
    c000440e:	bf7d                	j	c00043cc <pmp_set+0x9e>
    c0004410:	5575                	li	a0,-3
    c0004412:	8082                	ret

00000000c0004414 <pmp_get>:
    c0004414:	47bd                	li	a5,15
    c0004416:	0ca7e963          	bltu	a5,a0,c00044e8 <pmp_get+0xd4>
    c000441a:	c5f9                	beqz	a1,c00044e8 <pmp_get+0xd4>
    c000441c:	c671                	beqz	a2,c00044e8 <pmp_get+0xd4>
    c000441e:	c6e9                	beqz	a3,c00044e8 <pmp_get+0xd4>
    c0004420:	7139                	addi	sp,sp,-64
    c0004422:	f822                	sd	s0,48(sp)
    c0004424:	f426                	sd	s1,40(sp)
    c0004426:	f04a                	sd	s2,32(sp)
    c0004428:	ec4e                	sd	s3,24(sp)
    c000442a:	e852                	sd	s4,16(sp)
    c000442c:	e456                	sd	s5,8(sp)
    c000442e:	e05a                	sd	s6,0(sp)
    c0004430:	fc06                	sd	ra,56(sp)
    c0004432:	0080                	addi	s0,sp,64
    c0004434:	87aa                	mv	a5,a0
    c0004436:	0025551b          	srliw	a0,a0,0x2
    c000443a:	0006b023          	sd	zero,0(a3)
    c000443e:	3a05051b          	addiw	a0,a0,928
    c0004442:	0037991b          	slliw	s2,a5,0x3
    c0004446:	00063023          	sd	zero,0(a2)
    c000444a:	9979                	andi	a0,a0,-2
    c000444c:	03897b13          	andi	s6,s2,56
    c0004450:	0005b023          	sd	zero,0(a1)
    c0004454:	2501                	sext.w	a0,a0
    c0004456:	0ff00913          	li	s2,255
    c000445a:	3b07849b          	addiw	s1,a5,944
    c000445e:	8ab6                	mv	s5,a3
    c0004460:	8a32                	mv	s4,a2
    c0004462:	89ae                	mv	s3,a1
    c0004464:	0169193b          	sllw	s2,s2,s6
    c0004468:	d77ff0ef          	jal	ra,c00041de <csr_read_num>
    c000446c:	00a97933          	and	s2,s2,a0
    c0004470:	01695933          	srl	s2,s2,s6
    c0004474:	01897713          	andi	a4,s2,24
    c0004478:	47e1                	li	a5,24
    c000447a:	8526                	mv	a0,s1
    c000447c:	02f70763          	beq	a4,a5,c00044aa <pmp_get+0x96>
    c0004480:	d5fff0ef          	jal	ra,c00041de <csr_read_num>
    c0004484:	050a                	slli	a0,a0,0x2
    c0004486:	4789                	li	a5,2
    c0004488:	0129b023          	sd	s2,0(s3)
    c000448c:	00aa3023          	sd	a0,0(s4)
    c0004490:	00fab023          	sd	a5,0(s5)
    c0004494:	70e2                	ld	ra,56(sp)
    c0004496:	7442                	ld	s0,48(sp)
    c0004498:	74a2                	ld	s1,40(sp)
    c000449a:	7902                	ld	s2,32(sp)
    c000449c:	69e2                	ld	s3,24(sp)
    c000449e:	6a42                	ld	s4,16(sp)
    c00044a0:	6aa2                	ld	s5,8(sp)
    c00044a2:	6b02                	ld	s6,0(sp)
    c00044a4:	4501                	li	a0,0
    c00044a6:	6121                	addi	sp,sp,64
    c00044a8:	8082                	ret
    c00044aa:	d35ff0ef          	jal	ra,c00041de <csr_read_num>
    c00044ae:	57fd                	li	a5,-1
    c00044b0:	02f50863          	beq	a0,a5,c00044e0 <pmp_get+0xcc>
    c00044b4:	fff54713          	not	a4,a0
    c00044b8:	00177793          	andi	a5,a4,1
    c00044bc:	c789                	beqz	a5,c00044c6 <pmp_get+0xb2>
    c00044be:	478d                	li	a5,3
    c00044c0:	050a                	slli	a0,a0,0x2
    c00044c2:	b7d9                	j	c0004488 <pmp_get+0x74>
    c00044c4:	87b2                	mv	a5,a2
    c00044c6:	8305                	srli	a4,a4,0x1
    c00044c8:	00177693          	andi	a3,a4,1
    c00044cc:	00178613          	addi	a2,a5,1
    c00044d0:	daf5                	beqz	a3,c00044c4 <pmp_get+0xb0>
    c00044d2:	577d                	li	a4,-1
    c00044d4:	00c71633          	sll	a2,a4,a2
    c00044d8:	8d71                	and	a0,a0,a2
    c00044da:	0791                	addi	a5,a5,4
    c00044dc:	050a                	slli	a0,a0,0x2
    c00044de:	b76d                	j	c0004488 <pmp_get+0x74>
    c00044e0:	04000793          	li	a5,64
    c00044e4:	4501                	li	a0,0
    c00044e6:	b74d                	j	c0004488 <pmp_get+0x74>
    c00044e8:	5575                	li	a0,-3
    c00044ea:	8082                	ret

00000000c00044ec <atomic_read>:
    c00044ec:	1141                	addi	sp,sp,-16
    c00044ee:	e422                	sd	s0,8(sp)
    c00044f0:	0800                	addi	s0,sp,16
    c00044f2:	6108                	ld	a0,0(a0)
    c00044f4:	0aa0000f          	fence	ir,ir
    c00044f8:	6422                	ld	s0,8(sp)
    c00044fa:	0141                	addi	sp,sp,16
    c00044fc:	8082                	ret

00000000c00044fe <atomic_write>:
    c00044fe:	1141                	addi	sp,sp,-16
    c0004500:	e422                	sd	s0,8(sp)
    c0004502:	0800                	addi	s0,sp,16
    c0004504:	e10c                	sd	a1,0(a0)
    c0004506:	0550000f          	fence	ow,ow
    c000450a:	6422                	ld	s0,8(sp)
    c000450c:	0141                	addi	sp,sp,16
    c000450e:	8082                	ret

00000000c0004510 <atomic_add_return>:
    c0004510:	1141                	addi	sp,sp,-16
    c0004512:	e422                	sd	s0,8(sp)
    c0004514:	0800                	addi	s0,sp,16
    c0004516:	06b527af          	amoadd.w.aqrl	a5,a1,(a0)
    c000451a:	6422                	ld	s0,8(sp)
    c000451c:	00f58533          	add	a0,a1,a5
    c0004520:	0141                	addi	sp,sp,16
    c0004522:	8082                	ret

00000000c0004524 <atomic_sub_return>:
    c0004524:	1141                	addi	sp,sp,-16
    c0004526:	e422                	sd	s0,8(sp)
    c0004528:	0800                	addi	s0,sp,16
    c000452a:	40b007b3          	neg	a5,a1
    c000452e:	06f527af          	amoadd.w.aqrl	a5,a5,(a0)
    c0004532:	6422                	ld	s0,8(sp)
    c0004534:	40b78533          	sub	a0,a5,a1
    c0004538:	0141                	addi	sp,sp,16
    c000453a:	8082                	ret

00000000c000453c <arch_atomic_cmpxchg>:
    c000453c:	1141                	addi	sp,sp,-16
    c000453e:	e422                	sd	s0,8(sp)
    c0004540:	0800                	addi	s0,sp,16
    c0004542:	87aa                	mv	a5,a0
    c0004544:	0f50000f          	fence	iorw,ow
    c0004548:	1407b52f          	lr.d.aq	a0,(a5)
    c000454c:	00b51563          	bne	a0,a1,c0004556 <arch_atomic_cmpxchg+0x1a>
    c0004550:	1cc7b72f          	sc.d.aq	a4,a2,(a5)
    c0004554:	fb75                	bnez	a4,c0004548 <arch_atomic_cmpxchg+0xc>
    c0004556:	6422                	ld	s0,8(sp)
    c0004558:	0141                	addi	sp,sp,16
    c000455a:	8082                	ret

00000000c000455c <arch_atomic_xchg>:
    c000455c:	7179                	addi	sp,sp,-48
    c000455e:	f422                	sd	s0,40(sp)
    c0004560:	1800                	addi	s0,sp,48
    c0004562:	fcb43c23          	sd	a1,-40(s0)
    c0004566:	fd843783          	ld	a5,-40(s0)
    c000456a:	fef43023          	sd	a5,-32(s0)
    c000456e:	fe043783          	ld	a5,-32(s0)
    c0004572:	1005372f          	lr.d	a4,(a0)
    c0004576:	1af536af          	sc.d.rl	a3,a5,(a0)
    c000457a:	fee5                	bnez	a3,c0004572 <arch_atomic_xchg+0x16>
    c000457c:	0330000f          	fence	rw,rw
    c0004580:	fee43423          	sd	a4,-24(s0)
    c0004584:	fe843503          	ld	a0,-24(s0)
    c0004588:	7422                	ld	s0,40(sp)
    c000458a:	6145                	addi	sp,sp,48
    c000458c:	8082                	ret

00000000c000458e <atomic_raw_xchg_uint>:
    c000458e:	1101                	addi	sp,sp,-32
    c0004590:	ec22                	sd	s0,24(sp)
    c0004592:	1000                	addi	s0,sp,32
    c0004594:	feb42223          	sw	a1,-28(s0)
    c0004598:	fe442783          	lw	a5,-28(s0)
    c000459c:	2781                	sext.w	a5,a5
    c000459e:	fef42423          	sw	a5,-24(s0)
    c00045a2:	fe842783          	lw	a5,-24(s0)
    c00045a6:	2781                	sext.w	a5,a5
    c00045a8:	1005272f          	lr.w	a4,(a0)
    c00045ac:	1af526af          	sc.w.rl	a3,a5,(a0)
    c00045b0:	fee5                	bnez	a3,c00045a8 <atomic_raw_xchg_uint+0x1a>
    c00045b2:	0330000f          	fence	rw,rw
    c00045b6:	fee42623          	sw	a4,-20(s0)
    c00045ba:	fec42503          	lw	a0,-20(s0)
    c00045be:	6462                	ld	s0,24(sp)
    c00045c0:	2501                	sext.w	a0,a0
    c00045c2:	6105                	addi	sp,sp,32
    c00045c4:	8082                	ret

00000000c00045c6 <atomic_raw_xchg_ulong>:
    c00045c6:	7179                	addi	sp,sp,-48
    c00045c8:	f422                	sd	s0,40(sp)
    c00045ca:	1800                	addi	s0,sp,48
    c00045cc:	fcb43c23          	sd	a1,-40(s0)
    c00045d0:	fd843783          	ld	a5,-40(s0)
    c00045d4:	fef43023          	sd	a5,-32(s0)
    c00045d8:	fe043783          	ld	a5,-32(s0)
    c00045dc:	1005372f          	lr.d	a4,(a0)
    c00045e0:	1af536af          	sc.d.rl	a3,a5,(a0)
    c00045e4:	fee5                	bnez	a3,c00045dc <atomic_raw_xchg_ulong+0x16>
    c00045e6:	0330000f          	fence	rw,rw
    c00045ea:	fee43423          	sd	a4,-24(s0)
    c00045ee:	fe843503          	ld	a0,-24(s0)
    c00045f2:	7422                	ld	s0,40(sp)
    c00045f4:	6145                	addi	sp,sp,48
    c00045f6:	8082                	ret

00000000c00045f8 <atomic_raw_set_bit>:
    c00045f8:	41f5579b          	sraiw	a5,a0,0x1f
    c00045fc:	01a7d79b          	srliw	a5,a5,0x1a
    c0004600:	9d3d                	addw	a0,a0,a5
    c0004602:	1141                	addi	sp,sp,-16
    c0004604:	03f57713          	andi	a4,a0,63
    c0004608:	4065551b          	sraiw	a0,a0,0x6
    c000460c:	e422                	sd	s0,8(sp)
    c000460e:	9f1d                	subw	a4,a4,a5
    c0004610:	0800                	addi	s0,sp,16
    c0004612:	050e                	slli	a0,a0,0x3
    c0004614:	4785                	li	a5,1
    c0004616:	00e797b3          	sll	a5,a5,a4
    c000461a:	95aa                	add	a1,a1,a0
    c000461c:	46f5b52f          	amoor.d.aqrl	a0,a5,(a1)
    c0004620:	6422                	ld	s0,8(sp)
    c0004622:	2501                	sext.w	a0,a0
    c0004624:	0141                	addi	sp,sp,16
    c0004626:	8082                	ret

00000000c0004628 <atomic_raw_clear_bit>:
    c0004628:	41f5579b          	sraiw	a5,a0,0x1f
    c000462c:	01a7d79b          	srliw	a5,a5,0x1a
    c0004630:	9d3d                	addw	a0,a0,a5
    c0004632:	03f57713          	andi	a4,a0,63
    c0004636:	1141                	addi	sp,sp,-16
    c0004638:	9f1d                	subw	a4,a4,a5
    c000463a:	4065551b          	sraiw	a0,a0,0x6
    c000463e:	4785                	li	a5,1
    c0004640:	e422                	sd	s0,8(sp)
    c0004642:	050e                	slli	a0,a0,0x3
    c0004644:	0800                	addi	s0,sp,16
    c0004646:	00e797b3          	sll	a5,a5,a4
    c000464a:	95aa                	add	a1,a1,a0
    c000464c:	fff7c513          	not	a0,a5
    c0004650:	66a5b52f          	amoand.d.aqrl	a0,a0,(a1)
    c0004654:	6422                	ld	s0,8(sp)
    c0004656:	2501                	sext.w	a0,a0
    c0004658:	0141                	addi	sp,sp,16
    c000465a:	8082                	ret

00000000c000465c <atomic_set_bit>:
    c000465c:	41f5579b          	sraiw	a5,a0,0x1f
    c0004660:	01a7d79b          	srliw	a5,a5,0x1a
    c0004664:	9d3d                	addw	a0,a0,a5
    c0004666:	1141                	addi	sp,sp,-16
    c0004668:	03f57713          	andi	a4,a0,63
    c000466c:	4065551b          	sraiw	a0,a0,0x6
    c0004670:	e422                	sd	s0,8(sp)
    c0004672:	9f1d                	subw	a4,a4,a5
    c0004674:	0800                	addi	s0,sp,16
    c0004676:	050e                	slli	a0,a0,0x3
    c0004678:	4785                	li	a5,1
    c000467a:	00e797b3          	sll	a5,a5,a4
    c000467e:	95aa                	add	a1,a1,a0
    c0004680:	46f5b52f          	amoor.d.aqrl	a0,a5,(a1)
    c0004684:	6422                	ld	s0,8(sp)
    c0004686:	2501                	sext.w	a0,a0
    c0004688:	0141                	addi	sp,sp,16
    c000468a:	8082                	ret

00000000c000468c <atomic_clear_bit>:
    c000468c:	41f5579b          	sraiw	a5,a0,0x1f
    c0004690:	01a7d79b          	srliw	a5,a5,0x1a
    c0004694:	9d3d                	addw	a0,a0,a5
    c0004696:	03f57713          	andi	a4,a0,63
    c000469a:	1141                	addi	sp,sp,-16
    c000469c:	9f1d                	subw	a4,a4,a5
    c000469e:	4065551b          	sraiw	a0,a0,0x6
    c00046a2:	4785                	li	a5,1
    c00046a4:	e422                	sd	s0,8(sp)
    c00046a6:	050e                	slli	a0,a0,0x3
    c00046a8:	0800                	addi	s0,sp,16
    c00046aa:	00e797b3          	sll	a5,a5,a4
    c00046ae:	95aa                	add	a1,a1,a0
    c00046b0:	fff7c513          	not	a0,a5
    c00046b4:	66a5b52f          	amoand.d.aqrl	a0,a0,(a1)
    c00046b8:	6422                	ld	s0,8(sp)
    c00046ba:	2501                	sext.w	a0,a0
    c00046bc:	0141                	addi	sp,sp,16
    c00046be:	8082                	ret

00000000c00046c0 <spin_lock_check>:
    c00046c0:	1141                	addi	sp,sp,-16
    c00046c2:	e422                	sd	s0,8(sp)
    c00046c4:	0800                	addi	s0,sp,16
    c00046c6:	6108                	ld	a0,0(a0)
    c00046c8:	6422                	ld	s0,8(sp)
    c00046ca:	00a03533          	snez	a0,a0
    c00046ce:	0141                	addi	sp,sp,16
    c00046d0:	8082                	ret

00000000c00046d2 <spin_trylock>:
    c00046d2:	1141                	addi	sp,sp,-16
    c00046d4:	e422                	sd	s0,8(sp)
    c00046d6:	0800                	addi	s0,sp,16
    c00046d8:	4785                	li	a5,1
    c00046da:	08f527af          	amoswap.w	a5,a5,(a0)
    c00046de:	0230000f          	fence	r,rw
    c00046e2:	6422                	ld	s0,8(sp)
    c00046e4:	2781                	sext.w	a5,a5
    c00046e6:	0017b513          	seqz	a0,a5
    c00046ea:	0141                	addi	sp,sp,16
    c00046ec:	8082                	ret

00000000c00046ee <spin_lock>:
    c00046ee:	1141                	addi	sp,sp,-16
    c00046f0:	e422                	sd	s0,8(sp)
    c00046f2:	0800                	addi	s0,sp,16
    c00046f4:	4705                	li	a4,1
    c00046f6:	611c                	ld	a5,0(a0)
    c00046f8:	fffd                	bnez	a5,c00046f6 <spin_lock+0x8>
    c00046fa:	08e527af          	amoswap.w	a5,a4,(a0)
    c00046fe:	0230000f          	fence	r,rw
    c0004702:	2781                	sext.w	a5,a5
    c0004704:	fbed                	bnez	a5,c00046f6 <spin_lock+0x8>
    c0004706:	6422                	ld	s0,8(sp)
    c0004708:	0141                	addi	sp,sp,16
    c000470a:	8082                	ret

00000000c000470c <spin_unlock>:
    c000470c:	1141                	addi	sp,sp,-16
    c000470e:	e422                	sd	s0,8(sp)
    c0004710:	0800                	addi	s0,sp,16
    c0004712:	0310000f          	fence	rw,w
    c0004716:	6422                	ld	s0,8(sp)
    c0004718:	00053023          	sd	zero,0(a0)
    c000471c:	0141                	addi	sp,sp,16
    c000471e:	8082                	ret

00000000c0004720 <sbi_isprintable>:
    c0004720:	1141                	addi	sp,sp,-16
    c0004722:	e422                	sd	s0,8(sp)
    c0004724:	fe05079b          	addiw	a5,a0,-32
    c0004728:	0800                	addi	s0,sp,16
    c000472a:	0ff7f793          	andi	a5,a5,255
    c000472e:	05e00713          	li	a4,94
    c0004732:	02f77263          	bgeu	a4,a5,c0004756 <sbi_isprintable+0x36>
    c0004736:	ff45071b          	addiw	a4,a0,-12
    c000473a:	0ff77713          	andi	a4,a4,255
    c000473e:	4785                	li	a5,1
    c0004740:	00e7f763          	bgeu	a5,a4,c000474e <sbi_isprintable+0x2e>
    c0004744:	355d                	addiw	a0,a0,-9
    c0004746:	0ff57513          	andi	a0,a0,255
    c000474a:	00253793          	sltiu	a5,a0,2
    c000474e:	6422                	ld	s0,8(sp)
    c0004750:	853e                	mv	a0,a5
    c0004752:	0141                	addi	sp,sp,16
    c0004754:	8082                	ret
    c0004756:	6422                	ld	s0,8(sp)
    c0004758:	4785                	li	a5,1
    c000475a:	853e                	mv	a0,a5
    c000475c:	0141                	addi	sp,sp,16
    c000475e:	8082                	ret

00000000c0004760 <sbi_getc>:
    c0004760:	00007797          	auipc	a5,0x7
    c0004764:	96878793          	addi	a5,a5,-1688 # c000b0c8 <console_plat>
    c0004768:	6398                	ld	a4,0(a5)
    c000476a:	cb51                	beqz	a4,c00047fe <sbi_getc+0x9e>
    c000476c:	06974683          	lbu	a3,105(a4)
    c0004770:	06874603          	lbu	a2,104(a4)
    c0004774:	06a74783          	lbu	a5,106(a4)
    c0004778:	06b74503          	lbu	a0,107(a4)
    c000477c:	06c74583          	lbu	a1,108(a4)
    c0004780:	06a2                	slli	a3,a3,0x8
    c0004782:	8ed1                	or	a3,a3,a2
    c0004784:	07c2                	slli	a5,a5,0x10
    c0004786:	06d74603          	lbu	a2,109(a4)
    c000478a:	8fd5                	or	a5,a5,a3
    c000478c:	0562                	slli	a0,a0,0x18
    c000478e:	06e74683          	lbu	a3,110(a4)
    c0004792:	8d5d                	or	a0,a0,a5
    c0004794:	1582                	slli	a1,a1,0x20
    c0004796:	06f74783          	lbu	a5,111(a4)
    c000479a:	8dc9                	or	a1,a1,a0
    c000479c:	02861713          	slli	a4,a2,0x28
    c00047a0:	00b76633          	or	a2,a4,a1
    c00047a4:	03069713          	slli	a4,a3,0x30
    c00047a8:	8f51                	or	a4,a4,a2
    c00047aa:	17e2                	slli	a5,a5,0x38
    c00047ac:	8fd9                	or	a5,a5,a4
    c00047ae:	0497c703          	lbu	a4,73(a5)
    c00047b2:	0487c683          	lbu	a3,72(a5)
    c00047b6:	04a7c503          	lbu	a0,74(a5)
    c00047ba:	04b7c583          	lbu	a1,75(a5)
    c00047be:	04c7c603          	lbu	a2,76(a5)
    c00047c2:	0722                	slli	a4,a4,0x8
    c00047c4:	8f55                	or	a4,a4,a3
    c00047c6:	0542                	slli	a0,a0,0x10
    c00047c8:	04d7c683          	lbu	a3,77(a5)
    c00047cc:	8d59                	or	a0,a0,a4
    c00047ce:	05e2                	slli	a1,a1,0x18
    c00047d0:	04e7c703          	lbu	a4,78(a5)
    c00047d4:	8dc9                	or	a1,a1,a0
    c00047d6:	1602                	slli	a2,a2,0x20
    c00047d8:	04f7c783          	lbu	a5,79(a5)
    c00047dc:	8e4d                	or	a2,a2,a1
    c00047de:	16a2                	slli	a3,a3,0x28
    c00047e0:	8ed1                	or	a3,a3,a2
    c00047e2:	1742                	slli	a4,a4,0x30
    c00047e4:	8f55                	or	a4,a4,a3
    c00047e6:	17e2                	slli	a5,a5,0x38
    c00047e8:	8fd9                	or	a5,a5,a4
    c00047ea:	cb91                	beqz	a5,c00047fe <sbi_getc+0x9e>
    c00047ec:	1141                	addi	sp,sp,-16
    c00047ee:	e022                	sd	s0,0(sp)
    c00047f0:	e406                	sd	ra,8(sp)
    c00047f2:	0800                	addi	s0,sp,16
    c00047f4:	9782                	jalr	a5
    c00047f6:	60a2                	ld	ra,8(sp)
    c00047f8:	6402                	ld	s0,0(sp)
    c00047fa:	0141                	addi	sp,sp,16
    c00047fc:	8082                	ret
    c00047fe:	557d                	li	a0,-1
    c0004800:	8082                	ret

00000000c0004802 <sbi_putc>:
    c0004802:	1101                	addi	sp,sp,-32
    c0004804:	e822                	sd	s0,16(sp)
    c0004806:	e426                	sd	s1,8(sp)
    c0004808:	e04a                	sd	s2,0(sp)
    c000480a:	ec06                	sd	ra,24(sp)
    c000480c:	1000                	addi	s0,sp,32
    c000480e:	00007917          	auipc	s2,0x7
    c0004812:	8ba90913          	addi	s2,s2,-1862 # c000b0c8 <console_plat>
    c0004816:	4729                	li	a4,10
    c0004818:	84aa                	mv	s1,a0
    c000481a:	00093783          	ld	a5,0(s2)
    c000481e:	08e50863          	beq	a0,a4,c00048ae <sbi_putc+0xac>
    c0004822:	c3c1                	beqz	a5,c00048a2 <sbi_putc+0xa0>
    c0004824:	0697c703          	lbu	a4,105(a5)
    c0004828:	0687c683          	lbu	a3,104(a5)
    c000482c:	06a7c503          	lbu	a0,106(a5)
    c0004830:	06b7c583          	lbu	a1,107(a5)
    c0004834:	06c7c603          	lbu	a2,108(a5)
    c0004838:	0722                	slli	a4,a4,0x8
    c000483a:	8f55                	or	a4,a4,a3
    c000483c:	0542                	slli	a0,a0,0x10
    c000483e:	06d7c683          	lbu	a3,109(a5)
    c0004842:	8d59                	or	a0,a0,a4
    c0004844:	05e2                	slli	a1,a1,0x18
    c0004846:	06e7c703          	lbu	a4,110(a5)
    c000484a:	8dc9                	or	a1,a1,a0
    c000484c:	1602                	slli	a2,a2,0x20
    c000484e:	06f7c783          	lbu	a5,111(a5)
    c0004852:	8e4d                	or	a2,a2,a1
    c0004854:	16a2                	slli	a3,a3,0x28
    c0004856:	8ed1                	or	a3,a3,a2
    c0004858:	1742                	slli	a4,a4,0x30
    c000485a:	8f55                	or	a4,a4,a3
    c000485c:	17e2                	slli	a5,a5,0x38
    c000485e:	8fd9                	or	a5,a5,a4
    c0004860:	0417c703          	lbu	a4,65(a5)
    c0004864:	0407c683          	lbu	a3,64(a5)
    c0004868:	0427c503          	lbu	a0,66(a5)
    c000486c:	0437c583          	lbu	a1,67(a5)
    c0004870:	0447c603          	lbu	a2,68(a5)
    c0004874:	0722                	slli	a4,a4,0x8
    c0004876:	8f55                	or	a4,a4,a3
    c0004878:	0542                	slli	a0,a0,0x10
    c000487a:	0457c683          	lbu	a3,69(a5)
    c000487e:	8d59                	or	a0,a0,a4
    c0004880:	05e2                	slli	a1,a1,0x18
    c0004882:	0467c703          	lbu	a4,70(a5)
    c0004886:	8dc9                	or	a1,a1,a0
    c0004888:	1602                	slli	a2,a2,0x20
    c000488a:	0477c783          	lbu	a5,71(a5)
    c000488e:	8e4d                	or	a2,a2,a1
    c0004890:	16a2                	slli	a3,a3,0x28
    c0004892:	8ed1                	or	a3,a3,a2
    c0004894:	1742                	slli	a4,a4,0x30
    c0004896:	8f55                	or	a4,a4,a3
    c0004898:	17e2                	slli	a5,a5,0x38
    c000489a:	8fd9                	or	a5,a5,a4
    c000489c:	c399                	beqz	a5,c00048a2 <sbi_putc+0xa0>
    c000489e:	8526                	mv	a0,s1
    c00048a0:	9782                	jalr	a5
    c00048a2:	60e2                	ld	ra,24(sp)
    c00048a4:	6442                	ld	s0,16(sp)
    c00048a6:	64a2                	ld	s1,8(sp)
    c00048a8:	6902                	ld	s2,0(sp)
    c00048aa:	6105                	addi	sp,sp,32
    c00048ac:	8082                	ret
    c00048ae:	dbf5                	beqz	a5,c00048a2 <sbi_putc+0xa0>
    c00048b0:	0697c703          	lbu	a4,105(a5)
    c00048b4:	0687c683          	lbu	a3,104(a5)
    c00048b8:	06a7c503          	lbu	a0,106(a5)
    c00048bc:	06b7c583          	lbu	a1,107(a5)
    c00048c0:	06c7c603          	lbu	a2,108(a5)
    c00048c4:	0722                	slli	a4,a4,0x8
    c00048c6:	8f55                	or	a4,a4,a3
    c00048c8:	0542                	slli	a0,a0,0x10
    c00048ca:	06d7c683          	lbu	a3,109(a5)
    c00048ce:	8d59                	or	a0,a0,a4
    c00048d0:	05e2                	slli	a1,a1,0x18
    c00048d2:	06e7c703          	lbu	a4,110(a5)
    c00048d6:	8dc9                	or	a1,a1,a0
    c00048d8:	1602                	slli	a2,a2,0x20
    c00048da:	06f7c783          	lbu	a5,111(a5)
    c00048de:	8e4d                	or	a2,a2,a1
    c00048e0:	16a2                	slli	a3,a3,0x28
    c00048e2:	8ed1                	or	a3,a3,a2
    c00048e4:	1742                	slli	a4,a4,0x30
    c00048e6:	8f55                	or	a4,a4,a3
    c00048e8:	17e2                	slli	a5,a5,0x38
    c00048ea:	8fd9                	or	a5,a5,a4
    c00048ec:	0417c703          	lbu	a4,65(a5)
    c00048f0:	0407c683          	lbu	a3,64(a5)
    c00048f4:	0427c503          	lbu	a0,66(a5)
    c00048f8:	0437c583          	lbu	a1,67(a5)
    c00048fc:	0447c603          	lbu	a2,68(a5)
    c0004900:	0722                	slli	a4,a4,0x8
    c0004902:	8f55                	or	a4,a4,a3
    c0004904:	0542                	slli	a0,a0,0x10
    c0004906:	0457c683          	lbu	a3,69(a5)
    c000490a:	8d59                	or	a0,a0,a4
    c000490c:	05e2                	slli	a1,a1,0x18
    c000490e:	0467c703          	lbu	a4,70(a5)
    c0004912:	8dc9                	or	a1,a1,a0
    c0004914:	1602                	slli	a2,a2,0x20
    c0004916:	0477c783          	lbu	a5,71(a5)
    c000491a:	8e4d                	or	a2,a2,a1
    c000491c:	16a2                	slli	a3,a3,0x28
    c000491e:	8ed1                	or	a3,a3,a2
    c0004920:	1742                	slli	a4,a4,0x30
    c0004922:	8f55                	or	a4,a4,a3
    c0004924:	17e2                	slli	a5,a5,0x38
    c0004926:	8fd9                	or	a5,a5,a4
    c0004928:	dfad                	beqz	a5,c00048a2 <sbi_putc+0xa0>
    c000492a:	4535                	li	a0,13
    c000492c:	9782                	jalr	a5
    c000492e:	00093783          	ld	a5,0(s2)
    c0004932:	bdc5                	j	c0004822 <sbi_putc+0x20>

00000000c0004934 <printc>:
    c0004934:	c515                	beqz	a0,c0004960 <printc+0x2c>
    c0004936:	611c                	ld	a5,0(a0)
    c0004938:	cf89                	beqz	a5,c0004952 <printc+0x1e>
    c000493a:	cd89                	beqz	a1,c0004954 <printc+0x20>
    c000493c:	4198                	lw	a4,0(a1)
    c000493e:	cb19                	beqz	a4,c0004954 <printc+0x20>
    c0004940:	00c78023          	sb	a2,0(a5)
    c0004944:	611c                	ld	a5,0(a0)
    c0004946:	0785                	addi	a5,a5,1
    c0004948:	e11c                	sd	a5,0(a0)
    c000494a:	419c                	lw	a5,0(a1)
    c000494c:	37fd                	addiw	a5,a5,-1
    c000494e:	c19c                	sw	a5,0(a1)
    c0004950:	8082                	ret
    c0004952:	8082                	ret
    c0004954:	00c78023          	sb	a2,0(a5)
    c0004958:	611c                	ld	a5,0(a0)
    c000495a:	0785                	addi	a5,a5,1
    c000495c:	e11c                	sd	a5,0(a0)
    c000495e:	8082                	ret
    c0004960:	1141                	addi	sp,sp,-16
    c0004962:	e022                	sd	s0,0(sp)
    c0004964:	e406                	sd	ra,8(sp)
    c0004966:	0800                	addi	s0,sp,16
    c0004968:	8532                	mv	a0,a2
    c000496a:	e99ff0ef          	jal	ra,c0004802 <sbi_putc>
    c000496e:	60a2                	ld	ra,8(sp)
    c0004970:	6402                	ld	s0,0(sp)
    c0004972:	0141                	addi	sp,sp,16
    c0004974:	8082                	ret

00000000c0004976 <prints>:
    c0004976:	715d                	addi	sp,sp,-80
    c0004978:	e0a2                	sd	s0,64(sp)
    c000497a:	fc26                	sd	s1,56(sp)
    c000497c:	f84a                	sd	s2,48(sp)
    c000497e:	f052                	sd	s4,32(sp)
    c0004980:	ec56                	sd	s5,24(sp)
    c0004982:	e486                	sd	ra,72(sp)
    c0004984:	f44e                	sd	s3,40(sp)
    c0004986:	e85a                	sd	s6,16(sp)
    c0004988:	e45e                	sd	s7,8(sp)
    c000498a:	0880                	addi	s0,sp,80
    c000498c:	8932                	mv	s2,a2
    c000498e:	84b6                	mv	s1,a3
    c0004990:	8a2a                	mv	s4,a0
    c0004992:	8aae                	mv	s5,a1
    c0004994:	00064603          	lbu	a2,0(a2)
    c0004998:	0ad05263          	blez	a3,c0004a3c <prints+0xc6>
    c000499c:	c261                	beqz	a2,c0004a5c <prints+0xe6>
    c000499e:	4585                	li	a1,1
    c00049a0:	87ca                	mv	a5,s2
    c00049a2:	412585bb          	subw	a1,a1,s2
    c00049a6:	00f589bb          	addw	s3,a1,a5
    c00049aa:	0785                	addi	a5,a5,1
    c00049ac:	0007c683          	lbu	a3,0(a5)
    c00049b0:	fafd                	bnez	a3,c00049a6 <prints+0x30>
    c00049b2:	0099cc63          	blt	s3,s1,c00049ca <prints+0x54>
    c00049b6:	00277993          	andi	s3,a4,2
    c00049ba:	2981                	sext.w	s3,s3
    c00049bc:	08098763          	beqz	s3,c0004a4a <prints+0xd4>
    c00049c0:	03000b93          	li	s7,48
    c00049c4:	4481                	li	s1,0
    c00049c6:	4981                	li	s3,0
    c00049c8:	a02d                	j	c00049f2 <prints+0x7c>
    c00049ca:	413489bb          	subw	s3,s1,s3
    c00049ce:	00277793          	andi	a5,a4,2
    c00049d2:	03000b93          	li	s7,48
    c00049d6:	c7bd                	beqz	a5,c0004a44 <prints+0xce>
    c00049d8:	8b05                	andi	a4,a4,1
    c00049da:	84ce                	mv	s1,s3
    c00049dc:	eb3d                	bnez	a4,c0004a52 <prints+0xdc>
    c00049de:	34fd                	addiw	s1,s1,-1
    c00049e0:	865e                	mv	a2,s7
    c00049e2:	85d6                	mv	a1,s5
    c00049e4:	8552                	mv	a0,s4
    c00049e6:	f4fff0ef          	jal	ra,c0004934 <printc>
    c00049ea:	f8f5                	bnez	s1,c00049de <prints+0x68>
    c00049ec:	00094603          	lbu	a2,0(s2)
    c00049f0:	ca15                	beqz	a2,c0004a24 <prints+0xae>
    c00049f2:	412989bb          	subw	s3,s3,s2
    c00049f6:	2985                	addiw	s3,s3,1
    c00049f8:	85d6                	mv	a1,s5
    c00049fa:	8552                	mv	a0,s4
    c00049fc:	01298b3b          	addw	s6,s3,s2
    c0004a00:	f35ff0ef          	jal	ra,c0004934 <printc>
    c0004a04:	0905                	addi	s2,s2,1
    c0004a06:	00094603          	lbu	a2,0(s2)
    c0004a0a:	f67d                	bnez	a2,c00049f8 <prints+0x82>
    c0004a0c:	04905a63          	blez	s1,c0004a60 <prints+0xea>
    c0004a10:	89a6                	mv	s3,s1
    c0004a12:	34fd                	addiw	s1,s1,-1
    c0004a14:	865e                	mv	a2,s7
    c0004a16:	85d6                	mv	a1,s5
    c0004a18:	8552                	mv	a0,s4
    c0004a1a:	f1bff0ef          	jal	ra,c0004934 <printc>
    c0004a1e:	f8f5                	bnez	s1,c0004a12 <prints+0x9c>
    c0004a20:	013b09bb          	addw	s3,s6,s3
    c0004a24:	60a6                	ld	ra,72(sp)
    c0004a26:	6406                	ld	s0,64(sp)
    c0004a28:	854e                	mv	a0,s3
    c0004a2a:	74e2                	ld	s1,56(sp)
    c0004a2c:	7942                	ld	s2,48(sp)
    c0004a2e:	79a2                	ld	s3,40(sp)
    c0004a30:	7a02                	ld	s4,32(sp)
    c0004a32:	6ae2                	ld	s5,24(sp)
    c0004a34:	6b42                	ld	s6,16(sp)
    c0004a36:	6ba2                	ld	s7,8(sp)
    c0004a38:	6161                	addi	sp,sp,80
    c0004a3a:	8082                	ret
    c0004a3c:	02000b93          	li	s7,32
    c0004a40:	4981                	li	s3,0
    c0004a42:	b77d                	j	c00049f0 <prints+0x7a>
    c0004a44:	02000b93          	li	s7,32
    c0004a48:	bf41                	j	c00049d8 <prints+0x62>
    c0004a4a:	4481                	li	s1,0
    c0004a4c:	02000b93          	li	s7,32
    c0004a50:	b74d                	j	c00049f2 <prints+0x7c>
    c0004a52:	84ce                	mv	s1,s3
    c0004a54:	4b01                	li	s6,0
    c0004a56:	de55                	beqz	a2,c0004a12 <prints+0x9c>
    c0004a58:	4981                	li	s3,0
    c0004a5a:	bf61                	j	c00049f2 <prints+0x7c>
    c0004a5c:	89b6                	mv	s3,a3
    c0004a5e:	bf85                	j	c00049ce <prints+0x58>
    c0004a60:	89da                	mv	s3,s6
    c0004a62:	b7c9                	j	c0004a24 <prints+0xae>

00000000c0004a64 <printi>:
    c0004a64:	7119                	addi	sp,sp,-128
    c0004a66:	f8a2                	sd	s0,112(sp)
    c0004a68:	ecce                	sd	s3,88(sp)
    c0004a6a:	e8d2                	sd	s4,80(sp)
    c0004a6c:	fc86                	sd	ra,120(sp)
    c0004a6e:	f4a6                	sd	s1,104(sp)
    c0004a70:	f0ca                	sd	s2,96(sp)
    c0004a72:	0100                	addi	s0,sp,128
    c0004a74:	00487313          	andi	t1,a6,4
    c0004a78:	8a2e                	mv	s4,a1
    c0004a7a:	89aa                	mv	s3,a0
    c0004a7c:	85b2                	mv	a1,a2
    c0004a7e:	2301                	sext.w	t1,t1
    c0004a80:	c709                	beqz	a4,c0004a8a <printi+0x26>
    c0004a82:	893a                	mv	s2,a4
    c0004a84:	4729                	li	a4,10
    c0004a86:	0ae68f63          	beq	a3,a4,c0004b44 <printi+0xe0>
    c0004a8a:	fc0407a3          	sb	zero,-49(s0)
    c0004a8e:	ea1d                	bnez	a2,c0004ac4 <printi+0x60>
    c0004a90:	03000713          	li	a4,48
    c0004a94:	fce40723          	sb	a4,-50(s0)
    c0004a98:	4901                	li	s2,0
    c0004a9a:	fce40493          	addi	s1,s0,-50
    c0004a9e:	04031b63          	bnez	t1,c0004af4 <printi+0x90>
    c0004aa2:	8626                	mv	a2,s1
    c0004aa4:	85d2                	mv	a1,s4
    c0004aa6:	854e                	mv	a0,s3
    c0004aa8:	8742                	mv	a4,a6
    c0004aaa:	86be                	mv	a3,a5
    c0004aac:	ecbff0ef          	jal	ra,c0004976 <prints>
    c0004ab0:	70e6                	ld	ra,120(sp)
    c0004ab2:	7446                	ld	s0,112(sp)
    c0004ab4:	0125053b          	addw	a0,a0,s2
    c0004ab8:	74a6                	ld	s1,104(sp)
    c0004aba:	7906                	ld	s2,96(sp)
    c0004abc:	69e6                	ld	s3,88(sp)
    c0004abe:	6a46                	ld	s4,80(sp)
    c0004ac0:	6109                	addi	sp,sp,128
    c0004ac2:	8082                	ret
    c0004ac4:	4901                	li	s2,0
    c0004ac6:	fcf40493          	addi	s1,s0,-49
    c0004aca:	4525                	li	a0,9
    c0004acc:	fc688e1b          	addiw	t3,a7,-58
    c0004ad0:	a011                	j	c0004ad4 <printi+0x70>
    c0004ad2:	85b2                	mv	a1,a2
    c0004ad4:	02d5f733          	remu	a4,a1,a3
    c0004ad8:	14fd                	addi	s1,s1,-1
    c0004ada:	02d5d633          	divu	a2,a1,a3
    c0004ade:	00e57363          	bgeu	a0,a4,c0004ae4 <printi+0x80>
    c0004ae2:	9772                	add	a4,a4,t3
    c0004ae4:	0307071b          	addiw	a4,a4,48
    c0004ae8:	00e48023          	sb	a4,0(s1)
    c0004aec:	fed5f3e3          	bgeu	a1,a3,c0004ad2 <printi+0x6e>
    c0004af0:	00030c63          	beqz	t1,c0004b08 <printi+0xa4>
    c0004af4:	4641                	li	a2,16
    c0004af6:	fff48713          	addi	a4,s1,-1
    c0004afa:	02c68463          	beq	a3,a2,c0004b22 <printi+0xbe>
    c0004afe:	03000693          	li	a3,48
    c0004b02:	fed48fa3          	sb	a3,-1(s1)
    c0004b06:	84ba                	mv	s1,a4
    c0004b08:	f8090de3          	beqz	s2,c0004aa2 <printi+0x3e>
    c0004b0c:	c781                	beqz	a5,c0004b14 <printi+0xb0>
    c0004b0e:	00287713          	andi	a4,a6,2
    c0004b12:	e321                	bnez	a4,c0004b52 <printi+0xee>
    c0004b14:	02d00713          	li	a4,45
    c0004b18:	fee48fa3          	sb	a4,-1(s1)
    c0004b1c:	4901                	li	s2,0
    c0004b1e:	14fd                	addi	s1,s1,-1
    c0004b20:	b749                	j	c0004aa2 <printi+0x3e>
    c0004b22:	04100693          	li	a3,65
    c0004b26:	04d88663          	beq	a7,a3,c0004b72 <printi+0x10e>
    c0004b2a:	06100693          	li	a3,97
    c0004b2e:	fcd898e3          	bne	a7,a3,c0004afe <printi+0x9a>
    c0004b32:	ffe48693          	addi	a3,s1,-2
    c0004b36:	07800613          	li	a2,120
    c0004b3a:	fec48fa3          	sb	a2,-1(s1)
    c0004b3e:	84ba                	mv	s1,a4
    c0004b40:	8736                	mv	a4,a3
    c0004b42:	bf75                	j	c0004afe <printi+0x9a>
    c0004b44:	f40653e3          	bgez	a2,c0004a8a <printi+0x26>
    c0004b48:	40c005b3          	neg	a1,a2
    c0004b4c:	fc0407a3          	sb	zero,-49(s0)
    c0004b50:	bf9d                	j	c0004ac6 <printi+0x62>
    c0004b52:	02d00613          	li	a2,45
    c0004b56:	85d2                	mv	a1,s4
    c0004b58:	854e                	mv	a0,s3
    c0004b5a:	f9043023          	sd	a6,-128(s0)
    c0004b5e:	f8f43423          	sd	a5,-120(s0)
    c0004b62:	dd3ff0ef          	jal	ra,c0004934 <printc>
    c0004b66:	f8843783          	ld	a5,-120(s0)
    c0004b6a:	f8043803          	ld	a6,-128(s0)
    c0004b6e:	37fd                	addiw	a5,a5,-1
    c0004b70:	bf0d                	j	c0004aa2 <printi+0x3e>
    c0004b72:	ffe48693          	addi	a3,s1,-2
    c0004b76:	05800613          	li	a2,88
    c0004b7a:	fec48fa3          	sb	a2,-1(s1)
    c0004b7e:	84ba                	mv	s1,a4
    c0004b80:	8736                	mv	a4,a3
    c0004b82:	bfb5                	j	c0004afe <printi+0x9a>

00000000c0004b84 <print>:
    c0004b84:	7175                	addi	sp,sp,-144
    c0004b86:	e122                	sd	s0,128(sp)
    c0004b88:	f0d2                	sd	s4,96(sp)
    c0004b8a:	e506                	sd	ra,136(sp)
    c0004b8c:	fca6                	sd	s1,120(sp)
    c0004b8e:	f8ca                	sd	s2,112(sp)
    c0004b90:	f4ce                	sd	s3,104(sp)
    c0004b92:	ecd6                	sd	s5,88(sp)
    c0004b94:	e8da                	sd	s6,80(sp)
    c0004b96:	e4de                	sd	s7,72(sp)
    c0004b98:	e0e2                	sd	s8,64(sp)
    c0004b9a:	fc66                	sd	s9,56(sp)
    c0004b9c:	f86a                	sd	s10,48(sp)
    c0004b9e:	f46e                	sd	s11,40(sp)
    c0004ba0:	0900                	addi	s0,sp,144
    c0004ba2:	00064783          	lbu	a5,0(a2)
    c0004ba6:	8a2a                	mv	s4,a0
    c0004ba8:	2c078763          	beqz	a5,c0004e76 <print+0x2f2>
    c0004bac:	8c32                	mv	s8,a2
    c0004bae:	8aae                	mv	s5,a1
    c0004bb0:	89b6                	mv	s3,a3
    c0004bb2:	4c81                	li	s9,0
    c0004bb4:	4b01                	li	s6,0
    c0004bb6:	02500913          	li	s2,37
    c0004bba:	03000b93          	li	s7,48
    c0004bbe:	4da5                	li	s11,9
    c0004bc0:	001c0493          	addi	s1,s8,1
    c0004bc4:	13279363          	bne	a5,s2,c0004cea <print+0x166>
    c0004bc8:	001c4603          	lbu	a2,1(s8)
    c0004bcc:	c27d                	beqz	a2,c0004cb2 <print+0x12e>
    c0004bce:	13260d63          	beq	a2,s2,c0004d08 <print+0x184>
    c0004bd2:	02d00793          	li	a5,45
    c0004bd6:	4d01                	li	s10,0
    c0004bd8:	00f61763          	bne	a2,a5,c0004be6 <print+0x62>
    c0004bdc:	002c4603          	lbu	a2,2(s8)
    c0004be0:	002c0493          	addi	s1,s8,2
    c0004be4:	4d05                	li	s10,1
    c0004be6:	02300793          	li	a5,35
    c0004bea:	0ef60a63          	beq	a2,a5,c0004cde <print+0x15a>
    c0004bee:	01761963          	bne	a2,s7,c0004c00 <print+0x7c>
    c0004bf2:	0485                	addi	s1,s1,1
    c0004bf4:	0004c603          	lbu	a2,0(s1)
    c0004bf8:	002d6d13          	ori	s10,s10,2
    c0004bfc:	ff760be3          	beq	a2,s7,c0004bf2 <print+0x6e>
    c0004c00:	fd06071b          	addiw	a4,a2,-48
    c0004c04:	0ff77793          	andi	a5,a4,255
    c0004c08:	4e81                	li	t4,0
    c0004c0a:	02fde363          	bltu	s11,a5,c0004c30 <print+0xac>
    c0004c0e:	0485                	addi	s1,s1,1
    c0004c10:	002e979b          	slliw	a5,t4,0x2
    c0004c14:	0004c603          	lbu	a2,0(s1)
    c0004c18:	01d787bb          	addw	a5,a5,t4
    c0004c1c:	0017979b          	slliw	a5,a5,0x1
    c0004c20:	00f70ebb          	addw	t4,a4,a5
    c0004c24:	fd06071b          	addiw	a4,a2,-48
    c0004c28:	0ff77793          	andi	a5,a4,255
    c0004c2c:	fefdf1e3          	bgeu	s11,a5,c0004c0e <print+0x8a>
    c0004c30:	07300793          	li	a5,115
    c0004c34:	0ef60f63          	beq	a2,a5,c0004d32 <print+0x1ae>
    c0004c38:	06400793          	li	a5,100
    c0004c3c:	0cf60863          	beq	a2,a5,c0004d0c <print+0x188>
    c0004c40:	06900793          	li	a5,105
    c0004c44:	0cf60463          	beq	a2,a5,c0004d0c <print+0x188>
    c0004c48:	07800793          	li	a5,120
    c0004c4c:	16f60263          	beq	a2,a5,c0004db0 <print+0x22c>
    c0004c50:	05800793          	li	a5,88
    c0004c54:	1cf60063          	beq	a2,a5,c0004e14 <print+0x290>
    c0004c58:	07500793          	li	a5,117
    c0004c5c:	1cf60163          	beq	a2,a5,c0004e1e <print+0x29a>
    c0004c60:	07000793          	li	a5,112
    c0004c64:	1cf60663          	beq	a2,a5,c0004e30 <print+0x2ac>
    c0004c68:	05000793          	li	a5,80
    c0004c6c:	1ef60563          	beq	a2,a5,c0004e56 <print+0x2d2>
    c0004c70:	06c00793          	li	a5,108
    c0004c74:	00148c13          	addi	s8,s1,1
    c0004c78:	0cf60d63          	beq	a2,a5,c0004d52 <print+0x1ce>
    c0004c7c:	0004c703          	lbu	a4,0(s1)
    c0004c80:	06300793          	li	a5,99
    c0004c84:	06f71d63          	bne	a4,a5,c0004cfe <print+0x17a>
    c0004c88:	0009a783          	lw	a5,0(s3)
    c0004c8c:	876a                	mv	a4,s10
    c0004c8e:	86f6                	mv	a3,t4
    c0004c90:	f8840613          	addi	a2,s0,-120
    c0004c94:	85d6                	mv	a1,s5
    c0004c96:	8552                	mv	a0,s4
    c0004c98:	f8f40423          	sb	a5,-120(s0)
    c0004c9c:	f80404a3          	sb	zero,-119(s0)
    c0004ca0:	cd7ff0ef          	jal	ra,c0004976 <prints>
    c0004ca4:	0014c783          	lbu	a5,1(s1)
    c0004ca8:	09a1                	addi	s3,s3,8
    c0004caa:	01950cbb          	addw	s9,a0,s9
    c0004cae:	2b11                	addiw	s6,s6,4
    c0004cb0:	fb81                	bnez	a5,c0004bc0 <print+0x3c>
    c0004cb2:	000a0663          	beqz	s4,c0004cbe <print+0x13a>
    c0004cb6:	000a3783          	ld	a5,0(s4)
    c0004cba:	00078023          	sb	zero,0(a5)
    c0004cbe:	60aa                	ld	ra,136(sp)
    c0004cc0:	640a                	ld	s0,128(sp)
    c0004cc2:	8566                	mv	a0,s9
    c0004cc4:	74e6                	ld	s1,120(sp)
    c0004cc6:	7946                	ld	s2,112(sp)
    c0004cc8:	79a6                	ld	s3,104(sp)
    c0004cca:	7a06                	ld	s4,96(sp)
    c0004ccc:	6ae6                	ld	s5,88(sp)
    c0004cce:	6b46                	ld	s6,80(sp)
    c0004cd0:	6ba6                	ld	s7,72(sp)
    c0004cd2:	6c06                	ld	s8,64(sp)
    c0004cd4:	7ce2                	ld	s9,56(sp)
    c0004cd6:	7d42                	ld	s10,48(sp)
    c0004cd8:	7da2                	ld	s11,40(sp)
    c0004cda:	6149                	addi	sp,sp,144
    c0004cdc:	8082                	ret
    c0004cde:	0014c603          	lbu	a2,1(s1)
    c0004ce2:	004d6d13          	ori	s10,s10,4
    c0004ce6:	0485                	addi	s1,s1,1
    c0004ce8:	b719                	j	c0004bee <print+0x6a>
    c0004cea:	87a6                	mv	a5,s1
    c0004cec:	000c4603          	lbu	a2,0(s8)
    c0004cf0:	84e2                	mv	s1,s8
    c0004cf2:	8c3e                	mv	s8,a5
    c0004cf4:	85d6                	mv	a1,s5
    c0004cf6:	8552                	mv	a0,s4
    c0004cf8:	c3dff0ef          	jal	ra,c0004934 <printc>
    c0004cfc:	2c85                	addiw	s9,s9,1
    c0004cfe:	0014c783          	lbu	a5,1(s1)
    c0004d02:	ea079fe3          	bnez	a5,c0004bc0 <print+0x3c>
    c0004d06:	b775                	j	c0004cb2 <print+0x12e>
    c0004d08:	0c09                	addi	s8,s8,2
    c0004d0a:	b7ed                	j	c0004cf4 <print+0x170>
    c0004d0c:	0009a603          	lw	a2,0(s3)
    c0004d10:	03000893          	li	a7,48
    c0004d14:	886a                	mv	a6,s10
    c0004d16:	87f6                	mv	a5,t4
    c0004d18:	4705                	li	a4,1
    c0004d1a:	46a9                	li	a3,10
    c0004d1c:	85d6                	mv	a1,s5
    c0004d1e:	8552                	mv	a0,s4
    c0004d20:	d45ff0ef          	jal	ra,c0004a64 <printi>
    c0004d24:	09a1                	addi	s3,s3,8
    c0004d26:	01950cbb          	addw	s9,a0,s9
    c0004d2a:	2b11                	addiw	s6,s6,4
    c0004d2c:	00148c13          	addi	s8,s1,1
    c0004d30:	b7f9                	j	c0004cfe <print+0x17a>
    c0004d32:	0009b603          	ld	a2,0(s3)
    c0004d36:	2b21                	addiw	s6,s6,8
    c0004d38:	09a1                	addi	s3,s3,8
    c0004d3a:	c641                	beqz	a2,c0004dc2 <print+0x23e>
    c0004d3c:	876a                	mv	a4,s10
    c0004d3e:	86f6                	mv	a3,t4
    c0004d40:	85d6                	mv	a1,s5
    c0004d42:	8552                	mv	a0,s4
    c0004d44:	c33ff0ef          	jal	ra,c0004976 <prints>
    c0004d48:	01950cbb          	addw	s9,a0,s9
    c0004d4c:	00148c13          	addi	s8,s1,1
    c0004d50:	b77d                	j	c0004cfe <print+0x17a>
    c0004d52:	0014c783          	lbu	a5,1(s1)
    c0004d56:	00898f93          	addi	t6,s3,8
    c0004d5a:	12c78063          	beq	a5,a2,c0004e7a <print+0x2f6>
    c0004d5e:	07500713          	li	a4,117
    c0004d62:	0009b603          	ld	a2,0(s3)
    c0004d66:	00148c13          	addi	s8,s1,1
    c0004d6a:	0ee78b63          	beq	a5,a4,c0004e60 <print+0x2dc>
    c0004d6e:	07800713          	li	a4,120
    c0004d72:	2b21                	addiw	s6,s6,8
    c0004d74:	06e78663          	beq	a5,a4,c0004de0 <print+0x25c>
    c0004d78:	05800713          	li	a4,88
    c0004d7c:	f7f43823          	sd	t6,-144(s0)
    c0004d80:	04100893          	li	a7,65
    c0004d84:	06e78263          	beq	a5,a4,c0004de8 <print+0x264>
    c0004d88:	87f6                	mv	a5,t4
    c0004d8a:	03000893          	li	a7,48
    c0004d8e:	886a                	mv	a6,s10
    c0004d90:	4705                	li	a4,1
    c0004d92:	46a9                	li	a3,10
    c0004d94:	85d6                	mv	a1,s5
    c0004d96:	8552                	mv	a0,s4
    c0004d98:	f7d43c23          	sd	t4,-136(s0)
    c0004d9c:	cc9ff0ef          	jal	ra,c0004a64 <printi>
    c0004da0:	f7043f83          	ld	t6,-144(s0)
    c0004da4:	01950cbb          	addw	s9,a0,s9
    c0004da8:	f7843e83          	ld	t4,-136(s0)
    c0004dac:	89fe                	mv	s3,t6
    c0004dae:	b5f9                	j	c0004c7c <print+0xf8>
    c0004db0:	0009e603          	lwu	a2,0(s3)
    c0004db4:	06100893          	li	a7,97
    c0004db8:	886a                	mv	a6,s10
    c0004dba:	87f6                	mv	a5,t4
    c0004dbc:	4701                	li	a4,0
    c0004dbe:	46c1                	li	a3,16
    c0004dc0:	bfb1                	j	c0004d1c <print+0x198>
    c0004dc2:	00005617          	auipc	a2,0x5
    c0004dc6:	af660613          	addi	a2,a2,-1290 # c00098b8 <platform_ops+0x1f8>
    c0004dca:	876a                	mv	a4,s10
    c0004dcc:	86f6                	mv	a3,t4
    c0004dce:	85d6                	mv	a1,s5
    c0004dd0:	8552                	mv	a0,s4
    c0004dd2:	ba5ff0ef          	jal	ra,c0004976 <prints>
    c0004dd6:	01950cbb          	addw	s9,a0,s9
    c0004dda:	00148c13          	addi	s8,s1,1
    c0004dde:	b705                	j	c0004cfe <print+0x17a>
    c0004de0:	f7f43823          	sd	t6,-144(s0)
    c0004de4:	06100893          	li	a7,97
    c0004de8:	886a                	mv	a6,s10
    c0004dea:	87f6                	mv	a5,t4
    c0004dec:	f7d43c23          	sd	t4,-136(s0)
    c0004df0:	4701                	li	a4,0
    c0004df2:	46c1                	li	a3,16
    c0004df4:	85d6                	mv	a1,s5
    c0004df6:	8552                	mv	a0,s4
    c0004df8:	c6dff0ef          	jal	ra,c0004a64 <printi>
    c0004dfc:	f7043f83          	ld	t6,-144(s0)
    c0004e00:	00248793          	addi	a5,s1,2
    c0004e04:	01950cbb          	addw	s9,a0,s9
    c0004e08:	84e2                	mv	s1,s8
    c0004e0a:	89fe                	mv	s3,t6
    c0004e0c:	8c3e                	mv	s8,a5
    c0004e0e:	f7843e83          	ld	t4,-136(s0)
    c0004e12:	b5ad                	j	c0004c7c <print+0xf8>
    c0004e14:	0009e603          	lwu	a2,0(s3)
    c0004e18:	04100893          	li	a7,65
    c0004e1c:	bf71                	j	c0004db8 <print+0x234>
    c0004e1e:	0009e603          	lwu	a2,0(s3)
    c0004e22:	06100893          	li	a7,97
    c0004e26:	886a                	mv	a6,s10
    c0004e28:	87f6                	mv	a5,t4
    c0004e2a:	4701                	li	a4,0
    c0004e2c:	46a9                	li	a3,10
    c0004e2e:	b5fd                	j	c0004d1c <print+0x198>
    c0004e30:	0009b603          	ld	a2,0(s3)
    c0004e34:	06100893          	li	a7,97
    c0004e38:	886a                	mv	a6,s10
    c0004e3a:	87f6                	mv	a5,t4
    c0004e3c:	4701                	li	a4,0
    c0004e3e:	46c1                	li	a3,16
    c0004e40:	85d6                	mv	a1,s5
    c0004e42:	8552                	mv	a0,s4
    c0004e44:	c21ff0ef          	jal	ra,c0004a64 <printi>
    c0004e48:	09a1                	addi	s3,s3,8
    c0004e4a:	01950cbb          	addw	s9,a0,s9
    c0004e4e:	2b21                	addiw	s6,s6,8
    c0004e50:	00148c13          	addi	s8,s1,1
    c0004e54:	b56d                	j	c0004cfe <print+0x17a>
    c0004e56:	0009b603          	ld	a2,0(s3)
    c0004e5a:	04100893          	li	a7,65
    c0004e5e:	bfe9                	j	c0004e38 <print+0x2b4>
    c0004e60:	f7f43823          	sd	t6,-144(s0)
    c0004e64:	06100893          	li	a7,97
    c0004e68:	886a                	mv	a6,s10
    c0004e6a:	87f6                	mv	a5,t4
    c0004e6c:	f7d43c23          	sd	t4,-136(s0)
    c0004e70:	4701                	li	a4,0
    c0004e72:	46a9                	li	a3,10
    c0004e74:	b741                	j	c0004df4 <print+0x270>
    c0004e76:	4c81                	li	s9,0
    c0004e78:	bd2d                	j	c0004cb2 <print+0x12e>
    c0004e7a:	007b7793          	andi	a5,s6,7
    c0004e7e:	cbd1                	beqz	a5,c0004f12 <print+0x38e>
    c0004e80:	2b11                	addiw	s6,s6,4
    c0004e82:	a021                	j	c0004e8a <print+0x306>
    c0004e84:	89fe                	mv	s3,t6
    c0004e86:	8b3a                	mv	s6,a4
    c0004e88:	0fa1                	addi	t6,t6,8
    c0004e8a:	007b7793          	andi	a5,s6,7
    c0004e8e:	86fe                	mv	a3,t6
    c0004e90:	004b071b          	addiw	a4,s6,4
    c0004e94:	fbe5                	bnez	a5,c0004e84 <print+0x300>
    c0004e96:	09c1                	addi	s3,s3,16
    c0004e98:	0024c783          	lbu	a5,2(s1)
    c0004e9c:	07500713          	li	a4,117
    c0004ea0:	2b21                	addiw	s6,s6,8
    c0004ea2:	6290                	ld	a2,0(a3)
    c0004ea4:	06e78063          	beq	a5,a4,c0004f04 <print+0x380>
    c0004ea8:	07800713          	li	a4,120
    c0004eac:	06100893          	li	a7,97
    c0004eb0:	02e78a63          	beq	a5,a4,c0004ee4 <print+0x360>
    c0004eb4:	05800713          	li	a4,88
    c0004eb8:	02e78463          	beq	a5,a4,c0004ee0 <print+0x35c>
    c0004ebc:	886a                	mv	a6,s10
    c0004ebe:	03000893          	li	a7,48
    c0004ec2:	87f6                	mv	a5,t4
    c0004ec4:	4705                	li	a4,1
    c0004ec6:	46a9                	li	a3,10
    c0004ec8:	85d6                	mv	a1,s5
    c0004eca:	8552                	mv	a0,s4
    c0004ecc:	00148d13          	addi	s10,s1,1
    c0004ed0:	b95ff0ef          	jal	ra,c0004a64 <printi>
    c0004ed4:	00248c13          	addi	s8,s1,2
    c0004ed8:	01950cbb          	addw	s9,a0,s9
    c0004edc:	84ea                	mv	s1,s10
    c0004ede:	b505                	j	c0004cfe <print+0x17a>
    c0004ee0:	04100893          	li	a7,65
    c0004ee4:	886a                	mv	a6,s10
    c0004ee6:	87f6                	mv	a5,t4
    c0004ee8:	4701                	li	a4,0
    c0004eea:	46c1                	li	a3,16
    c0004eec:	85d6                	mv	a1,s5
    c0004eee:	8552                	mv	a0,s4
    c0004ef0:	00248d13          	addi	s10,s1,2
    c0004ef4:	b71ff0ef          	jal	ra,c0004a64 <printi>
    c0004ef8:	00348c13          	addi	s8,s1,3
    c0004efc:	01950cbb          	addw	s9,a0,s9
    c0004f00:	84ea                	mv	s1,s10
    c0004f02:	bbf5                	j	c0004cfe <print+0x17a>
    c0004f04:	06100893          	li	a7,97
    c0004f08:	886a                	mv	a6,s10
    c0004f0a:	87f6                	mv	a5,t4
    c0004f0c:	4701                	li	a4,0
    c0004f0e:	46a9                	li	a3,10
    c0004f10:	bff1                	j	c0004eec <print+0x368>
    c0004f12:	86ce                	mv	a3,s3
    c0004f14:	2b01                	sext.w	s6,s6
    c0004f16:	89fe                	mv	s3,t6
    c0004f18:	b741                	j	c0004e98 <print+0x314>

00000000c0004f1a <sbi_puts>:
    c0004f1a:	1101                	addi	sp,sp,-32
    c0004f1c:	e822                	sd	s0,16(sp)
    c0004f1e:	e426                	sd	s1,8(sp)
    c0004f20:	ec06                	sd	ra,24(sp)
    c0004f22:	1000                	addi	s0,sp,32
    c0004f24:	84aa                	mv	s1,a0
    c0004f26:	00006517          	auipc	a0,0x6
    c0004f2a:	1aa50513          	addi	a0,a0,426 # c000b0d0 <console_out_lock>
    c0004f2e:	fc0ff0ef          	jal	ra,c00046ee <spin_lock>
    c0004f32:	0004c503          	lbu	a0,0(s1)
    c0004f36:	c519                	beqz	a0,c0004f44 <sbi_puts+0x2a>
    c0004f38:	0485                	addi	s1,s1,1
    c0004f3a:	8c9ff0ef          	jal	ra,c0004802 <sbi_putc>
    c0004f3e:	0004c503          	lbu	a0,0(s1)
    c0004f42:	f97d                	bnez	a0,c0004f38 <sbi_puts+0x1e>
    c0004f44:	00006517          	auipc	a0,0x6
    c0004f48:	18c50513          	addi	a0,a0,396 # c000b0d0 <console_out_lock>
    c0004f4c:	fc0ff0ef          	jal	ra,c000470c <spin_unlock>
    c0004f50:	60e2                	ld	ra,24(sp)
    c0004f52:	6442                	ld	s0,16(sp)
    c0004f54:	64a2                	ld	s1,8(sp)
    c0004f56:	6105                	addi	sp,sp,32
    c0004f58:	8082                	ret

00000000c0004f5a <sbi_gets>:
    c0004f5a:	7139                	addi	sp,sp,-64
    c0004f5c:	f822                	sd	s0,48(sp)
    c0004f5e:	f04a                	sd	s2,32(sp)
    c0004f60:	fc06                	sd	ra,56(sp)
    c0004f62:	f426                	sd	s1,40(sp)
    c0004f64:	ec4e                	sd	s3,24(sp)
    c0004f66:	e852                	sd	s4,16(sp)
    c0004f68:	e456                	sd	s5,8(sp)
    c0004f6a:	0080                	addi	s0,sp,64
    c0004f6c:	00006917          	auipc	s2,0x6
    c0004f70:	15c90913          	addi	s2,s2,348 # c000b0c8 <console_plat>
    c0004f74:	00093783          	ld	a5,0(s2)
    c0004f78:	16078063          	beqz	a5,c00050d8 <sbi_gets+0x17e>
    c0004f7c:	0697c683          	lbu	a3,105(a5)
    c0004f80:	0687c803          	lbu	a6,104(a5)
    c0004f84:	06a7c703          	lbu	a4,106(a5)
    c0004f88:	06b7c303          	lbu	t1,107(a5)
    c0004f8c:	06c7c883          	lbu	a7,108(a5)
    c0004f90:	06a2                	slli	a3,a3,0x8
    c0004f92:	0106e6b3          	or	a3,a3,a6
    c0004f96:	0742                	slli	a4,a4,0x10
    c0004f98:	06d7c803          	lbu	a6,109(a5)
    c0004f9c:	8f55                	or	a4,a4,a3
    c0004f9e:	0362                	slli	t1,t1,0x18
    c0004fa0:	06e7c683          	lbu	a3,110(a5)
    c0004fa4:	00e36333          	or	t1,t1,a4
    c0004fa8:	1882                	slli	a7,a7,0x20
    c0004faa:	06f7c703          	lbu	a4,111(a5)
    c0004fae:	0068e8b3          	or	a7,a7,t1
    c0004fb2:	02881793          	slli	a5,a6,0x28
    c0004fb6:	0117e833          	or	a6,a5,a7
    c0004fba:	03069793          	slli	a5,a3,0x30
    c0004fbe:	0107e7b3          	or	a5,a5,a6
    c0004fc2:	1762                	slli	a4,a4,0x38
    c0004fc4:	8f5d                	or	a4,a4,a5
    c0004fc6:	04974683          	lbu	a3,73(a4)
    c0004fca:	04874803          	lbu	a6,72(a4)
    c0004fce:	04a74783          	lbu	a5,74(a4)
    c0004fd2:	04b74303          	lbu	t1,75(a4)
    c0004fd6:	04c74883          	lbu	a7,76(a4)
    c0004fda:	06a2                	slli	a3,a3,0x8
    c0004fdc:	0106e6b3          	or	a3,a3,a6
    c0004fe0:	07c2                	slli	a5,a5,0x10
    c0004fe2:	04d74803          	lbu	a6,77(a4)
    c0004fe6:	8fd5                	or	a5,a5,a3
    c0004fe8:	0362                	slli	t1,t1,0x18
    c0004fea:	04e74683          	lbu	a3,78(a4)
    c0004fee:	00f36333          	or	t1,t1,a5
    c0004ff2:	1882                	slli	a7,a7,0x20
    c0004ff4:	04f74783          	lbu	a5,79(a4)
    c0004ff8:	0068e8b3          	or	a7,a7,t1
    c0004ffc:	02881713          	slli	a4,a6,0x28
    c0005000:	01176833          	or	a6,a4,a7
    c0005004:	03069713          	slli	a4,a3,0x30
    c0005008:	01076733          	or	a4,a4,a6
    c000500c:	17e2                	slli	a5,a5,0x38
    c000500e:	8fd9                	or	a5,a5,a4
    c0005010:	8aaa                	mv	s5,a0
    c0005012:	cbc5                	beqz	a5,c00050c2 <sbi_gets+0x168>
    c0005014:	0006099b          	sext.w	s3,a2
    c0005018:	00a584bb          	addw	s1,a1,a0
    c000501c:	4a05                	li	s4,1
    c000501e:	a869                	j	c00050b8 <sbi_gets+0x15e>
    c0005020:	0a054163          	bltz	a0,c00050c2 <sbi_gets+0x168>
    c0005024:	08fa5f63          	bge	s4,a5,c00050c2 <sbi_gets+0x168>
    c0005028:	00093703          	ld	a4,0(s2)
    c000502c:	00aa8023          	sb	a0,0(s5)
    c0005030:	0a85                	addi	s5,s5,1
    c0005032:	cb41                	beqz	a4,c00050c2 <sbi_gets+0x168>
    c0005034:	06974683          	lbu	a3,105(a4)
    c0005038:	06874603          	lbu	a2,104(a4)
    c000503c:	06a74783          	lbu	a5,106(a4)
    c0005040:	06b74503          	lbu	a0,107(a4)
    c0005044:	06c74583          	lbu	a1,108(a4)
    c0005048:	06a2                	slli	a3,a3,0x8
    c000504a:	8ed1                	or	a3,a3,a2
    c000504c:	07c2                	slli	a5,a5,0x10
    c000504e:	06d74603          	lbu	a2,109(a4)
    c0005052:	8fd5                	or	a5,a5,a3
    c0005054:	0562                	slli	a0,a0,0x18
    c0005056:	06e74683          	lbu	a3,110(a4)
    c000505a:	8d5d                	or	a0,a0,a5
    c000505c:	1582                	slli	a1,a1,0x20
    c000505e:	06f74783          	lbu	a5,111(a4)
    c0005062:	8dc9                	or	a1,a1,a0
    c0005064:	02861713          	slli	a4,a2,0x28
    c0005068:	00b76633          	or	a2,a4,a1
    c000506c:	03069713          	slli	a4,a3,0x30
    c0005070:	8f51                	or	a4,a4,a2
    c0005072:	17e2                	slli	a5,a5,0x38
    c0005074:	8fd9                	or	a5,a5,a4
    c0005076:	0497c703          	lbu	a4,73(a5)
    c000507a:	0487c683          	lbu	a3,72(a5)
    c000507e:	04a7c803          	lbu	a6,74(a5)
    c0005082:	04b7c583          	lbu	a1,75(a5)
    c0005086:	04c7c603          	lbu	a2,76(a5)
    c000508a:	0722                	slli	a4,a4,0x8
    c000508c:	8f55                	or	a4,a4,a3
    c000508e:	0842                	slli	a6,a6,0x10
    c0005090:	04d7c683          	lbu	a3,77(a5)
    c0005094:	00e86833          	or	a6,a6,a4
    c0005098:	05e2                	slli	a1,a1,0x18
    c000509a:	04e7c703          	lbu	a4,78(a5)
    c000509e:	0105e5b3          	or	a1,a1,a6
    c00050a2:	1602                	slli	a2,a2,0x20
    c00050a4:	04f7c783          	lbu	a5,79(a5)
    c00050a8:	8e4d                	or	a2,a2,a1
    c00050aa:	16a2                	slli	a3,a3,0x28
    c00050ac:	8ed1                	or	a3,a3,a2
    c00050ae:	1742                	slli	a4,a4,0x30
    c00050b0:	8f55                	or	a4,a4,a3
    c00050b2:	17e2                	slli	a5,a5,0x38
    c00050b4:	8fd9                	or	a5,a5,a4
    c00050b6:	c791                	beqz	a5,c00050c2 <sbi_gets+0x168>
    c00050b8:	9782                	jalr	a5
    c00050ba:	415487bb          	subw	a5,s1,s5
    c00050be:	f6a991e3          	bne	s3,a0,c0005020 <sbi_gets+0xc6>
    c00050c2:	000a8023          	sb	zero,0(s5)
    c00050c6:	70e2                	ld	ra,56(sp)
    c00050c8:	7442                	ld	s0,48(sp)
    c00050ca:	74a2                	ld	s1,40(sp)
    c00050cc:	7902                	ld	s2,32(sp)
    c00050ce:	69e2                	ld	s3,24(sp)
    c00050d0:	6a42                	ld	s4,16(sp)
    c00050d2:	6aa2                	ld	s5,8(sp)
    c00050d4:	6121                	addi	sp,sp,64
    c00050d6:	8082                	ret
    c00050d8:	8aaa                	mv	s5,a0
    c00050da:	b7e5                	j	c00050c2 <sbi_gets+0x168>

00000000c00050dc <sbi_sprintf>:
    c00050dc:	711d                	addi	sp,sp,-96
    c00050de:	f022                	sd	s0,32(sp)
    c00050e0:	f406                	sd	ra,40(sp)
    c00050e2:	1800                	addi	s0,sp,48
    c00050e4:	fca43c23          	sd	a0,-40(s0)
    c00050e8:	e010                	sd	a2,0(s0)
    c00050ea:	e414                	sd	a3,8(s0)
    c00050ec:	862e                	mv	a2,a1
    c00050ee:	86a2                	mv	a3,s0
    c00050f0:	fd840513          	addi	a0,s0,-40
    c00050f4:	4581                	li	a1,0
    c00050f6:	e818                	sd	a4,16(s0)
    c00050f8:	ec1c                	sd	a5,24(s0)
    c00050fa:	03043023          	sd	a6,32(s0)
    c00050fe:	03143423          	sd	a7,40(s0)
    c0005102:	fe843423          	sd	s0,-24(s0)
    c0005106:	a7fff0ef          	jal	ra,c0004b84 <print>
    c000510a:	70a2                	ld	ra,40(sp)
    c000510c:	7402                	ld	s0,32(sp)
    c000510e:	6125                	addi	sp,sp,96
    c0005110:	8082                	ret

00000000c0005112 <sbi_snprintf>:
    c0005112:	711d                	addi	sp,sp,-96
    c0005114:	f022                	sd	s0,32(sp)
    c0005116:	f406                	sd	ra,40(sp)
    c0005118:	1800                	addi	s0,sp,48
    c000511a:	00840313          	addi	t1,s0,8
    c000511e:	fca43c23          	sd	a0,-40(s0)
    c0005122:	e414                	sd	a3,8(s0)
    c0005124:	fcb42a23          	sw	a1,-44(s0)
    c0005128:	fd840513          	addi	a0,s0,-40
    c000512c:	fd440593          	addi	a1,s0,-44
    c0005130:	869a                	mv	a3,t1
    c0005132:	e818                	sd	a4,16(s0)
    c0005134:	ec1c                	sd	a5,24(s0)
    c0005136:	03043023          	sd	a6,32(s0)
    c000513a:	03143423          	sd	a7,40(s0)
    c000513e:	fe643423          	sd	t1,-24(s0)
    c0005142:	a43ff0ef          	jal	ra,c0004b84 <print>
    c0005146:	70a2                	ld	ra,40(sp)
    c0005148:	7402                	ld	s0,32(sp)
    c000514a:	6125                	addi	sp,sp,96
    c000514c:	8082                	ret

00000000c000514e <sbi_printf>:
    c000514e:	7159                	addi	sp,sp,-112
    c0005150:	f406                	sd	ra,40(sp)
    c0005152:	f022                	sd	s0,32(sp)
    c0005154:	ec26                	sd	s1,24(sp)
    c0005156:	1800                	addi	s0,sp,48
    c0005158:	e84a                	sd	s2,16(sp)
    c000515a:	00006497          	auipc	s1,0x6
    c000515e:	f7648493          	addi	s1,s1,-138 # c000b0d0 <console_out_lock>
    c0005162:	892a                	mv	s2,a0
    c0005164:	8526                	mv	a0,s1
    c0005166:	f018                	sd	a4,32(s0)
    c0005168:	03043823          	sd	a6,48(s0)
    c000516c:	03143c23          	sd	a7,56(s0)
    c0005170:	f41c                	sd	a5,40(s0)
    c0005172:	e40c                	sd	a1,8(s0)
    c0005174:	e810                	sd	a2,16(s0)
    c0005176:	ec14                	sd	a3,24(s0)
    c0005178:	d76ff0ef          	jal	ra,c00046ee <spin_lock>
    c000517c:	00840793          	addi	a5,s0,8
    c0005180:	864a                	mv	a2,s2
    c0005182:	86be                	mv	a3,a5
    c0005184:	4581                	li	a1,0
    c0005186:	4501                	li	a0,0
    c0005188:	fcf43c23          	sd	a5,-40(s0)
    c000518c:	9f9ff0ef          	jal	ra,c0004b84 <print>
    c0005190:	892a                	mv	s2,a0
    c0005192:	8526                	mv	a0,s1
    c0005194:	d78ff0ef          	jal	ra,c000470c <spin_unlock>
    c0005198:	70a2                	ld	ra,40(sp)
    c000519a:	7402                	ld	s0,32(sp)
    c000519c:	854a                	mv	a0,s2
    c000519e:	64e2                	ld	s1,24(sp)
    c00051a0:	6942                	ld	s2,16(sp)
    c00051a2:	6165                	addi	sp,sp,112
    c00051a4:	8082                	ret

00000000c00051a6 <sbi_dprintf>:
    c00051a6:	715d                	addi	sp,sp,-80
    c00051a8:	e822                	sd	s0,16(sp)
    c00051aa:	ec06                	sd	ra,24(sp)
    c00051ac:	1000                	addi	s0,sp,32
    c00051ae:	e010                	sd	a2,0(s0)
    c00051b0:	e414                	sd	a3,8(s0)
    c00051b2:	e818                	sd	a4,16(s0)
    c00051b4:	ec1c                	sd	a5,24(s0)
    c00051b6:	03043023          	sd	a6,32(s0)
    c00051ba:	03143423          	sd	a7,40(s0)
    c00051be:	fe843423          	sd	s0,-24(s0)
    c00051c2:	04854783          	lbu	a5,72(a0)
    c00051c6:	4501                	li	a0,0
    c00051c8:	8b89                	andi	a5,a5,2
    c00051ca:	e789                	bnez	a5,c00051d4 <sbi_dprintf+0x2e>
    c00051cc:	60e2                	ld	ra,24(sp)
    c00051ce:	6442                	ld	s0,16(sp)
    c00051d0:	6161                	addi	sp,sp,80
    c00051d2:	8082                	ret
    c00051d4:	862e                	mv	a2,a1
    c00051d6:	86a2                	mv	a3,s0
    c00051d8:	4581                	li	a1,0
    c00051da:	4501                	li	a0,0
    c00051dc:	9a9ff0ef          	jal	ra,c0004b84 <print>
    c00051e0:	60e2                	ld	ra,24(sp)
    c00051e2:	6442                	ld	s0,16(sp)
    c00051e4:	6161                	addi	sp,sp,80
    c00051e6:	8082                	ret

00000000c00051e8 <sbi_console_init>:
    c00051e8:	03154783          	lbu	a5,49(a0)
    c00051ec:	03054703          	lbu	a4,48(a0)
    c00051f0:	03254803          	lbu	a6,50(a0)
    c00051f4:	03354583          	lbu	a1,51(a0)
    c00051f8:	03454603          	lbu	a2,52(a0)
    c00051fc:	07a2                	slli	a5,a5,0x8
    c00051fe:	8fd9                	or	a5,a5,a4
    c0005200:	03554683          	lbu	a3,53(a0)
    c0005204:	0842                	slli	a6,a6,0x10
    c0005206:	03654703          	lbu	a4,54(a0)
    c000520a:	00f86833          	or	a6,a6,a5
    c000520e:	05e2                	slli	a1,a1,0x18
    c0005210:	03754783          	lbu	a5,55(a0)
    c0005214:	0105e5b3          	or	a1,a1,a6
    c0005218:	1602                	slli	a2,a2,0x20
    c000521a:	8e4d                	or	a2,a2,a1
    c000521c:	16a2                	slli	a3,a3,0x28
    c000521e:	8ed1                	or	a3,a3,a2
    c0005220:	1742                	slli	a4,a4,0x30
    c0005222:	8f55                	or	a4,a4,a3
    c0005224:	17e2                	slli	a5,a5,0x38
    c0005226:	8fd9                	or	a5,a5,a4
    c0005228:	00006717          	auipc	a4,0x6
    c000522c:	eaf73023          	sd	a5,-352(a4) # c000b0c8 <console_plat>
    c0005230:	cbc9                	beqz	a5,c00052c2 <sbi_console_init+0xda>
    c0005232:	0697c703          	lbu	a4,105(a5)
    c0005236:	0687c683          	lbu	a3,104(a5)
    c000523a:	06a7c503          	lbu	a0,106(a5)
    c000523e:	06b7c583          	lbu	a1,107(a5)
    c0005242:	06c7c603          	lbu	a2,108(a5)
    c0005246:	0722                	slli	a4,a4,0x8
    c0005248:	8f55                	or	a4,a4,a3
    c000524a:	0542                	slli	a0,a0,0x10
    c000524c:	06d7c683          	lbu	a3,109(a5)
    c0005250:	8d59                	or	a0,a0,a4
    c0005252:	05e2                	slli	a1,a1,0x18
    c0005254:	06e7c703          	lbu	a4,110(a5)
    c0005258:	8dc9                	or	a1,a1,a0
    c000525a:	1602                	slli	a2,a2,0x20
    c000525c:	06f7c783          	lbu	a5,111(a5)
    c0005260:	8e4d                	or	a2,a2,a1
    c0005262:	16a2                	slli	a3,a3,0x28
    c0005264:	8ed1                	or	a3,a3,a2
    c0005266:	1742                	slli	a4,a4,0x30
    c0005268:	8f55                	or	a4,a4,a3
    c000526a:	17e2                	slli	a5,a5,0x38
    c000526c:	8fd9                	or	a5,a5,a4
    c000526e:	0517c703          	lbu	a4,81(a5)
    c0005272:	0507c683          	lbu	a3,80(a5)
    c0005276:	0527c503          	lbu	a0,82(a5)
    c000527a:	0537c583          	lbu	a1,83(a5)
    c000527e:	0547c603          	lbu	a2,84(a5)
    c0005282:	0722                	slli	a4,a4,0x8
    c0005284:	8f55                	or	a4,a4,a3
    c0005286:	0542                	slli	a0,a0,0x10
    c0005288:	0557c683          	lbu	a3,85(a5)
    c000528c:	8d59                	or	a0,a0,a4
    c000528e:	05e2                	slli	a1,a1,0x18
    c0005290:	0567c703          	lbu	a4,86(a5)
    c0005294:	8dc9                	or	a1,a1,a0
    c0005296:	1602                	slli	a2,a2,0x20
    c0005298:	0577c783          	lbu	a5,87(a5)
    c000529c:	8e4d                	or	a2,a2,a1
    c000529e:	16a2                	slli	a3,a3,0x28
    c00052a0:	8ed1                	or	a3,a3,a2
    c00052a2:	1742                	slli	a4,a4,0x30
    c00052a4:	8f55                	or	a4,a4,a3
    c00052a6:	17e2                	slli	a5,a5,0x38
    c00052a8:	8fd9                	or	a5,a5,a4
    c00052aa:	4501                	li	a0,0
    c00052ac:	cb91                	beqz	a5,c00052c0 <sbi_console_init+0xd8>
    c00052ae:	1141                	addi	sp,sp,-16
    c00052b0:	e022                	sd	s0,0(sp)
    c00052b2:	e406                	sd	ra,8(sp)
    c00052b4:	0800                	addi	s0,sp,16
    c00052b6:	9782                	jalr	a5
    c00052b8:	60a2                	ld	ra,8(sp)
    c00052ba:	6402                	ld	s0,0(sp)
    c00052bc:	0141                	addi	sp,sp,16
    c00052be:	8082                	ret
    c00052c0:	8082                	ret
    c00052c2:	4501                	li	a0,0
    c00052c4:	8082                	ret

00000000c00052c6 <sbi_load_hart_mask_unpriv>:
    c00052c6:	1101                	addi	sp,sp,-32
    c00052c8:	e822                	sd	s0,16(sp)
    c00052ca:	e04a                	sd	s2,0(sp)
    c00052cc:	ec06                	sd	ra,24(sp)
    c00052ce:	e426                	sd	s1,8(sp)
    c00052d0:	1000                	addi	s0,sp,32
    c00052d2:	8932                	mv	s2,a2
    c00052d4:	c19d                	beqz	a1,c00052fa <sbi_load_hart_mask_unpriv+0x34>
    c00052d6:	87ae                	mv	a5,a1
    c00052d8:	8636                	mv	a2,a3
    c00052da:	85aa                	mv	a1,a0
    c00052dc:	853e                	mv	a0,a5
    c00052de:	84b6                	mv	s1,a3
    c00052e0:	3af020ef          	jal	ra,c0007e8e <sbi_load_ulong>
    c00052e4:	649c                	ld	a5,8(s1)
    c00052e6:	ef89                	bnez	a5,c0005300 <sbi_load_hart_mask_unpriv+0x3a>
    c00052e8:	00a93023          	sd	a0,0(s2)
    c00052ec:	4501                	li	a0,0
    c00052ee:	60e2                	ld	ra,24(sp)
    c00052f0:	6442                	ld	s0,16(sp)
    c00052f2:	64a2                	ld	s1,8(sp)
    c00052f4:	6902                	ld	s2,0(sp)
    c00052f6:	6105                	addi	sp,sp,32
    c00052f8:	8082                	ret
    c00052fa:	1cf010ef          	jal	ra,c0006cc8 <sbi_hart_available_mask>
    c00052fe:	b7ed                	j	c00052e8 <sbi_load_hart_mask_unpriv+0x22>
    c0005300:	554d                	li	a0,-13
    c0005302:	b7f5                	j	c00052ee <sbi_load_hart_mask_unpriv+0x28>

00000000c0005304 <sbi_ecall_version_major>:
    c0005304:	1141                	addi	sp,sp,-16
    c0005306:	e422                	sd	s0,8(sp)
    c0005308:	0800                	addi	s0,sp,16
    c000530a:	6422                	ld	s0,8(sp)
    c000530c:	4501                	li	a0,0
    c000530e:	0141                	addi	sp,sp,16
    c0005310:	8082                	ret

00000000c0005312 <sbi_ecall_version_minor>:
    c0005312:	1141                	addi	sp,sp,-16
    c0005314:	e422                	sd	s0,8(sp)
    c0005316:	0800                	addi	s0,sp,16
    c0005318:	6422                	ld	s0,8(sp)
    c000531a:	4509                	li	a0,2
    c000531c:	0141                	addi	sp,sp,16
    c000531e:	8082                	ret

00000000c0005320 <sbi_check_extension>:
    c0005320:	47a1                	li	a5,8
    c0005322:	12b7f163          	bgeu	a5,a1,c0005444 <sbi_check_extension+0x124>
    c0005326:	47c1                	li	a5,16
    c0005328:	10f58e63          	beq	a1,a5,c0005444 <sbi_check_extension+0x124>
    c000532c:	544957b7          	lui	a5,0x54495
    c0005330:	d4578793          	addi	a5,a5,-699 # 54494d45 <_fw_start-0x6bb6b2bb>
    c0005334:	10f58863          	beq	a1,a5,c0005444 <sbi_check_extension+0x124>
    c0005338:	007357b7          	lui	a5,0x735
    c000533c:	04978793          	addi	a5,a5,73 # 735049 <_fw_start-0xbf8cafb7>
    c0005340:	10f58263          	beq	a1,a5,c0005444 <sbi_check_extension+0x124>
    c0005344:	524657b7          	lui	a5,0x52465
    c0005348:	e4378793          	addi	a5,a5,-445 # 52464e43 <_fw_start-0x6db9b1bd>
    c000534c:	0ef58c63          	beq	a1,a5,c0005444 <sbi_check_extension+0x124>
    c0005350:	f70007b7          	lui	a5,0xf7000
    c0005354:	97ae                	add	a5,a5,a1
    c0005356:	01000737          	lui	a4,0x1000
    c000535a:	0ee7f963          	bgeu	a5,a4,c000544c <sbi_check_extension+0x12c>
    c000535e:	1101                	addi	sp,sp,-32
    c0005360:	e822                	sd	s0,16(sp)
    c0005362:	e426                	sd	s1,8(sp)
    c0005364:	ec06                	sd	ra,24(sp)
    c0005366:	1000                	addi	s0,sp,32
    c0005368:	03154783          	lbu	a5,49(a0)
    c000536c:	03054703          	lbu	a4,48(a0)
    c0005370:	03254803          	lbu	a6,50(a0)
    c0005374:	84b2                	mv	s1,a2
    c0005376:	03354603          	lbu	a2,51(a0)
    c000537a:	03454683          	lbu	a3,52(a0)
    c000537e:	07a2                	slli	a5,a5,0x8
    c0005380:	8fd9                	or	a5,a5,a4
    c0005382:	0842                	slli	a6,a6,0x10
    c0005384:	03554703          	lbu	a4,53(a0)
    c0005388:	00f86833          	or	a6,a6,a5
    c000538c:	0662                	slli	a2,a2,0x18
    c000538e:	03654783          	lbu	a5,54(a0)
    c0005392:	01066633          	or	a2,a2,a6
    c0005396:	1682                	slli	a3,a3,0x20
    c0005398:	03754503          	lbu	a0,55(a0)
    c000539c:	8ed1                	or	a3,a3,a2
    c000539e:	1722                	slli	a4,a4,0x28
    c00053a0:	8f55                	or	a4,a4,a3
    c00053a2:	17c2                	slli	a5,a5,0x30
    c00053a4:	8fd9                	or	a5,a5,a4
    c00053a6:	1562                	slli	a0,a0,0x38
    c00053a8:	8d5d                	or	a0,a0,a5
    c00053aa:	c551                	beqz	a0,c0005436 <sbi_check_extension+0x116>
    c00053ac:	06954783          	lbu	a5,105(a0)
    c00053b0:	06854703          	lbu	a4,104(a0)
    c00053b4:	06a54883          	lbu	a7,106(a0)
    c00053b8:	06b54803          	lbu	a6,107(a0)
    c00053bc:	06c54603          	lbu	a2,108(a0)
    c00053c0:	07a2                	slli	a5,a5,0x8
    c00053c2:	8fd9                	or	a5,a5,a4
    c00053c4:	06d54683          	lbu	a3,109(a0)
    c00053c8:	08c2                	slli	a7,a7,0x10
    c00053ca:	06e54703          	lbu	a4,110(a0)
    c00053ce:	00f8e8b3          	or	a7,a7,a5
    c00053d2:	0862                	slli	a6,a6,0x18
    c00053d4:	06f54783          	lbu	a5,111(a0)
    c00053d8:	01186833          	or	a6,a6,a7
    c00053dc:	1602                	slli	a2,a2,0x20
    c00053de:	01066633          	or	a2,a2,a6
    c00053e2:	16a2                	slli	a3,a3,0x28
    c00053e4:	8ed1                	or	a3,a3,a2
    c00053e6:	1742                	slli	a4,a4,0x30
    c00053e8:	8f55                	or	a4,a4,a3
    c00053ea:	17e2                	slli	a5,a5,0x38
    c00053ec:	8fd9                	or	a5,a5,a4
    c00053ee:	0c17c703          	lbu	a4,193(a5) # fffffffff70000c1 <_fw_end+0xffffffff36ff40c1>
    c00053f2:	0c07c683          	lbu	a3,192(a5)
    c00053f6:	0c27c803          	lbu	a6,194(a5)
    c00053fa:	0c37c503          	lbu	a0,195(a5)
    c00053fe:	0c47c603          	lbu	a2,196(a5)
    c0005402:	0722                	slli	a4,a4,0x8
    c0005404:	8f55                	or	a4,a4,a3
    c0005406:	0842                	slli	a6,a6,0x10
    c0005408:	0c57c683          	lbu	a3,197(a5)
    c000540c:	00e86833          	or	a6,a6,a4
    c0005410:	0562                	slli	a0,a0,0x18
    c0005412:	0c67c703          	lbu	a4,198(a5)
    c0005416:	01056533          	or	a0,a0,a6
    c000541a:	1602                	slli	a2,a2,0x20
    c000541c:	0c77c783          	lbu	a5,199(a5)
    c0005420:	8e49                	or	a2,a2,a0
    c0005422:	16a2                	slli	a3,a3,0x28
    c0005424:	8ed1                	or	a3,a3,a2
    c0005426:	1742                	slli	a4,a4,0x30
    c0005428:	8f55                	or	a4,a4,a3
    c000542a:	17e2                	slli	a5,a5,0x38
    c000542c:	8fd9                	or	a5,a5,a4
    c000542e:	4501                	li	a0,0
    c0005430:	c399                	beqz	a5,c0005436 <sbi_check_extension+0x116>
    c0005432:	852e                	mv	a0,a1
    c0005434:	9782                	jalr	a5
    c0005436:	e088                	sd	a0,0(s1)
    c0005438:	60e2                	ld	ra,24(sp)
    c000543a:	6442                	ld	s0,16(sp)
    c000543c:	64a2                	ld	s1,8(sp)
    c000543e:	4501                	li	a0,0
    c0005440:	6105                	addi	sp,sp,32
    c0005442:	8082                	ret
    c0005444:	4785                	li	a5,1
    c0005446:	e21c                	sd	a5,0(a2)
    c0005448:	4501                	li	a0,0
    c000544a:	8082                	ret
    c000544c:	00063023          	sd	zero,0(a2)
    c0005450:	bfe5                	j	c0005448 <sbi_check_extension+0x128>

00000000c0005452 <sbi_ecall_vendor_ext_handler>:
    c0005452:	03154883          	lbu	a7,49(a0)
    c0005456:	03054303          	lbu	t1,48(a0)
    c000545a:	03254803          	lbu	a6,50(a0)
    c000545e:	03354e83          	lbu	t4,51(a0)
    c0005462:	08a2                	slli	a7,a7,0x8
    c0005464:	03454e03          	lbu	t3,52(a0)
    c0005468:	0068e8b3          	or	a7,a7,t1
    c000546c:	0842                	slli	a6,a6,0x10
    c000546e:	03554303          	lbu	t1,53(a0)
    c0005472:	01186833          	or	a6,a6,a7
    c0005476:	0ee2                	slli	t4,t4,0x18
    c0005478:	03654883          	lbu	a7,54(a0)
    c000547c:	010eeeb3          	or	t4,t4,a6
    c0005480:	1e02                	slli	t3,t3,0x20
    c0005482:	03754803          	lbu	a6,55(a0)
    c0005486:	01de6e33          	or	t3,t3,t4
    c000548a:	1322                	slli	t1,t1,0x28
    c000548c:	01c36333          	or	t1,t1,t3
    c0005490:	18c2                	slli	a7,a7,0x30
    c0005492:	0068e8b3          	or	a7,a7,t1
    c0005496:	1862                	slli	a6,a6,0x38
    c0005498:	01186833          	or	a6,a6,a7
    c000549c:	0a080c63          	beqz	a6,c0005554 <sbi_ecall_vendor_ext_handler+0x102>
    c00054a0:	852e                	mv	a0,a1
    c00054a2:	85b2                	mv	a1,a2
    c00054a4:	8636                	mv	a2,a3
    c00054a6:	86ba                	mv	a3,a4
    c00054a8:	06984703          	lbu	a4,105(a6)
    c00054ac:	06884883          	lbu	a7,104(a6)
    c00054b0:	06a84e83          	lbu	t4,106(a6)
    c00054b4:	06b84e03          	lbu	t3,107(a6)
    c00054b8:	06c84303          	lbu	t1,108(a6)
    c00054bc:	0722                	slli	a4,a4,0x8
    c00054be:	01176733          	or	a4,a4,a7
    c00054c2:	0ec2                	slli	t4,t4,0x10
    c00054c4:	06d84883          	lbu	a7,109(a6)
    c00054c8:	00eeeeb3          	or	t4,t4,a4
    c00054cc:	0e62                	slli	t3,t3,0x18
    c00054ce:	06e84703          	lbu	a4,110(a6)
    c00054d2:	01de6e33          	or	t3,t3,t4
    c00054d6:	1302                	slli	t1,t1,0x20
    c00054d8:	06f84803          	lbu	a6,111(a6)
    c00054dc:	01c36333          	or	t1,t1,t3
    c00054e0:	18a2                	slli	a7,a7,0x28
    c00054e2:	0068e8b3          	or	a7,a7,t1
    c00054e6:	1742                	slli	a4,a4,0x30
    c00054e8:	01176733          	or	a4,a4,a7
    c00054ec:	1862                	slli	a6,a6,0x38
    c00054ee:	00e86833          	or	a6,a6,a4
    c00054f2:	0c984883          	lbu	a7,201(a6)
    c00054f6:	0c884303          	lbu	t1,200(a6)
    c00054fa:	0ca84f03          	lbu	t5,202(a6)
    c00054fe:	0cb84e83          	lbu	t4,203(a6)
    c0005502:	0cc84e03          	lbu	t3,204(a6)
    c0005506:	08a2                	slli	a7,a7,0x8
    c0005508:	0068e8b3          	or	a7,a7,t1
    c000550c:	0f42                	slli	t5,t5,0x10
    c000550e:	0cd84303          	lbu	t1,205(a6)
    c0005512:	011f6f33          	or	t5,t5,a7
    c0005516:	0ee2                	slli	t4,t4,0x18
    c0005518:	0ce84883          	lbu	a7,206(a6)
    c000551c:	01eeeeb3          	or	t4,t4,t5
    c0005520:	1e02                	slli	t3,t3,0x20
    c0005522:	0cf84803          	lbu	a6,207(a6)
    c0005526:	01de6e33          	or	t3,t3,t4
    c000552a:	1322                	slli	t1,t1,0x28
    c000552c:	01c36333          	or	t1,t1,t3
    c0005530:	18c2                	slli	a7,a7,0x30
    c0005532:	0068e8b3          	or	a7,a7,t1
    c0005536:	1862                	slli	a6,a6,0x38
    c0005538:	01186833          	or	a6,a6,a7
    c000553c:	00080c63          	beqz	a6,c0005554 <sbi_ecall_vendor_ext_handler+0x102>
    c0005540:	1141                	addi	sp,sp,-16
    c0005542:	e022                	sd	s0,0(sp)
    c0005544:	e406                	sd	ra,8(sp)
    c0005546:	0800                	addi	s0,sp,16
    c0005548:	873e                	mv	a4,a5
    c000554a:	9802                	jalr	a6
    c000554c:	60a2                	ld	ra,8(sp)
    c000554e:	6402                	ld	s0,0(sp)
    c0005550:	0141                	addi	sp,sp,16
    c0005552:	8082                	ret
    c0005554:	5579                	li	a0,-2
    c0005556:	8082                	ret

00000000c0005558 <sbi_ecall_base_handler>:
    c0005558:	4799                	li	a5,6
    c000555a:	06c7e363          	bltu	a5,a2,c00055c0 <sbi_ecall_base_handler+0x68>
    c000555e:	00004597          	auipc	a1,0x4
    c0005562:	36258593          	addi	a1,a1,866 # c00098c0 <platform_ops+0x200>
    c0005566:	060a                	slli	a2,a2,0x2
    c0005568:	00b607b3          	add	a5,a2,a1
    c000556c:	439c                	lw	a5,0(a5)
    c000556e:	97ae                	add	a5,a5,a1
    c0005570:	8782                	jr	a5
    c0005572:	f12027f3          	csrr	a5,marchid
    c0005576:	4501                	li	a0,0
    c0005578:	e31c                	sd	a5,0(a4)
    c000557a:	8082                	ret
    c000557c:	f13027f3          	csrr	a5,mimpid
    c0005580:	4501                	li	a0,0
    c0005582:	e31c                	sd	a5,0(a4)
    c0005584:	8082                	ret
    c0005586:	4789                	li	a5,2
    c0005588:	e31c                	sd	a5,0(a4)
    c000558a:	4501                	li	a0,0
    c000558c:	8082                	ret
    c000558e:	4785                	li	a5,1
    c0005590:	e31c                	sd	a5,0(a4)
    c0005592:	4501                	li	a0,0
    c0005594:	8082                	ret
    c0005596:	4795                	li	a5,5
    c0005598:	e31c                	sd	a5,0(a4)
    c000559a:	4501                	li	a0,0
    c000559c:	8082                	ret
    c000559e:	1141                	addi	sp,sp,-16
    c00055a0:	e022                	sd	s0,0(sp)
    c00055a2:	e406                	sd	ra,8(sp)
    c00055a4:	0800                	addi	s0,sp,16
    c00055a6:	628c                	ld	a1,0(a3)
    c00055a8:	863a                	mv	a2,a4
    c00055aa:	d77ff0ef          	jal	ra,c0005320 <sbi_check_extension>
    c00055ae:	60a2                	ld	ra,8(sp)
    c00055b0:	6402                	ld	s0,0(sp)
    c00055b2:	0141                	addi	sp,sp,16
    c00055b4:	8082                	ret
    c00055b6:	f11027f3          	csrr	a5,mvendorid
    c00055ba:	4501                	li	a0,0
    c00055bc:	e31c                	sd	a5,0(a4)
    c00055be:	8082                	ret
    c00055c0:	5579                	li	a0,-2
    c00055c2:	8082                	ret

00000000c00055c4 <sbi_ecall_time_handler>:
    c00055c4:	ed89                	bnez	a1,c00055de <sbi_ecall_time_handler+0x1a>
    c00055c6:	1141                	addi	sp,sp,-16
    c00055c8:	e022                	sd	s0,0(sp)
    c00055ca:	e406                	sd	ra,8(sp)
    c00055cc:	0800                	addi	s0,sp,16
    c00055ce:	620c                	ld	a1,0(a2)
    c00055d0:	82bfc0ef          	jal	ra,c0001dfa <sbi_timer_event_start>
    c00055d4:	60a2                	ld	ra,8(sp)
    c00055d6:	6402                	ld	s0,0(sp)
    c00055d8:	4501                	li	a0,0
    c00055da:	0141                	addi	sp,sp,16
    c00055dc:	8082                	ret
    c00055de:	5579                	li	a0,-2
    c00055e0:	8082                	ret

00000000c00055e2 <sbi_ecall_ipi_handler>:
    c00055e2:	e185                	bnez	a1,c0005602 <sbi_ecall_ipi_handler+0x20>
    c00055e4:	1141                	addi	sp,sp,-16
    c00055e6:	e022                	sd	s0,0(sp)
    c00055e8:	e406                	sd	ra,8(sp)
    c00055ea:	0800                	addi	s0,sp,16
    c00055ec:	87b2                	mv	a5,a2
    c00055ee:	638c                	ld	a1,0(a5)
    c00055f0:	6610                	ld	a2,8(a2)
    c00055f2:	4701                	li	a4,0
    c00055f4:	4685                	li	a3,1
    c00055f6:	af9fb0ef          	jal	ra,c00010ee <sbi_ipi_send_many>
    c00055fa:	60a2                	ld	ra,8(sp)
    c00055fc:	6402                	ld	s0,0(sp)
    c00055fe:	0141                	addi	sp,sp,16
    c0005600:	8082                	ret
    c0005602:	5579                	li	a0,-2
    c0005604:	8082                	ret

00000000c0005606 <sbi_ecall_rfence_handler>:
    c0005606:	711d                	addi	sp,sp,-96
    c0005608:	e8a2                	sd	s0,80(sp)
    c000560a:	e4a6                	sd	s1,72(sp)
    c000560c:	e0ca                	sd	s2,64(sp)
    c000560e:	fc4e                	sd	s3,56(sp)
    c0005610:	f852                	sd	s4,48(sp)
    c0005612:	ec86                	sd	ra,88(sp)
    c0005614:	1080                	addi	s0,sp,96
    c0005616:	84ae                	mv	s1,a1
    c0005618:	8a2a                	mv	s4,a0
    c000561a:	8932                	mv	s2,a2
    c000561c:	6db000ef          	jal	ra,c00064f6 <sbi_current_hartid>
    c0005620:	ffd48713          	addi	a4,s1,-3
    c0005624:	478d                	li	a5,3
    c0005626:	0005099b          	sext.w	s3,a0
    c000562a:	00e7fe63          	bgeu	a5,a4,c0005646 <sbi_ecall_rfence_handler+0x40>
    c000562e:	4799                	li	a5,6
    c0005630:	0297e063          	bltu	a5,s1,c0005650 <sbi_ecall_rfence_handler+0x4a>
    c0005634:	00004717          	auipc	a4,0x4
    c0005638:	2a870713          	addi	a4,a4,680 # c00098dc <platform_ops+0x21c>
    c000563c:	048a                	slli	s1,s1,0x2
    c000563e:	94ba                	add	s1,s1,a4
    c0005640:	409c                	lw	a5,0(s1)
    c0005642:	97ba                	add	a5,a5,a4
    c0005644:	8782                	jr	a5
    c0005646:	04800513          	li	a0,72
    c000564a:	99dfe0ef          	jal	ra,c0003fe6 <misa_extension_imp>
    c000564e:	f165                	bnez	a0,c000562e <sbi_ecall_rfence_handler+0x28>
    c0005650:	5579                	li	a0,-2
    c0005652:	a81d                	j	c0005688 <sbi_ecall_rfence_handler+0x82>
    c0005654:	01093883          	ld	a7,16(s2)
    c0005658:	01893803          	ld	a6,24(s2)
    c000565c:	00893603          	ld	a2,8(s2)
    c0005660:	00093583          	ld	a1,0(s2)
    c0005664:	4785                	li	a5,1
    c0005666:	013799b3          	sll	s3,a5,s3
    c000566a:	fa840713          	addi	a4,s0,-88
    c000566e:	4791                	li	a5,4
    c0005670:	4689                	li	a3,2
    c0005672:	8552                	mv	a0,s4
    c0005674:	fb143423          	sd	a7,-88(s0)
    c0005678:	fb043823          	sd	a6,-80(s0)
    c000567c:	fcf43023          	sd	a5,-64(s0)
    c0005680:	fd343423          	sd	s3,-56(s0)
    c0005684:	a6bfb0ef          	jal	ra,c00010ee <sbi_ipi_send_many>
    c0005688:	60e6                	ld	ra,88(sp)
    c000568a:	6446                	ld	s0,80(sp)
    c000568c:	64a6                	ld	s1,72(sp)
    c000568e:	6906                	ld	s2,64(sp)
    c0005690:	79e2                	ld	s3,56(sp)
    c0005692:	7a42                	ld	s4,48(sp)
    c0005694:	6125                	addi	sp,sp,96
    c0005696:	8082                	ret
    c0005698:	01093303          	ld	t1,16(s2)
    c000569c:	01893883          	ld	a7,24(s2)
    c00056a0:	02093803          	ld	a6,32(s2)
    c00056a4:	00893603          	ld	a2,8(s2)
    c00056a8:	00093583          	ld	a1,0(s2)
    c00056ac:	4785                	li	a5,1
    c00056ae:	013799b3          	sll	s3,a5,s3
    c00056b2:	fa840713          	addi	a4,s0,-88
    c00056b6:	8552                	mv	a0,s4
    c00056b8:	4795                	li	a5,5
    c00056ba:	4689                	li	a3,2
    c00056bc:	fd343423          	sd	s3,-56(s0)
    c00056c0:	fa643423          	sd	t1,-88(s0)
    c00056c4:	fb143823          	sd	a7,-80(s0)
    c00056c8:	fb043c23          	sd	a6,-72(s0)
    c00056cc:	fcf43023          	sd	a5,-64(s0)
    c00056d0:	a1ffb0ef          	jal	ra,c00010ee <sbi_ipi_send_many>
    c00056d4:	60e6                	ld	ra,88(sp)
    c00056d6:	6446                	ld	s0,80(sp)
    c00056d8:	64a6                	ld	s1,72(sp)
    c00056da:	6906                	ld	s2,64(sp)
    c00056dc:	79e2                	ld	s3,56(sp)
    c00056de:	7a42                	ld	s4,48(sp)
    c00056e0:	6125                	addi	sp,sp,96
    c00056e2:	8082                	ret
    c00056e4:	00893603          	ld	a2,8(s2)
    c00056e8:	00093583          	ld	a1,0(s2)
    c00056ec:	4785                	li	a5,1
    c00056ee:	013799b3          	sll	s3,a5,s3
    c00056f2:	fa840713          	addi	a4,s0,-88
    c00056f6:	8552                	mv	a0,s4
    c00056f8:	4799                	li	a5,6
    c00056fa:	4689                	li	a3,2
    c00056fc:	fd343423          	sd	s3,-56(s0)
    c0005700:	fa043423          	sd	zero,-88(s0)
    c0005704:	fa043823          	sd	zero,-80(s0)
    c0005708:	fcf43023          	sd	a5,-64(s0)
    c000570c:	9e3fb0ef          	jal	ra,c00010ee <sbi_ipi_send_many>
    c0005710:	60e6                	ld	ra,88(sp)
    c0005712:	6446                	ld	s0,80(sp)
    c0005714:	64a6                	ld	s1,72(sp)
    c0005716:	6906                	ld	s2,64(sp)
    c0005718:	79e2                	ld	s3,56(sp)
    c000571a:	7a42                	ld	s4,48(sp)
    c000571c:	6125                	addi	sp,sp,96
    c000571e:	8082                	ret
    c0005720:	01093883          	ld	a7,16(s2)
    c0005724:	01893803          	ld	a6,24(s2)
    c0005728:	00893603          	ld	a2,8(s2)
    c000572c:	00093583          	ld	a1,0(s2)
    c0005730:	4785                	li	a5,1
    c0005732:	013799b3          	sll	s3,a5,s3
    c0005736:	fa840713          	addi	a4,s0,-88
    c000573a:	8552                	mv	a0,s4
    c000573c:	4689                	li	a3,2
    c000573e:	fd343423          	sd	s3,-56(s0)
    c0005742:	fb143423          	sd	a7,-88(s0)
    c0005746:	fb043823          	sd	a6,-80(s0)
    c000574a:	fc043023          	sd	zero,-64(s0)
    c000574e:	9a1fb0ef          	jal	ra,c00010ee <sbi_ipi_send_many>
    c0005752:	60e6                	ld	ra,88(sp)
    c0005754:	6446                	ld	s0,80(sp)
    c0005756:	64a6                	ld	s1,72(sp)
    c0005758:	6906                	ld	s2,64(sp)
    c000575a:	79e2                	ld	s3,56(sp)
    c000575c:	7a42                	ld	s4,48(sp)
    c000575e:	6125                	addi	sp,sp,96
    c0005760:	8082                	ret
    c0005762:	01093303          	ld	t1,16(s2)
    c0005766:	01893883          	ld	a7,24(s2)
    c000576a:	02093803          	ld	a6,32(s2)
    c000576e:	00893603          	ld	a2,8(s2)
    c0005772:	00093583          	ld	a1,0(s2)
    c0005776:	4785                	li	a5,1
    c0005778:	013799b3          	sll	s3,a5,s3
    c000577c:	fa840713          	addi	a4,s0,-88
    c0005780:	8552                	mv	a0,s4
    c0005782:	4689                	li	a3,2
    c0005784:	fd343423          	sd	s3,-56(s0)
    c0005788:	fa643423          	sd	t1,-88(s0)
    c000578c:	fb143823          	sd	a7,-80(s0)
    c0005790:	fb043c23          	sd	a6,-72(s0)
    c0005794:	fcf43023          	sd	a5,-64(s0)
    c0005798:	957fb0ef          	jal	ra,c00010ee <sbi_ipi_send_many>
    c000579c:	60e6                	ld	ra,88(sp)
    c000579e:	6446                	ld	s0,80(sp)
    c00057a0:	64a6                	ld	s1,72(sp)
    c00057a2:	6906                	ld	s2,64(sp)
    c00057a4:	79e2                	ld	s3,56(sp)
    c00057a6:	7a42                	ld	s4,48(sp)
    c00057a8:	6125                	addi	sp,sp,96
    c00057aa:	8082                	ret
    c00057ac:	01093883          	ld	a7,16(s2)
    c00057b0:	01893803          	ld	a6,24(s2)
    c00057b4:	00893603          	ld	a2,8(s2)
    c00057b8:	00093583          	ld	a1,0(s2)
    c00057bc:	4785                	li	a5,1
    c00057be:	013799b3          	sll	s3,a5,s3
    c00057c2:	fa840713          	addi	a4,s0,-88
    c00057c6:	8552                	mv	a0,s4
    c00057c8:	4789                	li	a5,2
    c00057ca:	4689                	li	a3,2
    c00057cc:	fd343423          	sd	s3,-56(s0)
    c00057d0:	fb143423          	sd	a7,-88(s0)
    c00057d4:	fb043823          	sd	a6,-80(s0)
    c00057d8:	fcf43023          	sd	a5,-64(s0)
    c00057dc:	913fb0ef          	jal	ra,c00010ee <sbi_ipi_send_many>
    c00057e0:	60e6                	ld	ra,88(sp)
    c00057e2:	6446                	ld	s0,80(sp)
    c00057e4:	64a6                	ld	s1,72(sp)
    c00057e6:	6906                	ld	s2,64(sp)
    c00057e8:	79e2                	ld	s3,56(sp)
    c00057ea:	7a42                	ld	s4,48(sp)
    c00057ec:	6125                	addi	sp,sp,96
    c00057ee:	8082                	ret
    c00057f0:	01093303          	ld	t1,16(s2)
    c00057f4:	01893883          	ld	a7,24(s2)
    c00057f8:	02093803          	ld	a6,32(s2)
    c00057fc:	00893603          	ld	a2,8(s2)
    c0005800:	00093583          	ld	a1,0(s2)
    c0005804:	4785                	li	a5,1
    c0005806:	013799b3          	sll	s3,a5,s3
    c000580a:	fa840713          	addi	a4,s0,-88
    c000580e:	8552                	mv	a0,s4
    c0005810:	478d                	li	a5,3
    c0005812:	4689                	li	a3,2
    c0005814:	fd343423          	sd	s3,-56(s0)
    c0005818:	fa643423          	sd	t1,-88(s0)
    c000581c:	fb143823          	sd	a7,-80(s0)
    c0005820:	fb043c23          	sd	a6,-72(s0)
    c0005824:	fcf43023          	sd	a5,-64(s0)
    c0005828:	8c7fb0ef          	jal	ra,c00010ee <sbi_ipi_send_many>
    c000582c:	60e6                	ld	ra,88(sp)
    c000582e:	6446                	ld	s0,80(sp)
    c0005830:	64a6                	ld	s1,72(sp)
    c0005832:	6906                	ld	s2,64(sp)
    c0005834:	79e2                	ld	s3,56(sp)
    c0005836:	7a42                	ld	s4,48(sp)
    c0005838:	6125                	addi	sp,sp,96
    c000583a:	8082                	ret

00000000c000583c <sbi_ecall_0_1_handler>:
    c000583c:	711d                	addi	sp,sp,-96
    c000583e:	e8a2                	sd	s0,80(sp)
    c0005840:	e4a6                	sd	s1,72(sp)
    c0005842:	e0ca                	sd	s2,64(sp)
    c0005844:	fc4e                	sd	s3,56(sp)
    c0005846:	f852                	sd	s4,48(sp)
    c0005848:	1080                	addi	s0,sp,96
    c000584a:	ec86                	sd	ra,88(sp)
    c000584c:	89aa                	mv	s3,a0
    c000584e:	84ae                	mv	s1,a1
    c0005850:	8932                	mv	s2,a2
    c0005852:	8a36                	mv	s4,a3
    c0005854:	4a3000ef          	jal	ra,c00064f6 <sbi_current_hartid>
    c0005858:	47a1                	li	a5,8
    c000585a:	fa043023          	sd	zero,-96(s0)
    c000585e:	1897e063          	bltu	a5,s1,c00059de <sbi_ecall_0_1_handler+0x1a2>
    c0005862:	00004717          	auipc	a4,0x4
    c0005866:	09670713          	addi	a4,a4,150 # c00098f8 <platform_ops+0x238>
    c000586a:	048a                	slli	s1,s1,0x2
    c000586c:	94ba                	add	s1,s1,a4
    c000586e:	409c                	lw	a5,0(s1)
    c0005870:	2501                	sext.w	a0,a0
    c0005872:	97ba                	add	a5,a5,a4
    c0005874:	8782                	jr	a5
    c0005876:	00893303          	ld	t1,8(s2)
    c000587a:	01093883          	ld	a7,16(s2)
    c000587e:	01893803          	ld	a6,24(s2)
    c0005882:	00093583          	ld	a1,0(s2)
    c0005886:	4705                	li	a4,1
    c0005888:	00a717b3          	sll	a5,a4,a0
    c000588c:	86d2                	mv	a3,s4
    c000588e:	fa040613          	addi	a2,s0,-96
    c0005892:	854e                	mv	a0,s3
    c0005894:	fcf43423          	sd	a5,-56(s0)
    c0005898:	fa643423          	sd	t1,-88(s0)
    c000589c:	fb143823          	sd	a7,-80(s0)
    c00058a0:	fb043c23          	sd	a6,-72(s0)
    c00058a4:	fce43023          	sd	a4,-64(s0)
    c00058a8:	a1fff0ef          	jal	ra,c00052c6 <sbi_load_hart_mask_unpriv>
    c00058ac:	57cd                	li	a5,-13
    c00058ae:	0af50863          	beq	a0,a5,c000595e <sbi_ecall_0_1_handler+0x122>
    c00058b2:	fa043583          	ld	a1,-96(s0)
    c00058b6:	fa840713          	addi	a4,s0,-88
    c00058ba:	4689                	li	a3,2
    c00058bc:	4601                	li	a2,0
    c00058be:	854e                	mv	a0,s3
    c00058c0:	82ffb0ef          	jal	ra,c00010ee <sbi_ipi_send_many>
    c00058c4:	60e6                	ld	ra,88(sp)
    c00058c6:	6446                	ld	s0,80(sp)
    c00058c8:	64a6                	ld	s1,72(sp)
    c00058ca:	6906                	ld	s2,64(sp)
    c00058cc:	79e2                	ld	s3,56(sp)
    c00058ce:	7a42                	ld	s4,48(sp)
    c00058d0:	6125                	addi	sp,sp,96
    c00058d2:	8082                	ret
    c00058d4:	00093583          	ld	a1,0(s2)
    c00058d8:	854e                	mv	a0,s3
    c00058da:	d20fc0ef          	jal	ra,c0001dfa <sbi_timer_event_start>
    c00058de:	60e6                	ld	ra,88(sp)
    c00058e0:	6446                	ld	s0,80(sp)
    c00058e2:	64a6                	ld	s1,72(sp)
    c00058e4:	6906                	ld	s2,64(sp)
    c00058e6:	79e2                	ld	s3,56(sp)
    c00058e8:	7a42                	ld	s4,48(sp)
    c00058ea:	4501                	li	a0,0
    c00058ec:	6125                	addi	sp,sp,96
    c00058ee:	8082                	ret
    c00058f0:	854e                	mv	a0,s3
    c00058f2:	8f1fb0ef          	jal	ra,c00011e2 <sbi_ipi_clear_smode>
    c00058f6:	60e6                	ld	ra,88(sp)
    c00058f8:	6446                	ld	s0,80(sp)
    c00058fa:	64a6                	ld	s1,72(sp)
    c00058fc:	6906                	ld	s2,64(sp)
    c00058fe:	79e2                	ld	s3,56(sp)
    c0005900:	7a42                	ld	s4,48(sp)
    c0005902:	4501                	li	a0,0
    c0005904:	6125                	addi	sp,sp,96
    c0005906:	8082                	ret
    c0005908:	00093583          	ld	a1,0(s2)
    c000590c:	86d2                	mv	a3,s4
    c000590e:	fa040613          	addi	a2,s0,-96
    c0005912:	854e                	mv	a0,s3
    c0005914:	9b3ff0ef          	jal	ra,c00052c6 <sbi_load_hart_mask_unpriv>
    c0005918:	57cd                	li	a5,-13
    c000591a:	04f50263          	beq	a0,a5,c000595e <sbi_ecall_0_1_handler+0x122>
    c000591e:	fa043583          	ld	a1,-96(s0)
    c0005922:	4701                	li	a4,0
    c0005924:	4685                	li	a3,1
    c0005926:	4601                	li	a2,0
    c0005928:	854e                	mv	a0,s3
    c000592a:	fc4fb0ef          	jal	ra,c00010ee <sbi_ipi_send_many>
    c000592e:	bf59                	j	c00058c4 <sbi_ecall_0_1_handler+0x88>
    c0005930:	00093583          	ld	a1,0(s2)
    c0005934:	4785                	li	a5,1
    c0005936:	00a797b3          	sll	a5,a5,a0
    c000593a:	4719                	li	a4,6
    c000593c:	86d2                	mv	a3,s4
    c000593e:	fa040613          	addi	a2,s0,-96
    c0005942:	854e                	mv	a0,s3
    c0005944:	fcf43423          	sd	a5,-56(s0)
    c0005948:	fa043423          	sd	zero,-88(s0)
    c000594c:	fa043823          	sd	zero,-80(s0)
    c0005950:	fce43023          	sd	a4,-64(s0)
    c0005954:	973ff0ef          	jal	ra,c00052c6 <sbi_load_hart_mask_unpriv>
    c0005958:	57cd                	li	a5,-13
    c000595a:	f4f51ce3          	bne	a0,a5,c00058b2 <sbi_ecall_0_1_handler+0x76>
    c000595e:	554d                	li	a0,-13
    c0005960:	60e6                	ld	ra,88(sp)
    c0005962:	6446                	ld	s0,80(sp)
    c0005964:	64a6                	ld	s1,72(sp)
    c0005966:	6906                	ld	s2,64(sp)
    c0005968:	79e2                	ld	s3,56(sp)
    c000596a:	7a42                	ld	s4,48(sp)
    c000596c:	6125                	addi	sp,sp,96
    c000596e:	8082                	ret
    c0005970:	00893803          	ld	a6,8(s2)
    c0005974:	01093703          	ld	a4,16(s2)
    c0005978:	00093583          	ld	a1,0(s2)
    c000597c:	4785                	li	a5,1
    c000597e:	00a797b3          	sll	a5,a5,a0
    c0005982:	86d2                	mv	a3,s4
    c0005984:	fa040613          	addi	a2,s0,-96
    c0005988:	854e                	mv	a0,s3
    c000598a:	fcf43423          	sd	a5,-56(s0)
    c000598e:	fb043423          	sd	a6,-88(s0)
    c0005992:	fae43823          	sd	a4,-80(s0)
    c0005996:	fc043023          	sd	zero,-64(s0)
    c000599a:	92dff0ef          	jal	ra,c00052c6 <sbi_load_hart_mask_unpriv>
    c000599e:	57cd                	li	a5,-13
    c00059a0:	f0f519e3          	bne	a0,a5,c00058b2 <sbi_ecall_0_1_handler+0x76>
    c00059a4:	554d                	li	a0,-13
    c00059a6:	bf6d                	j	c0005960 <sbi_ecall_0_1_handler+0x124>
    c00059a8:	00094503          	lbu	a0,0(s2)
    c00059ac:	e57fe0ef          	jal	ra,c0004802 <sbi_putc>
    c00059b0:	60e6                	ld	ra,88(sp)
    c00059b2:	6446                	ld	s0,80(sp)
    c00059b4:	64a6                	ld	s1,72(sp)
    c00059b6:	6906                	ld	s2,64(sp)
    c00059b8:	79e2                	ld	s3,56(sp)
    c00059ba:	7a42                	ld	s4,48(sp)
    c00059bc:	4501                	li	a0,0
    c00059be:	6125                	addi	sp,sp,96
    c00059c0:	8082                	ret
    c00059c2:	d9ffe0ef          	jal	ra,c0004760 <sbi_getc>
    c00059c6:	60e6                	ld	ra,88(sp)
    c00059c8:	6446                	ld	s0,80(sp)
    c00059ca:	64a6                	ld	s1,72(sp)
    c00059cc:	6906                	ld	s2,64(sp)
    c00059ce:	79e2                	ld	s3,56(sp)
    c00059d0:	7a42                	ld	s4,48(sp)
    c00059d2:	6125                	addi	sp,sp,96
    c00059d4:	8082                	ret
    c00059d6:	4581                	li	a1,0
    c00059d8:	854e                	mv	a0,s3
    c00059da:	8e0fc0ef          	jal	ra,c0001aba <sbi_system_shutdown>
    c00059de:	5579                	li	a0,-2
    c00059e0:	b5d5                	j	c00058c4 <sbi_ecall_0_1_handler+0x88>

00000000c00059e2 <sbi_ecall_handler>:
    c00059e2:	7169                	addi	sp,sp,-304
    c00059e4:	f222                	sd	s0,288(sp)
    c00059e6:	ee26                	sd	s1,280(sp)
    c00059e8:	1a00                	addi	s0,sp,304
    c00059ea:	ea4a                	sd	s2,272(sp)
    c00059ec:	e64e                	sd	s3,264(sp)
    c00059ee:	e252                	sd	s4,256(sp)
    c00059f0:	fdd6                	sd	s5,248(sp)
    c00059f2:	f9da                	sd	s6,240(sp)
    c00059f4:	f5de                	sd	s7,232(sp)
    c00059f6:	f1e2                	sd	s8,224(sp)
    c00059f8:	ede6                	sd	s9,216(sp)
    c00059fa:	e9ea                	sd	s10,208(sp)
    c00059fc:	f606                	sd	ra,296(sp)
    c00059fe:	e5ee                	sd	s11,200(sp)
    c0005a00:	05164803          	lbu	a6,81(a2)
    c0005a04:	05064783          	lbu	a5,80(a2)
    c0005a08:	05264503          	lbu	a0,82(a2)
    c0005a0c:	84b2                	mv	s1,a2
    c0005a0e:	05364603          	lbu	a2,83(a2)
    c0005a12:	0544c583          	lbu	a1,84(s1)
    c0005a16:	0822                	slli	a6,a6,0x8
    c0005a18:	0554c703          	lbu	a4,85(s1)
    c0005a1c:	00f86833          	or	a6,a6,a5
    c0005a20:	0542                	slli	a0,a0,0x10
    c0005a22:	0564c783          	lbu	a5,86(s1)
    c0005a26:	01056533          	or	a0,a0,a6
    c0005a2a:	0662                	slli	a2,a2,0x18
    c0005a2c:	0574c803          	lbu	a6,87(s1)
    c0005a30:	8e49                	or	a2,a2,a0
    c0005a32:	1582                	slli	a1,a1,0x20
    c0005a34:	8dd1                	or	a1,a1,a2
    c0005a36:	1722                	slli	a4,a4,0x28
    c0005a38:	8f4d                	or	a4,a4,a1
    c0005a3a:	03079593          	slli	a1,a5,0x30
    c0005a3e:	00e5e7b3          	or	a5,a1,a4
    c0005a42:	03881593          	slli	a1,a6,0x38
    c0005a46:	8ddd                	or	a1,a1,a5
    c0005a48:	08c4c783          	lbu	a5,140(s1)
    c0005a4c:	0884cd83          	lbu	s11,136(s1)
    c0005a50:	0894c883          	lbu	a7,137(s1)
    c0005a54:	08a4c803          	lbu	a6,138(s1)
    c0005a58:	08b4c703          	lbu	a4,139(s1)
    c0005a5c:	f2f43423          	sd	a5,-216(s0)
    c0005a60:	08d4c603          	lbu	a2,141(s1)
    c0005a64:	08a2                	slli	a7,a7,0x8
    c0005a66:	0842                	slli	a6,a6,0x10
    c0005a68:	f2c43023          	sd	a2,-224(s0)
    c0005a6c:	08e4c503          	lbu	a0,142(s1)
    c0005a70:	01b8e8b3          	or	a7,a7,s11
    c0005a74:	011868b3          	or	a7,a6,a7
    c0005a78:	f0a43c23          	sd	a0,-232(s0)
    c0005a7c:	08f4c303          	lbu	t1,143(s1)
    c0005a80:	0762                	slli	a4,a4,0x18
    c0005a82:	011768b3          	or	a7,a4,a7
    c0005a86:	f0643823          	sd	t1,-240(s0)
    c0005a8a:	0804ce03          	lbu	t3,128(s1)
    c0005a8e:	f1c43423          	sd	t3,-248(s0)
    c0005a92:	0824ce83          	lbu	t4,130(s1)
    c0005a96:	0814c503          	lbu	a0,129(s1)
    c0005a9a:	f1d43023          	sd	t4,-256(s0)
    c0005a9e:	0834cf03          	lbu	t5,131(s1)
    c0005aa2:	0522                	slli	a0,a0,0x8
    c0005aa4:	efe43c23          	sd	t5,-264(s0)
    c0005aa8:	0844cf83          	lbu	t6,132(s1)
    c0005aac:	eff43823          	sd	t6,-272(s0)
    c0005ab0:	0854c283          	lbu	t0,133(s1)
    c0005ab4:	ee543423          	sd	t0,-280(s0)
    c0005ab8:	0864c383          	lbu	t2,134(s1)
    c0005abc:	ee743023          	sd	t2,-288(s0)
    c0005ac0:	0874c903          	lbu	s2,135(s1)
    c0005ac4:	ed243c23          	sd	s2,-296(s0)
    c0005ac8:	0584cf03          	lbu	t5,88(s1)
    c0005acc:	0594ce03          	lbu	t3,89(s1)
    c0005ad0:	f2043c23          	sd	zero,-200(s0)
    c0005ad4:	f4043023          	sd	zero,-192(s0)
    c0005ad8:	f4043423          	sd	zero,-184(s0)
    c0005adc:	f4043823          	sd	zero,-176(s0)
    c0005ae0:	f4043c23          	sd	zero,-168(s0)
    c0005ae4:	f6b43023          	sd	a1,-160(s0)
    c0005ae8:	0614c303          	lbu	t1,97(s1)
    c0005aec:	0694c783          	lbu	a5,105(s1)
    c0005af0:	0604ce83          	lbu	t4,96(s1)
    c0005af4:	0684c603          	lbu	a2,104(s1)
    c0005af8:	05a4cd03          	lbu	s10,90(s1)
    c0005afc:	0624cc83          	lbu	s9,98(s1)
    c0005b00:	06a4cc03          	lbu	s8,106(s1)
    c0005b04:	05b4cb83          	lbu	s7,91(s1)
    c0005b08:	0634cb03          	lbu	s6,99(s1)
    c0005b0c:	06b4ca83          	lbu	s5,107(s1)
    c0005b10:	05c4ca03          	lbu	s4,92(s1)
    c0005b14:	0644c983          	lbu	s3,100(s1)
    c0005b18:	06c4c903          	lbu	s2,108(s1)
    c0005b1c:	0e22                	slli	t3,t3,0x8
    c0005b1e:	0322                	slli	t1,t1,0x8
    c0005b20:	07a2                	slli	a5,a5,0x8
    c0005b22:	05d4c383          	lbu	t2,93(s1)
    c0005b26:	0654c283          	lbu	t0,101(s1)
    c0005b2a:	06d4cf83          	lbu	t6,109(s1)
    c0005b2e:	01ee6e33          	or	t3,t3,t5
    c0005b32:	01d36333          	or	t1,t1,t4
    c0005b36:	8fd1                	or	a5,a5,a2
    c0005b38:	0d42                	slli	s10,s10,0x10
    c0005b3a:	0cc2                	slli	s9,s9,0x10
    c0005b3c:	0c42                	slli	s8,s8,0x10
    c0005b3e:	05e4c603          	lbu	a2,94(s1)
    c0005b42:	0664cf03          	lbu	t5,102(s1)
    c0005b46:	06e4ce83          	lbu	t4,110(s1)
    c0005b4a:	01cd6d33          	or	s10,s10,t3
    c0005b4e:	006cecb3          	or	s9,s9,t1
    c0005b52:	00fc6c33          	or	s8,s8,a5
    c0005b56:	0be2                	slli	s7,s7,0x18
    c0005b58:	0b62                	slli	s6,s6,0x18
    c0005b5a:	0ae2                	slli	s5,s5,0x18
    c0005b5c:	05f4c783          	lbu	a5,95(s1)
    c0005b60:	0674ce03          	lbu	t3,103(s1)
    c0005b64:	06f4c303          	lbu	t1,111(s1)
    c0005b68:	01abebb3          	or	s7,s7,s10
    c0005b6c:	1a02                	slli	s4,s4,0x20
    c0005b6e:	019b6b33          	or	s6,s6,s9
    c0005b72:	1982                	slli	s3,s3,0x20
    c0005b74:	018aeab3          	or	s5,s5,s8
    c0005b78:	1902                	slli	s2,s2,0x20
    c0005b7a:	017a6bb3          	or	s7,s4,s7
    c0005b7e:	13a2                	slli	t2,t2,0x28
    c0005b80:	0169eb33          	or	s6,s3,s6
    c0005b84:	12a2                	slli	t0,t0,0x28
    c0005b86:	01596ab3          	or	s5,s2,s5
    c0005b8a:	1fa2                	slli	t6,t6,0x28
    c0005b8c:	0173ebb3          	or	s7,t2,s7
    c0005b90:	0162eb33          	or	s6,t0,s6
    c0005b94:	1f42                	slli	t5,t5,0x30
    c0005b96:	015feab3          	or	s5,t6,s5
    c0005b9a:	1ec2                	slli	t4,t4,0x30
    c0005b9c:	1642                	slli	a2,a2,0x30
    c0005b9e:	015eeab3          	or	s5,t4,s5
    c0005ba2:	01766633          	or	a2,a2,s7
    c0005ba6:	17e2                	slli	a5,a5,0x38
    c0005ba8:	016f6b33          	or	s6,t5,s6
    c0005bac:	1e62                	slli	t3,t3,0x38
    c0005bae:	1362                	slli	t1,t1,0x38
    c0005bb0:	016e6b33          	or	s6,t3,s6
    c0005bb4:	01536333          	or	t1,t1,s5
    c0005bb8:	8e5d                	or	a2,a2,a5
    c0005bba:	0704c383          	lbu	t2,112(s1)
    c0005bbe:	0714c283          	lbu	t0,113(s1)
    c0005bc2:	0724cc03          	lbu	s8,114(s1)
    c0005bc6:	0734ca83          	lbu	s5,115(s1)
    c0005bca:	0744c903          	lbu	s2,116(s1)
    c0005bce:	0754cf83          	lbu	t6,117(s1)
    c0005bd2:	0764ca03          	lbu	s4,118(s1)
    c0005bd6:	f6c43423          	sd	a2,-152(s0)
    c0005bda:	f7643823          	sd	s6,-144(s0)
    c0005bde:	f6643c23          	sd	t1,-136(s0)
    c0005be2:	0794cf03          	lbu	t5,121(s1)
    c0005be6:	0784c783          	lbu	a5,120(s1)
    c0005bea:	07a4ce83          	lbu	t4,122(s1)
    c0005bee:	0774cb83          	lbu	s7,119(s1)
    c0005bf2:	07b4ce03          	lbu	t3,123(s1)
    c0005bf6:	07c4c303          	lbu	t1,124(s1)
    c0005bfa:	07d4c983          	lbu	s3,125(s1)
    c0005bfe:	0f22                	slli	t5,t5,0x8
    c0005c00:	07e4cb03          	lbu	s6,126(s1)
    c0005c04:	f0843803          	ld	a6,-248(s0)
    c0005c08:	00ff6f33          	or	t5,t5,a5
    c0005c0c:	0ec2                	slli	t4,t4,0x10
    c0005c0e:	01eeef33          	or	t5,t4,t5
    c0005c12:	f0043e83          	ld	t4,-256(s0)
    c0005c16:	01056533          	or	a0,a0,a6
    c0005c1a:	f2843783          	ld	a5,-216(s0)
    c0005c1e:	ef843803          	ld	a6,-264(s0)
    c0005c22:	010e9c93          	slli	s9,t4,0x10
    c0005c26:	00ace533          	or	a0,s9,a0
    c0005c2a:	02079713          	slli	a4,a5,0x20
    c0005c2e:	01881c93          	slli	s9,a6,0x18
    c0005c32:	f2043783          	ld	a5,-224(s0)
    c0005c36:	ef043803          	ld	a6,-272(s0)
    c0005c3a:	02a2                	slli	t0,t0,0x8
    c0005c3c:	0072e2b3          	or	t0,t0,t2
    c0005c40:	0c42                	slli	s8,s8,0x10
    c0005c42:	01176733          	or	a4,a4,a7
    c0005c46:	005c62b3          	or	t0,s8,t0
    c0005c4a:	02879893          	slli	a7,a5,0x28
    c0005c4e:	0ae2                	slli	s5,s5,0x18
    c0005c50:	00ace7b3          	or	a5,s9,a0
    c0005c54:	0e62                	slli	t3,t3,0x18
    c0005c56:	02081c93          	slli	s9,a6,0x20
    c0005c5a:	07f4cd03          	lbu	s10,127(s1)
    c0005c5e:	1902                	slli	s2,s2,0x20
    c0005c60:	1302                	slli	t1,t1,0x20
    c0005c62:	00fcecb3          	or	s9,s9,a5
    c0005c66:	005ae2b3          	or	t0,s5,t0
    c0005c6a:	01ee6f33          	or	t5,t3,t5
    c0005c6e:	f1843503          	ld	a0,-232(s0)
    c0005c72:	ee843783          	ld	a5,-280(s0)
    c0005c76:	005962b3          	or	t0,s2,t0
    c0005c7a:	01e36f33          	or	t5,t1,t5
    c0005c7e:	19a2                	slli	s3,s3,0x28
    c0005c80:	1fa2                	slli	t6,t6,0x28
    c0005c82:	f1043303          	ld	t1,-240(s0)
    c0005c86:	ee043383          	ld	t2,-288(s0)
    c0005c8a:	01e9ef33          	or	t5,s3,t5
    c0005c8e:	ed843903          	ld	s2,-296(s0)
    c0005c92:	005fe2b3          	or	t0,t6,t0
    c0005c96:	1a42                	slli	s4,s4,0x30
    c0005c98:	1b42                	slli	s6,s6,0x30
    c0005c9a:	00e8e8b3          	or	a7,a7,a4
    c0005c9e:	17a2                	slli	a5,a5,0x28
    c0005ca0:	1542                	slli	a0,a0,0x30
    c0005ca2:	005a6a33          	or	s4,s4,t0
    c0005ca6:	1be2                	slli	s7,s7,0x38
    c0005ca8:	01eb6b33          	or	s6,s6,t5
    c0005cac:	1d62                	slli	s10,s10,0x38
    c0005cae:	03831813          	slli	a6,t1,0x38
    c0005cb2:	0197ecb3          	or	s9,a5,s9
    c0005cb6:	01156533          	or	a0,a0,a7
    c0005cba:	03039793          	slli	a5,t2,0x30
    c0005cbe:	014bebb3          	or	s7,s7,s4
    c0005cc2:	016d6d33          	or	s10,s10,s6
    c0005cc6:	0197e7b3          	or	a5,a5,s9
    c0005cca:	03891713          	slli	a4,s2,0x38
    c0005cce:	00a86533          	or	a0,a6,a0
    c0005cd2:	f9743023          	sd	s7,-128(s0)
    c0005cd6:	f9a43423          	sd	s10,-120(s0)
    c0005cda:	4821                	li	a6,8
    c0005cdc:	89b6                	mv	s3,a3
    c0005cde:	00f76933          	or	s2,a4,a5
    c0005ce2:	20a87a63          	bgeu	a6,a0,c0005ef6 <sbi_ecall_handler+0x514>
    c0005ce6:	47c1                	li	a5,16
    c0005ce8:	42f50363          	beq	a0,a5,c000610e <sbi_ecall_handler+0x72c>
    c0005cec:	544957b7          	lui	a5,0x54495
    c0005cf0:	d4578793          	addi	a5,a5,-699 # 54494d45 <_fw_start-0x6bb6b2bb>
    c0005cf4:	2ef50a63          	beq	a0,a5,c0005fe8 <sbi_ecall_handler+0x606>
    c0005cf8:	007357b7          	lui	a5,0x735
    c0005cfc:	04978793          	addi	a5,a5,73 # 735049 <_fw_start-0xbf8cafb7>
    c0005d00:	3af50563          	beq	a0,a5,c00060aa <sbi_ecall_handler+0x6c8>
    c0005d04:	524657b7          	lui	a5,0x52465
    c0005d08:	e4378793          	addi	a5,a5,-445 # 52464e43 <_fw_start-0x6db9b1bd>
    c0005d0c:	4cf50163          	beq	a0,a5,c00061ce <sbi_ecall_handler+0x7ec>
    c0005d10:	f70007b7          	lui	a5,0xf7000
    c0005d14:	97aa                	add	a5,a5,a0
    c0005d16:	01000737          	lui	a4,0x1000
    c0005d1a:	40e7fa63          	bgeu	a5,a4,c000612e <sbi_ecall_handler+0x74c>
    c0005d1e:	0316c703          	lbu	a4,49(a3)
    c0005d22:	0329c783          	lbu	a5,50(s3)
    c0005d26:	0306c683          	lbu	a3,48(a3)
    c0005d2a:	0339c583          	lbu	a1,51(s3)
    c0005d2e:	0722                	slli	a4,a4,0x8
    c0005d30:	0349c603          	lbu	a2,52(s3)
    c0005d34:	8f55                	or	a4,a4,a3
    c0005d36:	07c2                	slli	a5,a5,0x10
    c0005d38:	0359c683          	lbu	a3,53(s3)
    c0005d3c:	8fd9                	or	a5,a5,a4
    c0005d3e:	05e2                	slli	a1,a1,0x18
    c0005d40:	0369c703          	lbu	a4,54(s3)
    c0005d44:	8ddd                	or	a1,a1,a5
    c0005d46:	1602                	slli	a2,a2,0x20
    c0005d48:	0379c783          	lbu	a5,55(s3)
    c0005d4c:	8e4d                	or	a2,a2,a1
    c0005d4e:	16a2                	slli	a3,a3,0x28
    c0005d50:	8ed1                	or	a3,a3,a2
    c0005d52:	1742                	slli	a4,a4,0x30
    c0005d54:	8f55                	or	a4,a4,a3
    c0005d56:	17e2                	slli	a5,a5,0x38
    c0005d58:	8fd9                	or	a5,a5,a4
    c0005d5a:	48078863          	beqz	a5,c00061ea <sbi_ecall_handler+0x808>
    c0005d5e:	0697c703          	lbu	a4,105(a5) # fffffffff7000069 <_fw_end+0xffffffff36ff4069>
    c0005d62:	0687c683          	lbu	a3,104(a5)
    c0005d66:	06a7c803          	lbu	a6,106(a5)
    c0005d6a:	06b7c583          	lbu	a1,107(a5)
    c0005d6e:	06c7c603          	lbu	a2,108(a5)
    c0005d72:	0722                	slli	a4,a4,0x8
    c0005d74:	8f55                	or	a4,a4,a3
    c0005d76:	0842                	slli	a6,a6,0x10
    c0005d78:	06d7c683          	lbu	a3,109(a5)
    c0005d7c:	00e86833          	or	a6,a6,a4
    c0005d80:	05e2                	slli	a1,a1,0x18
    c0005d82:	06e7c703          	lbu	a4,110(a5)
    c0005d86:	0105e5b3          	or	a1,a1,a6
    c0005d8a:	1602                	slli	a2,a2,0x20
    c0005d8c:	06f7c783          	lbu	a5,111(a5)
    c0005d90:	8e4d                	or	a2,a2,a1
    c0005d92:	16a2                	slli	a3,a3,0x28
    c0005d94:	8ed1                	or	a3,a3,a2
    c0005d96:	1742                	slli	a4,a4,0x30
    c0005d98:	8f55                	or	a4,a4,a3
    c0005d9a:	17e2                	slli	a5,a5,0x38
    c0005d9c:	8fd9                	or	a5,a5,a4
    c0005d9e:	0c97c703          	lbu	a4,201(a5)
    c0005da2:	0c87c683          	lbu	a3,200(a5)
    c0005da6:	0ca7c803          	lbu	a6,202(a5)
    c0005daa:	0cb7c583          	lbu	a1,203(a5)
    c0005dae:	0cc7c603          	lbu	a2,204(a5)
    c0005db2:	0722                	slli	a4,a4,0x8
    c0005db4:	8f55                	or	a4,a4,a3
    c0005db6:	0842                	slli	a6,a6,0x10
    c0005db8:	0cd7c683          	lbu	a3,205(a5)
    c0005dbc:	00e86833          	or	a6,a6,a4
    c0005dc0:	05e2                	slli	a1,a1,0x18
    c0005dc2:	0ce7c703          	lbu	a4,206(a5)
    c0005dc6:	0105e5b3          	or	a1,a1,a6
    c0005dca:	1602                	slli	a2,a2,0x20
    c0005dcc:	0cf7c783          	lbu	a5,207(a5)
    c0005dd0:	8e4d                	or	a2,a2,a1
    c0005dd2:	16a2                	slli	a3,a3,0x28
    c0005dd4:	8ed1                	or	a3,a3,a2
    c0005dd6:	1742                	slli	a4,a4,0x30
    c0005dd8:	8f55                	or	a4,a4,a3
    c0005dda:	17e2                	slli	a5,a5,0x38
    c0005ddc:	8fd9                	or	a5,a5,a4
    c0005dde:	40078663          	beqz	a5,c00061ea <sbi_ecall_handler+0x808>
    c0005de2:	f3840a13          	addi	s4,s0,-200
    c0005de6:	8752                	mv	a4,s4
    c0005de8:	f3040693          	addi	a3,s0,-208
    c0005dec:	f6040613          	addi	a2,s0,-160
    c0005df0:	85ca                	mv	a1,s2
    c0005df2:	9782                	jalr	a5
    c0005df4:	57cd                	li	a5,-13
    c0005df6:	2cf50663          	beq	a0,a5,c00060c2 <sbi_ecall_handler+0x6e0>
    c0005dfa:	1014c783          	lbu	a5,257(s1)
    c0005dfe:	1004c703          	lbu	a4,256(s1)
    c0005e02:	1024c803          	lbu	a6,258(s1)
    c0005e06:	1034c583          	lbu	a1,259(s1)
    c0005e0a:	1044c603          	lbu	a2,260(s1)
    c0005e0e:	07a2                	slli	a5,a5,0x8
    c0005e10:	8fd9                	or	a5,a5,a4
    c0005e12:	1054c683          	lbu	a3,261(s1)
    c0005e16:	0842                	slli	a6,a6,0x10
    c0005e18:	00f86833          	or	a6,a6,a5
    c0005e1c:	1064c703          	lbu	a4,262(s1)
    c0005e20:	05e2                	slli	a1,a1,0x18
    c0005e22:	0105e5b3          	or	a1,a1,a6
    c0005e26:	1074c783          	lbu	a5,263(s1)
    c0005e2a:	1602                	slli	a2,a2,0x20
    c0005e2c:	8e4d                	or	a2,a2,a1
    c0005e2e:	16a2                	slli	a3,a3,0x28
    c0005e30:	8ed1                	or	a3,a3,a2
    c0005e32:	1742                	slli	a4,a4,0x30
    c0005e34:	8f55                	or	a4,a4,a3
    c0005e36:	17e2                	slli	a5,a5,0x38
    c0005e38:	8fd9                	or	a5,a5,a4
    c0005e3a:	0791                	addi	a5,a5,4
    c0005e3c:	0087d913          	srli	s2,a5,0x8
    c0005e40:	0107d393          	srli	t2,a5,0x10
    c0005e44:	0187d29b          	srliw	t0,a5,0x18
    c0005e48:	0207df93          	srli	t6,a5,0x20
    c0005e4c:	0287df13          	srli	t5,a5,0x28
    c0005e50:	0307de93          	srli	t4,a5,0x30
    c0005e54:	0387de13          	srli	t3,a5,0x38
    c0005e58:	00855313          	srli	t1,a0,0x8
    c0005e5c:	01055893          	srli	a7,a0,0x10
    c0005e60:	0185581b          	srliw	a6,a0,0x18
    c0005e64:	02055593          	srli	a1,a0,0x20
    c0005e68:	02855613          	srli	a2,a0,0x28
    c0005e6c:	03055693          	srli	a3,a0,0x30
    c0005e70:	03855713          	srli	a4,a0,0x38
    c0005e74:	10f48023          	sb	a5,256(s1)
    c0005e78:	112480a3          	sb	s2,257(s1)
    c0005e7c:	10748123          	sb	t2,258(s1)
    c0005e80:	105481a3          	sb	t0,259(s1)
    c0005e84:	11f48223          	sb	t6,260(s1)
    c0005e88:	11e482a3          	sb	t5,261(s1)
    c0005e8c:	11d48323          	sb	t4,262(s1)
    c0005e90:	11c483a3          	sb	t3,263(s1)
    c0005e94:	04a48823          	sb	a0,80(s1)
    c0005e98:	046488a3          	sb	t1,81(s1)
    c0005e9c:	05148923          	sb	a7,82(s1)
    c0005ea0:	050489a3          	sb	a6,83(s1)
    c0005ea4:	04b48a23          	sb	a1,84(s1)
    c0005ea8:	04c48aa3          	sb	a2,85(s1)
    c0005eac:	04d48b23          	sb	a3,86(s1)
    c0005eb0:	04e48ba3          	sb	a4,87(s1)
    c0005eb4:	f3043783          	ld	a5,-208(s0)
    c0005eb8:	0087d893          	srli	a7,a5,0x8
    c0005ebc:	0107d813          	srli	a6,a5,0x10
    c0005ec0:	0187d51b          	srliw	a0,a5,0x18
    c0005ec4:	0207d593          	srli	a1,a5,0x20
    c0005ec8:	0287d613          	srli	a2,a5,0x28
    c0005ecc:	0307d693          	srli	a3,a5,0x30
    c0005ed0:	0387d713          	srli	a4,a5,0x38
    c0005ed4:	04f48c23          	sb	a5,88(s1)
    c0005ed8:	05148ca3          	sb	a7,89(s1)
    c0005edc:	05048d23          	sb	a6,90(s1)
    c0005ee0:	04a48da3          	sb	a0,91(s1)
    c0005ee4:	04b48e23          	sb	a1,92(s1)
    c0005ee8:	04c48ea3          	sb	a2,93(s1)
    c0005eec:	04d48f23          	sb	a3,94(s1)
    c0005ef0:	04e48fa3          	sb	a4,95(s1)
    c0005ef4:	a8d1                	j	c0005fc8 <sbi_ecall_handler+0x5e6>
    c0005ef6:	f3840a13          	addi	s4,s0,-200
    c0005efa:	85aa                	mv	a1,a0
    c0005efc:	86d2                	mv	a3,s4
    c0005efe:	f6040613          	addi	a2,s0,-160
    c0005f02:	854e                	mv	a0,s3
    c0005f04:	939ff0ef          	jal	ra,c000583c <sbi_ecall_0_1_handler>
    c0005f08:	57cd                	li	a5,-13
    c0005f0a:	1af50c63          	beq	a0,a5,c00060c2 <sbi_ecall_handler+0x6e0>
    c0005f0e:	1014c783          	lbu	a5,257(s1)
    c0005f12:	1004c703          	lbu	a4,256(s1)
    c0005f16:	1024c803          	lbu	a6,258(s1)
    c0005f1a:	1034c583          	lbu	a1,259(s1)
    c0005f1e:	1044c603          	lbu	a2,260(s1)
    c0005f22:	07a2                	slli	a5,a5,0x8
    c0005f24:	8fd9                	or	a5,a5,a4
    c0005f26:	1054c683          	lbu	a3,261(s1)
    c0005f2a:	0842                	slli	a6,a6,0x10
    c0005f2c:	00f86833          	or	a6,a6,a5
    c0005f30:	1064c703          	lbu	a4,262(s1)
    c0005f34:	05e2                	slli	a1,a1,0x18
    c0005f36:	0105e5b3          	or	a1,a1,a6
    c0005f3a:	1074c783          	lbu	a5,263(s1)
    c0005f3e:	1602                	slli	a2,a2,0x20
    c0005f40:	8e4d                	or	a2,a2,a1
    c0005f42:	16a2                	slli	a3,a3,0x28
    c0005f44:	8ed1                	or	a3,a3,a2
    c0005f46:	1742                	slli	a4,a4,0x30
    c0005f48:	8f55                	or	a4,a4,a3
    c0005f4a:	17e2                	slli	a5,a5,0x38
    c0005f4c:	8fd9                	or	a5,a5,a4
    c0005f4e:	0791                	addi	a5,a5,4
    c0005f50:	0087d913          	srli	s2,a5,0x8
    c0005f54:	0107d393          	srli	t2,a5,0x10
    c0005f58:	0187d29b          	srliw	t0,a5,0x18
    c0005f5c:	0207df93          	srli	t6,a5,0x20
    c0005f60:	0287df13          	srli	t5,a5,0x28
    c0005f64:	0307de93          	srli	t4,a5,0x30
    c0005f68:	0387de13          	srli	t3,a5,0x38
    c0005f6c:	00855313          	srli	t1,a0,0x8
    c0005f70:	01055893          	srli	a7,a0,0x10
    c0005f74:	0185581b          	srliw	a6,a0,0x18
    c0005f78:	02055593          	srli	a1,a0,0x20
    c0005f7c:	02855613          	srli	a2,a0,0x28
    c0005f80:	03055693          	srli	a3,a0,0x30
    c0005f84:	03855713          	srli	a4,a0,0x38
    c0005f88:	10f48023          	sb	a5,256(s1)
    c0005f8c:	112480a3          	sb	s2,257(s1)
    c0005f90:	10748123          	sb	t2,258(s1)
    c0005f94:	105481a3          	sb	t0,259(s1)
    c0005f98:	11f48223          	sb	t6,260(s1)
    c0005f9c:	11e482a3          	sb	t5,261(s1)
    c0005fa0:	11d48323          	sb	t4,262(s1)
    c0005fa4:	11c483a3          	sb	t3,263(s1)
    c0005fa8:	04a48823          	sb	a0,80(s1)
    c0005fac:	046488a3          	sb	t1,81(s1)
    c0005fb0:	05148923          	sb	a7,82(s1)
    c0005fb4:	050489a3          	sb	a6,83(s1)
    c0005fb8:	04b48a23          	sb	a1,84(s1)
    c0005fbc:	04c48aa3          	sb	a2,85(s1)
    c0005fc0:	04d48b23          	sb	a3,86(s1)
    c0005fc4:	04e48ba3          	sb	a4,87(s1)
    c0005fc8:	70b2                	ld	ra,296(sp)
    c0005fca:	7412                	ld	s0,288(sp)
    c0005fcc:	64f2                	ld	s1,280(sp)
    c0005fce:	6952                	ld	s2,272(sp)
    c0005fd0:	69b2                	ld	s3,264(sp)
    c0005fd2:	6a12                	ld	s4,256(sp)
    c0005fd4:	7aee                	ld	s5,248(sp)
    c0005fd6:	7b4e                	ld	s6,240(sp)
    c0005fd8:	7bae                	ld	s7,232(sp)
    c0005fda:	7c0e                	ld	s8,224(sp)
    c0005fdc:	6cee                	ld	s9,216(sp)
    c0005fde:	6d4e                	ld	s10,208(sp)
    c0005fe0:	6dae                	ld	s11,200(sp)
    c0005fe2:	4501                	li	a0,0
    c0005fe4:	6155                	addi	sp,sp,304
    c0005fe6:	8082                	ret
    c0005fe8:	20091163          	bnez	s2,c00061ea <sbi_ecall_handler+0x808>
    c0005fec:	8536                	mv	a0,a3
    c0005fee:	e0dfb0ef          	jal	ra,c0001dfa <sbi_timer_event_start>
    c0005ff2:	1014c783          	lbu	a5,257(s1)
    c0005ff6:	1004c703          	lbu	a4,256(s1)
    c0005ffa:	1024c503          	lbu	a0,258(s1)
    c0005ffe:	1034c583          	lbu	a1,259(s1)
    c0006002:	1044c603          	lbu	a2,260(s1)
    c0006006:	07a2                	slli	a5,a5,0x8
    c0006008:	8fd9                	or	a5,a5,a4
    c000600a:	1054c683          	lbu	a3,261(s1)
    c000600e:	0542                	slli	a0,a0,0x10
    c0006010:	8d5d                	or	a0,a0,a5
    c0006012:	1064c703          	lbu	a4,262(s1)
    c0006016:	05e2                	slli	a1,a1,0x18
    c0006018:	8dc9                	or	a1,a1,a0
    c000601a:	1074c783          	lbu	a5,263(s1)
    c000601e:	1602                	slli	a2,a2,0x20
    c0006020:	8e4d                	or	a2,a2,a1
    c0006022:	16a2                	slli	a3,a3,0x28
    c0006024:	8ed1                	or	a3,a3,a2
    c0006026:	1742                	slli	a4,a4,0x30
    c0006028:	8f55                	or	a4,a4,a3
    c000602a:	17e2                	slli	a5,a5,0x38
    c000602c:	8fd9                	or	a5,a5,a4
    c000602e:	0791                	addi	a5,a5,4
    c0006030:	0087d393          	srli	t2,a5,0x8
    c0006034:	0107d293          	srli	t0,a5,0x10
    c0006038:	0187df9b          	srliw	t6,a5,0x18
    c000603c:	0207df13          	srli	t5,a5,0x20
    c0006040:	0287de93          	srli	t4,a5,0x28
    c0006044:	0307de13          	srli	t3,a5,0x30
    c0006048:	0387d313          	srli	t1,a5,0x38
    c000604c:	00895893          	srli	a7,s2,0x8
    c0006050:	01095813          	srli	a6,s2,0x10
    c0006054:	0189551b          	srliw	a0,s2,0x18
    c0006058:	02095593          	srli	a1,s2,0x20
    c000605c:	02895613          	srli	a2,s2,0x28
    c0006060:	03095693          	srli	a3,s2,0x30
    c0006064:	03895713          	srli	a4,s2,0x38
    c0006068:	10f48023          	sb	a5,256(s1)
    c000606c:	107480a3          	sb	t2,257(s1)
    c0006070:	10548123          	sb	t0,258(s1)
    c0006074:	11f481a3          	sb	t6,259(s1)
    c0006078:	11e48223          	sb	t5,260(s1)
    c000607c:	11d482a3          	sb	t4,261(s1)
    c0006080:	11c48323          	sb	t3,262(s1)
    c0006084:	106483a3          	sb	t1,263(s1)
    c0006088:	05248823          	sb	s2,80(s1)
    c000608c:	051488a3          	sb	a7,81(s1)
    c0006090:	05048923          	sb	a6,82(s1)
    c0006094:	04a489a3          	sb	a0,83(s1)
    c0006098:	04b48a23          	sb	a1,84(s1)
    c000609c:	04c48aa3          	sb	a2,85(s1)
    c00060a0:	04d48b23          	sb	a3,86(s1)
    c00060a4:	04e48ba3          	sb	a4,87(s1)
    c00060a8:	b531                	j	c0005eb4 <sbi_ecall_handler+0x4d2>
    c00060aa:	14091063          	bnez	s2,c00061ea <sbi_ecall_handler+0x808>
    c00060ae:	4701                	li	a4,0
    c00060b0:	4685                	li	a3,1
    c00060b2:	854e                	mv	a0,s3
    c00060b4:	83afb0ef          	jal	ra,c00010ee <sbi_ipi_send_many>
    c00060b8:	57cd                	li	a5,-13
    c00060ba:	d4f510e3          	bne	a0,a5,c0005dfa <sbi_ecall_handler+0x418>
    c00060be:	f3840a13          	addi	s4,s0,-200
    c00060c2:	1014c703          	lbu	a4,257(s1)
    c00060c6:	1004c683          	lbu	a3,256(s1)
    c00060ca:	1024c783          	lbu	a5,258(s1)
    c00060ce:	1034c583          	lbu	a1,259(s1)
    c00060d2:	1044c603          	lbu	a2,260(s1)
    c00060d6:	0722                	slli	a4,a4,0x8
    c00060d8:	8f55                	or	a4,a4,a3
    c00060da:	07c2                	slli	a5,a5,0x10
    c00060dc:	1054c683          	lbu	a3,261(s1)
    c00060e0:	8fd9                	or	a5,a5,a4
    c00060e2:	05e2                	slli	a1,a1,0x18
    c00060e4:	1064c703          	lbu	a4,262(s1)
    c00060e8:	8ddd                	or	a1,a1,a5
    c00060ea:	1602                	slli	a2,a2,0x20
    c00060ec:	1074c783          	lbu	a5,263(s1)
    c00060f0:	8e4d                	or	a2,a2,a1
    c00060f2:	16a2                	slli	a3,a3,0x28
    c00060f4:	8ed1                	or	a3,a3,a2
    c00060f6:	1742                	slli	a4,a4,0x30
    c00060f8:	8f55                	or	a4,a4,a3
    c00060fa:	17e2                	slli	a5,a5,0x38
    c00060fc:	8fd9                	or	a5,a5,a4
    c00060fe:	864e                	mv	a2,s3
    c0006100:	85d2                	mv	a1,s4
    c0006102:	8526                	mv	a0,s1
    c0006104:	f2f43c23          	sd	a5,-200(s0)
    c0006108:	df4fc0ef          	jal	ra,c00026fc <sbi_trap_redirect>
    c000610c:	bd75                	j	c0005fc8 <sbi_ecall_handler+0x5e6>
    c000610e:	f3840a13          	addi	s4,s0,-200
    c0006112:	87d2                	mv	a5,s4
    c0006114:	f3040713          	addi	a4,s0,-208
    c0006118:	f6040693          	addi	a3,s0,-160
    c000611c:	864a                	mv	a2,s2
    c000611e:	45c1                	li	a1,16
    c0006120:	854e                	mv	a0,s3
    c0006122:	c36ff0ef          	jal	ra,c0005558 <sbi_ecall_base_handler>
    c0006126:	57cd                	li	a5,-13
    c0006128:	ccf519e3          	bne	a0,a5,c0005dfa <sbi_ecall_handler+0x418>
    c000612c:	bf59                	j	c00060c2 <sbi_ecall_handler+0x6e0>
    c000612e:	1014c783          	lbu	a5,257(s1)
    c0006132:	1004c703          	lbu	a4,256(s1)
    c0006136:	1024c503          	lbu	a0,258(s1)
    c000613a:	1034c583          	lbu	a1,259(s1)
    c000613e:	1044c603          	lbu	a2,260(s1)
    c0006142:	07a2                	slli	a5,a5,0x8
    c0006144:	8fd9                	or	a5,a5,a4
    c0006146:	1054c683          	lbu	a3,261(s1)
    c000614a:	0542                	slli	a0,a0,0x10
    c000614c:	8d5d                	or	a0,a0,a5
    c000614e:	1064c703          	lbu	a4,262(s1)
    c0006152:	05e2                	slli	a1,a1,0x18
    c0006154:	8dc9                	or	a1,a1,a0
    c0006156:	1074c783          	lbu	a5,263(s1)
    c000615a:	1602                	slli	a2,a2,0x20
    c000615c:	8e4d                	or	a2,a2,a1
    c000615e:	16a2                	slli	a3,a3,0x28
    c0006160:	8ed1                	or	a3,a3,a2
    c0006162:	1742                	slli	a4,a4,0x30
    c0006164:	8f55                	or	a4,a4,a3
    c0006166:	17e2                	slli	a5,a5,0x38
    c0006168:	8fd9                	or	a5,a5,a4
    c000616a:	0791                	addi	a5,a5,4
    c000616c:	577d                	li	a4,-1
    c000616e:	0087d313          	srli	t1,a5,0x8
    c0006172:	0107d893          	srli	a7,a5,0x10
    c0006176:	0187d81b          	srliw	a6,a5,0x18
    c000617a:	0207d513          	srli	a0,a5,0x20
    c000617e:	0287d593          	srli	a1,a5,0x28
    c0006182:	0307d613          	srli	a2,a5,0x30
    c0006186:	0387d693          	srli	a3,a5,0x38
    c000618a:	10f48023          	sb	a5,256(s1)
    c000618e:	57f9                	li	a5,-2
    c0006190:	106480a3          	sb	t1,257(s1)
    c0006194:	11148123          	sb	a7,258(s1)
    c0006198:	110481a3          	sb	a6,259(s1)
    c000619c:	10a48223          	sb	a0,260(s1)
    c00061a0:	10b482a3          	sb	a1,261(s1)
    c00061a4:	10c48323          	sb	a2,262(s1)
    c00061a8:	10d483a3          	sb	a3,263(s1)
    c00061ac:	04f48823          	sb	a5,80(s1)
    c00061b0:	04e488a3          	sb	a4,81(s1)
    c00061b4:	04e48923          	sb	a4,82(s1)
    c00061b8:	04e489a3          	sb	a4,83(s1)
    c00061bc:	04e48a23          	sb	a4,84(s1)
    c00061c0:	04e48aa3          	sb	a4,85(s1)
    c00061c4:	04e48b23          	sb	a4,86(s1)
    c00061c8:	04e48ba3          	sb	a4,87(s1)
    c00061cc:	b1e5                	j	c0005eb4 <sbi_ecall_handler+0x4d2>
    c00061ce:	f3040693          	addi	a3,s0,-208
    c00061d2:	f6040613          	addi	a2,s0,-160
    c00061d6:	85ca                	mv	a1,s2
    c00061d8:	854e                	mv	a0,s3
    c00061da:	c2cff0ef          	jal	ra,c0005606 <sbi_ecall_rfence_handler>
    c00061de:	57cd                	li	a5,-13
    c00061e0:	c0f51de3          	bne	a0,a5,c0005dfa <sbi_ecall_handler+0x418>
    c00061e4:	f3840a13          	addi	s4,s0,-200
    c00061e8:	bde9                	j	c00060c2 <sbi_ecall_handler+0x6e0>
    c00061ea:	5979                	li	s2,-2
    c00061ec:	b519                	j	c0005ff2 <sbi_ecall_handler+0x610>

00000000c00061ee <sbi_fifo_init>:
    c00061ee:	8732                	mv	a4,a2
    c00061f0:	02d60633          	mul	a2,a2,a3
    c00061f4:	1141                	addi	sp,sp,-16
    c00061f6:	e022                	sd	s0,0(sp)
    c00061f8:	e406                	sd	ra,8(sp)
    c00061fa:	0800                	addi	s0,sp,16
    c00061fc:	87aa                	mv	a5,a0
    c00061fe:	e38c                	sd	a1,0(a5)
    c0006200:	852e                	mv	a0,a1
    c0006202:	00e79923          	sh	a4,18(a5)
    c0006206:	00d79823          	sh	a3,16(a5)
    c000620a:	0007b423          	sd	zero,8(a5)
    c000620e:	0007aa23          	sw	zero,20(a5)
    c0006212:	4581                	li	a1,0
    c0006214:	9b3fd0ef          	jal	ra,c0003bc6 <sbi_memset>
    c0006218:	60a2                	ld	ra,8(sp)
    c000621a:	6402                	ld	s0,0(sp)
    c000621c:	0141                	addi	sp,sp,16
    c000621e:	8082                	ret

00000000c0006220 <sbi_fifo_avail>:
    c0006220:	1101                	addi	sp,sp,-32
    c0006222:	e822                	sd	s0,16(sp)
    c0006224:	e426                	sd	s1,8(sp)
    c0006226:	ec06                	sd	ra,24(sp)
    c0006228:	e04a                	sd	s2,0(sp)
    c000622a:	1000                	addi	s0,sp,32
    c000622c:	4481                	li	s1,0
    c000622e:	cd01                	beqz	a0,c0006246 <sbi_fifo_avail+0x26>
    c0006230:	00850913          	addi	s2,a0,8
    c0006234:	84aa                	mv	s1,a0
    c0006236:	854a                	mv	a0,s2
    c0006238:	cb6fe0ef          	jal	ra,c00046ee <spin_lock>
    c000623c:	854a                	mv	a0,s2
    c000623e:	0144d483          	lhu	s1,20(s1)
    c0006242:	ccafe0ef          	jal	ra,c000470c <spin_unlock>
    c0006246:	60e2                	ld	ra,24(sp)
    c0006248:	6442                	ld	s0,16(sp)
    c000624a:	8526                	mv	a0,s1
    c000624c:	6902                	ld	s2,0(sp)
    c000624e:	64a2                	ld	s1,8(sp)
    c0006250:	6105                	addi	sp,sp,32
    c0006252:	8082                	ret

00000000c0006254 <sbi_fifo_is_full>:
    c0006254:	7179                	addi	sp,sp,-48
    c0006256:	f406                	sd	ra,40(sp)
    c0006258:	f022                	sd	s0,32(sp)
    c000625a:	ec26                	sd	s1,24(sp)
    c000625c:	e84a                	sd	s2,16(sp)
    c000625e:	e44e                	sd	s3,8(sp)
    c0006260:	1800                	addi	s0,sp,48
    c0006262:	00850993          	addi	s3,a0,8
    c0006266:	892a                	mv	s2,a0
    c0006268:	854e                	mv	a0,s3
    c000626a:	c84fe0ef          	jal	ra,c00046ee <spin_lock>
    c000626e:	01295783          	lhu	a5,18(s2)
    c0006272:	01495483          	lhu	s1,20(s2)
    c0006276:	854e                	mv	a0,s3
    c0006278:	8c9d                	sub	s1,s1,a5
    c000627a:	c92fe0ef          	jal	ra,c000470c <spin_unlock>
    c000627e:	70a2                	ld	ra,40(sp)
    c0006280:	7402                	ld	s0,32(sp)
    c0006282:	0014b493          	seqz	s1,s1
    c0006286:	8526                	mv	a0,s1
    c0006288:	6942                	ld	s2,16(sp)
    c000628a:	64e2                	ld	s1,24(sp)
    c000628c:	69a2                	ld	s3,8(sp)
    c000628e:	6145                	addi	sp,sp,48
    c0006290:	8082                	ret

00000000c0006292 <sbi_fifo_is_empty>:
    c0006292:	1101                	addi	sp,sp,-32
    c0006294:	ec06                	sd	ra,24(sp)
    c0006296:	e822                	sd	s0,16(sp)
    c0006298:	e426                	sd	s1,8(sp)
    c000629a:	e04a                	sd	s2,0(sp)
    c000629c:	1000                	addi	s0,sp,32
    c000629e:	00850913          	addi	s2,a0,8
    c00062a2:	84aa                	mv	s1,a0
    c00062a4:	854a                	mv	a0,s2
    c00062a6:	c48fe0ef          	jal	ra,c00046ee <spin_lock>
    c00062aa:	854a                	mv	a0,s2
    c00062ac:	0144d483          	lhu	s1,20(s1)
    c00062b0:	c5cfe0ef          	jal	ra,c000470c <spin_unlock>
    c00062b4:	60e2                	ld	ra,24(sp)
    c00062b6:	6442                	ld	s0,16(sp)
    c00062b8:	0014b493          	seqz	s1,s1
    c00062bc:	8526                	mv	a0,s1
    c00062be:	6902                	ld	s2,0(sp)
    c00062c0:	64a2                	ld	s1,8(sp)
    c00062c2:	6105                	addi	sp,sp,32
    c00062c4:	8082                	ret

00000000c00062c6 <sbi_fifo_reset>:
    c00062c6:	c139                	beqz	a0,c000630c <sbi_fifo_reset+0x46>
    c00062c8:	1101                	addi	sp,sp,-32
    c00062ca:	ec06                	sd	ra,24(sp)
    c00062cc:	e822                	sd	s0,16(sp)
    c00062ce:	e426                	sd	s1,8(sp)
    c00062d0:	1000                	addi	s0,sp,32
    c00062d2:	e04a                	sd	s2,0(sp)
    c00062d4:	00850913          	addi	s2,a0,8
    c00062d8:	84aa                	mv	s1,a0
    c00062da:	854a                	mv	a0,s2
    c00062dc:	c12fe0ef          	jal	ra,c00046ee <spin_lock>
    c00062e0:	0104d783          	lhu	a5,16(s1)
    c00062e4:	0124d603          	lhu	a2,18(s1)
    c00062e8:	6088                	ld	a0,0(s1)
    c00062ea:	4581                	li	a1,0
    c00062ec:	02f60633          	mul	a2,a2,a5
    c00062f0:	0004aa23          	sw	zero,20(s1)
    c00062f4:	8d3fd0ef          	jal	ra,c0003bc6 <sbi_memset>
    c00062f8:	854a                	mv	a0,s2
    c00062fa:	c12fe0ef          	jal	ra,c000470c <spin_unlock>
    c00062fe:	60e2                	ld	ra,24(sp)
    c0006300:	6442                	ld	s0,16(sp)
    c0006302:	64a2                	ld	s1,8(sp)
    c0006304:	6902                	ld	s2,0(sp)
    c0006306:	4505                	li	a0,1
    c0006308:	6105                	addi	sp,sp,32
    c000630a:	8082                	ret
    c000630c:	4501                	li	a0,0
    c000630e:	8082                	ret

00000000c0006310 <sbi_fifo_inplace_update>:
    c0006310:	715d                	addi	sp,sp,-80
    c0006312:	e0a2                	sd	s0,64(sp)
    c0006314:	e486                	sd	ra,72(sp)
    c0006316:	fc26                	sd	s1,56(sp)
    c0006318:	f84a                	sd	s2,48(sp)
    c000631a:	f44e                	sd	s3,40(sp)
    c000631c:	f052                	sd	s4,32(sp)
    c000631e:	ec56                	sd	s5,24(sp)
    c0006320:	e85a                	sd	s6,16(sp)
    c0006322:	e45e                	sd	s7,8(sp)
    c0006324:	0880                	addi	s0,sp,80
    c0006326:	cd25                	beqz	a0,c000639e <sbi_fifo_inplace_update+0x8e>
    c0006328:	c9bd                	beqz	a1,c000639e <sbi_fifo_inplace_update+0x8e>
    c000632a:	00850b13          	addi	s6,a0,8
    c000632e:	84aa                	mv	s1,a0
    c0006330:	855a                	mv	a0,s6
    c0006332:	8a32                	mv	s4,a2
    c0006334:	89ae                	mv	s3,a1
    c0006336:	bb8fe0ef          	jal	ra,c00046ee <spin_lock>
    c000633a:	0144d783          	lhu	a5,20(s1)
    c000633e:	4901                	li	s2,0
    c0006340:	4a85                	li	s5,1
    c0006342:	e791                	bnez	a5,c000634e <sbi_fifo_inplace_update+0x3e>
    c0006344:	a8b9                	j	c00063a2 <sbi_fifo_inplace_update+0x92>
    c0006346:	0144d783          	lhu	a5,20(s1)
    c000634a:	02f95b63          	bge	s2,a5,c0006380 <sbi_fifo_inplace_update+0x70>
    c000634e:	0164d703          	lhu	a4,22(s1)
    c0006352:	0124d783          	lhu	a5,18(s1)
    c0006356:	854e                	mv	a0,s3
    c0006358:	012706bb          	addw	a3,a4,s2
    c000635c:	2905                	addiw	s2,s2,1
    c000635e:	00f6c363          	blt	a3,a5,c0006364 <sbi_fifo_inplace_update+0x54>
    c0006362:	9e9d                	subw	a3,a3,a5
    c0006364:	0104d783          	lhu	a5,16(s1)
    c0006368:	608c                	ld	a1,0(s1)
    c000636a:	02d787bb          	mulw	a5,a5,a3
    c000636e:	1782                	slli	a5,a5,0x20
    c0006370:	9381                	srli	a5,a5,0x20
    c0006372:	95be                	add	a1,a1,a5
    c0006374:	9a02                	jalr	s4
    c0006376:	0005079b          	sext.w	a5,a0
    c000637a:	8baa                	mv	s7,a0
    c000637c:	fcfae5e3          	bltu	s5,a5,c0006346 <sbi_fifo_inplace_update+0x36>
    c0006380:	855a                	mv	a0,s6
    c0006382:	b8afe0ef          	jal	ra,c000470c <spin_unlock>
    c0006386:	60a6                	ld	ra,72(sp)
    c0006388:	6406                	ld	s0,64(sp)
    c000638a:	855e                	mv	a0,s7
    c000638c:	74e2                	ld	s1,56(sp)
    c000638e:	7942                	ld	s2,48(sp)
    c0006390:	79a2                	ld	s3,40(sp)
    c0006392:	7a02                	ld	s4,32(sp)
    c0006394:	6ae2                	ld	s5,24(sp)
    c0006396:	6b42                	ld	s6,16(sp)
    c0006398:	6ba2                	ld	s7,8(sp)
    c000639a:	6161                	addi	sp,sp,80
    c000639c:	8082                	ret
    c000639e:	4b89                	li	s7,2
    c00063a0:	b7dd                	j	c0006386 <sbi_fifo_inplace_update+0x76>
    c00063a2:	855a                	mv	a0,s6
    c00063a4:	b68fe0ef          	jal	ra,c000470c <spin_unlock>
    c00063a8:	4b89                	li	s7,2
    c00063aa:	bff1                	j	c0006386 <sbi_fifo_inplace_update+0x76>

00000000c00063ac <sbi_fifo_enqueue>:
    c00063ac:	c925                	beqz	a0,c000641c <sbi_fifo_enqueue+0x70>
    c00063ae:	c5bd                	beqz	a1,c000641c <sbi_fifo_enqueue+0x70>
    c00063b0:	7179                	addi	sp,sp,-48
    c00063b2:	f022                	sd	s0,32(sp)
    c00063b4:	ec26                	sd	s1,24(sp)
    c00063b6:	e84a                	sd	s2,16(sp)
    c00063b8:	e44e                	sd	s3,8(sp)
    c00063ba:	f406                	sd	ra,40(sp)
    c00063bc:	1800                	addi	s0,sp,48
    c00063be:	00850993          	addi	s3,a0,8
    c00063c2:	84aa                	mv	s1,a0
    c00063c4:	854e                	mv	a0,s3
    c00063c6:	892e                	mv	s2,a1
    c00063c8:	b26fe0ef          	jal	ra,c00046ee <spin_lock>
    c00063cc:	0144d783          	lhu	a5,20(s1)
    c00063d0:	0124d683          	lhu	a3,18(s1)
    c00063d4:	04d78663          	beq	a5,a3,c0006420 <sbi_fifo_enqueue+0x74>
    c00063d8:	0164d703          	lhu	a4,22(s1)
    c00063dc:	9fb9                	addw	a5,a5,a4
    c00063de:	02d7fd63          	bgeu	a5,a3,c0006418 <sbi_fifo_enqueue+0x6c>
    c00063e2:	0104d603          	lhu	a2,16(s1)
    c00063e6:	6088                	ld	a0,0(s1)
    c00063e8:	85ca                	mv	a1,s2
    c00063ea:	02f607bb          	mulw	a5,a2,a5
    c00063ee:	1782                	slli	a5,a5,0x20
    c00063f0:	9381                	srli	a5,a5,0x20
    c00063f2:	953e                	add	a0,a0,a5
    c00063f4:	ff4fd0ef          	jal	ra,c0003be8 <sbi_memcpy>
    c00063f8:	0144d783          	lhu	a5,20(s1)
    c00063fc:	854e                	mv	a0,s3
    c00063fe:	2785                	addiw	a5,a5,1
    c0006400:	00f49a23          	sh	a5,20(s1)
    c0006404:	b08fe0ef          	jal	ra,c000470c <spin_unlock>
    c0006408:	4501                	li	a0,0
    c000640a:	70a2                	ld	ra,40(sp)
    c000640c:	7402                	ld	s0,32(sp)
    c000640e:	64e2                	ld	s1,24(sp)
    c0006410:	6942                	ld	s2,16(sp)
    c0006412:	69a2                	ld	s3,8(sp)
    c0006414:	6145                	addi	sp,sp,48
    c0006416:	8082                	ret
    c0006418:	9f95                	subw	a5,a5,a3
    c000641a:	b7e1                	j	c00063e2 <sbi_fifo_enqueue+0x36>
    c000641c:	5575                	li	a0,-3
    c000641e:	8082                	ret
    c0006420:	854e                	mv	a0,s3
    c0006422:	aeafe0ef          	jal	ra,c000470c <spin_unlock>
    c0006426:	5555                	li	a0,-11
    c0006428:	b7cd                	j	c000640a <sbi_fifo_enqueue+0x5e>

00000000c000642a <sbi_fifo_dequeue>:
    c000642a:	cd3d                	beqz	a0,c00064a8 <sbi_fifo_dequeue+0x7e>
    c000642c:	cdb5                	beqz	a1,c00064a8 <sbi_fifo_dequeue+0x7e>
    c000642e:	7179                	addi	sp,sp,-48
    c0006430:	f022                	sd	s0,32(sp)
    c0006432:	ec26                	sd	s1,24(sp)
    c0006434:	e84a                	sd	s2,16(sp)
    c0006436:	e44e                	sd	s3,8(sp)
    c0006438:	f406                	sd	ra,40(sp)
    c000643a:	1800                	addi	s0,sp,48
    c000643c:	00850993          	addi	s3,a0,8
    c0006440:	84aa                	mv	s1,a0
    c0006442:	854e                	mv	a0,s3
    c0006444:	892e                	mv	s2,a1
    c0006446:	aa8fe0ef          	jal	ra,c00046ee <spin_lock>
    c000644a:	0144d783          	lhu	a5,20(s1)
    c000644e:	cfb9                	beqz	a5,c00064ac <sbi_fifo_dequeue+0x82>
    c0006450:	0104d703          	lhu	a4,16(s1)
    c0006454:	0164d783          	lhu	a5,22(s1)
    c0006458:	608c                	ld	a1,0(s1)
    c000645a:	863a                	mv	a2,a4
    c000645c:	02e787bb          	mulw	a5,a5,a4
    c0006460:	854a                	mv	a0,s2
    c0006462:	1782                	slli	a5,a5,0x20
    c0006464:	9381                	srli	a5,a5,0x20
    c0006466:	95be                	add	a1,a1,a5
    c0006468:	f80fd0ef          	jal	ra,c0003be8 <sbi_memcpy>
    c000646c:	0164d783          	lhu	a5,22(s1)
    c0006470:	0144d703          	lhu	a4,20(s1)
    c0006474:	0124d683          	lhu	a3,18(s1)
    c0006478:	2785                	addiw	a5,a5,1
    c000647a:	17c2                	slli	a5,a5,0x30
    c000647c:	377d                	addiw	a4,a4,-1
    c000647e:	93c1                	srli	a5,a5,0x30
    c0006480:	00e49a23          	sh	a4,20(s1)
    c0006484:	00f49b23          	sh	a5,22(s1)
    c0006488:	00d7fd63          	bgeu	a5,a3,c00064a2 <sbi_fifo_dequeue+0x78>
    c000648c:	854e                	mv	a0,s3
    c000648e:	a7efe0ef          	jal	ra,c000470c <spin_unlock>
    c0006492:	4501                	li	a0,0
    c0006494:	70a2                	ld	ra,40(sp)
    c0006496:	7402                	ld	s0,32(sp)
    c0006498:	64e2                	ld	s1,24(sp)
    c000649a:	6942                	ld	s2,16(sp)
    c000649c:	69a2                	ld	s3,8(sp)
    c000649e:	6145                	addi	sp,sp,48
    c00064a0:	8082                	ret
    c00064a2:	00049b23          	sh	zero,22(s1)
    c00064a6:	b7dd                	j	c000648c <sbi_fifo_dequeue+0x62>
    c00064a8:	5575                	li	a0,-3
    c00064aa:	8082                	ret
    c00064ac:	854e                	mv	a0,s3
    c00064ae:	a5efe0ef          	jal	ra,c000470c <spin_unlock>
    c00064b2:	5545                	li	a0,-15
    c00064b4:	b7c5                	j	c0006494 <sbi_fifo_dequeue+0x6a>
	...

00000000c00064b8 <__sbi_hfence_gvma_vmid_gpa>:
    c00064b8:	62a60073          	0x62a60073
    c00064bc:	8082                	ret
    c00064be:	0001                	nop

00000000c00064c0 <__sbi_hfence_gvma_vmid>:
    c00064c0:	62a00073          	0x62a00073
    c00064c4:	8082                	ret
    c00064c6:	0001                	nop

00000000c00064c8 <__sbi_hfence_gvma_gpa>:
    c00064c8:	62050073          	0x62050073
    c00064cc:	8082                	ret
    c00064ce:	0001                	nop

00000000c00064d0 <__sbi_hfence_gvma_all>:
    c00064d0:	62000073          	0x62000073
    c00064d4:	8082                	ret
    c00064d6:	0001                	nop

00000000c00064d8 <__sbi_hfence_vvma_asid_va>:
    c00064d8:	22a60073          	0x22a60073
    c00064dc:	8082                	ret
    c00064de:	0001                	nop

00000000c00064e0 <__sbi_hfence_vvma_asid>:
    c00064e0:	22a00073          	0x22a00073
    c00064e4:	8082                	ret
    c00064e6:	0001                	nop

00000000c00064e8 <__sbi_hfence_vvma_va>:
    c00064e8:	22050073          	0x22050073
    c00064ec:	8082                	ret
    c00064ee:	0001                	nop

00000000c00064f0 <__sbi_hfence_vvma_all>:
    c00064f0:	22000073          	0x22000073
    c00064f4:	8082                	ret

00000000c00064f6 <sbi_current_hartid>:
    c00064f6:	1141                	addi	sp,sp,-16
    c00064f8:	e422                	sd	s0,8(sp)
    c00064fa:	0800                	addi	s0,sp,16
    c00064fc:	f1402573          	csrr	a0,mhartid
    c0006500:	6422                	ld	s0,8(sp)
    c0006502:	2501                	sext.w	a0,a0
    c0006504:	0141                	addi	sp,sp,16
    c0006506:	8082                	ret

00000000c0006508 <log2roundup>:
    c0006508:	1141                	addi	sp,sp,-16
    c000650a:	e422                	sd	s0,8(sp)
    c000650c:	0800                	addi	s0,sp,16
    c000650e:	4781                	li	a5,0
    c0006510:	4685                	li	a3,1
    c0006512:	04000613          	li	a2,64
    c0006516:	a021                	j	c000651e <log2roundup+0x16>
    c0006518:	0785                	addi	a5,a5,1
    c000651a:	00c78663          	beq	a5,a2,c0006526 <log2roundup+0x1e>
    c000651e:	00f69733          	sll	a4,a3,a5
    c0006522:	fea76be3          	bltu	a4,a0,c0006518 <log2roundup+0x10>
    c0006526:	6422                	ld	s0,8(sp)
    c0006528:	853e                	mv	a0,a5
    c000652a:	0141                	addi	sp,sp,16
    c000652c:	8082                	ret

00000000c000652e <sbi_hart_pmp_dump>:
    c000652e:	03154703          	lbu	a4,49(a0)
    c0006532:	03054683          	lbu	a3,48(a0)
    c0006536:	03254783          	lbu	a5,50(a0)
    c000653a:	03354583          	lbu	a1,51(a0)
    c000653e:	0722                	slli	a4,a4,0x8
    c0006540:	03454603          	lbu	a2,52(a0)
    c0006544:	8f55                	or	a4,a4,a3
    c0006546:	07c2                	slli	a5,a5,0x10
    c0006548:	03554683          	lbu	a3,53(a0)
    c000654c:	8fd9                	or	a5,a5,a4
    c000654e:	05e2                	slli	a1,a1,0x18
    c0006550:	03654703          	lbu	a4,54(a0)
    c0006554:	8ddd                	or	a1,a1,a5
    c0006556:	1602                	slli	a2,a2,0x20
    c0006558:	03754783          	lbu	a5,55(a0)
    c000655c:	8e4d                	or	a2,a2,a1
    c000655e:	16a2                	slli	a3,a3,0x28
    c0006560:	8ed1                	or	a3,a3,a2
    c0006562:	1742                	slli	a4,a4,0x30
    c0006564:	8f55                	or	a4,a4,a3
    c0006566:	17e2                	slli	a5,a5,0x38
    c0006568:	8fd9                	or	a5,a5,a4
    c000656a:	0487c783          	lbu	a5,72(a5)
    c000656e:	8b91                	andi	a5,a5,4
    c0006570:	10078363          	beqz	a5,c0006676 <sbi_hart_pmp_dump+0x148>
    c0006574:	7159                	addi	sp,sp,-112
    c0006576:	f0a2                	sd	s0,96(sp)
    c0006578:	eca6                	sd	s1,88(sp)
    c000657a:	e8ca                	sd	s2,80(sp)
    c000657c:	e4ce                	sd	s3,72(sp)
    c000657e:	e0d2                	sd	s4,64(sp)
    c0006580:	fc56                	sd	s5,56(sp)
    c0006582:	f85a                	sd	s6,48(sp)
    c0006584:	f45e                	sd	s7,40(sp)
    c0006586:	f062                	sd	s8,32(sp)
    c0006588:	f486                	sd	ra,104(sp)
    c000658a:	1880                	addi	s0,sp,112
    c000658c:	4481                	li	s1,0
    c000658e:	03f00a13          	li	s4,63
    c0006592:	00003997          	auipc	s3,0x3
    c0006596:	38e98993          	addi	s3,s3,910 # c0009920 <platform_ops+0x260>
    c000659a:	00003917          	auipc	s2,0x3
    c000659e:	ed690913          	addi	s2,s2,-298 # c0009470 <__func__.1237+0x108>
    c00065a2:	00003c17          	auipc	s8,0x3
    c00065a6:	3b6c0c13          	addi	s8,s8,950 # c0009958 <platform_ops+0x298>
    c00065aa:	00003b97          	auipc	s7,0x3
    c00065ae:	3a6b8b93          	addi	s7,s7,934 # c0009950 <platform_ops+0x290>
    c00065b2:	00003b17          	auipc	s6,0x3
    c00065b6:	396b0b13          	addi	s6,s6,918 # c0009948 <platform_ops+0x288>
    c00065ba:	00003a97          	auipc	s5,0x3
    c00065be:	386a8a93          	addi	s5,s5,902 # c0009940 <platform_ops+0x280>
    c00065c2:	a005                	j	c00065e2 <sbi_hart_pmp_dump+0xb4>
    c00065c4:	0017f713          	andi	a4,a5,1
    c00065c8:	eb25                	bnez	a4,c0006638 <sbi_hart_pmp_dump+0x10a>
    c00065ca:	0027f713          	andi	a4,a5,2
    c00065ce:	ef2d                	bnez	a4,c0006648 <sbi_hart_pmp_dump+0x11a>
    c00065d0:	8b91                	andi	a5,a5,4
    c00065d2:	e3d1                	bnez	a5,c0006656 <sbi_hart_pmp_dump+0x128>
    c00065d4:	854a                	mv	a0,s2
    c00065d6:	b79fe0ef          	jal	ra,c000514e <sbi_printf>
    c00065da:	2485                	addiw	s1,s1,1
    c00065dc:	47c1                	li	a5,16
    c00065de:	08f48063          	beq	s1,a5,c000665e <sbi_hart_pmp_dump+0x130>
    c00065e2:	fa840693          	addi	a3,s0,-88
    c00065e6:	fa040613          	addi	a2,s0,-96
    c00065ea:	f9840593          	addi	a1,s0,-104
    c00065ee:	8526                	mv	a0,s1
    c00065f0:	e25fd0ef          	jal	ra,c0004414 <pmp_get>
    c00065f4:	f9843783          	ld	a5,-104(s0)
    c00065f8:	8be1                	andi	a5,a5,24
    c00065fa:	d3e5                	beqz	a5,c00065da <sbi_hart_pmp_dump+0xac>
    c00065fc:	fa843703          	ld	a4,-88(s0)
    c0006600:	4781                	li	a5,0
    c0006602:	00ea6563          	bltu	s4,a4,c000660c <sbi_hart_pmp_dump+0xde>
    c0006606:	4785                	li	a5,1
    c0006608:	00e797b3          	sll	a5,a5,a4
    c000660c:	fa043603          	ld	a2,-96(s0)
    c0006610:	85a6                	mv	a1,s1
    c0006612:	854e                	mv	a0,s3
    c0006614:	fff60693          	addi	a3,a2,-1
    c0006618:	96be                	add	a3,a3,a5
    c000661a:	b35fe0ef          	jal	ra,c000514e <sbi_printf>
    c000661e:	f9843783          	ld	a5,-104(s0)
    c0006622:	0807f713          	andi	a4,a5,128
    c0006626:	df59                	beqz	a4,c00065c4 <sbi_hart_pmp_dump+0x96>
    c0006628:	8556                	mv	a0,s5
    c000662a:	b25fe0ef          	jal	ra,c000514e <sbi_printf>
    c000662e:	f9843783          	ld	a5,-104(s0)
    c0006632:	0017f713          	andi	a4,a5,1
    c0006636:	db51                	beqz	a4,c00065ca <sbi_hart_pmp_dump+0x9c>
    c0006638:	855a                	mv	a0,s6
    c000663a:	b15fe0ef          	jal	ra,c000514e <sbi_printf>
    c000663e:	f9843783          	ld	a5,-104(s0)
    c0006642:	0027f713          	andi	a4,a5,2
    c0006646:	d749                	beqz	a4,c00065d0 <sbi_hart_pmp_dump+0xa2>
    c0006648:	855e                	mv	a0,s7
    c000664a:	b05fe0ef          	jal	ra,c000514e <sbi_printf>
    c000664e:	f9843783          	ld	a5,-104(s0)
    c0006652:	8b91                	andi	a5,a5,4
    c0006654:	d3c1                	beqz	a5,c00065d4 <sbi_hart_pmp_dump+0xa6>
    c0006656:	8562                	mv	a0,s8
    c0006658:	af7fe0ef          	jal	ra,c000514e <sbi_printf>
    c000665c:	bfa5                	j	c00065d4 <sbi_hart_pmp_dump+0xa6>
    c000665e:	70a6                	ld	ra,104(sp)
    c0006660:	7406                	ld	s0,96(sp)
    c0006662:	64e6                	ld	s1,88(sp)
    c0006664:	6946                	ld	s2,80(sp)
    c0006666:	69a6                	ld	s3,72(sp)
    c0006668:	6a06                	ld	s4,64(sp)
    c000666a:	7ae2                	ld	s5,56(sp)
    c000666c:	7b42                	ld	s6,48(sp)
    c000666e:	7ba2                	ld	s7,40(sp)
    c0006670:	7c02                	ld	s8,32(sp)
    c0006672:	6165                	addi	sp,sp,112
    c0006674:	8082                	ret
    c0006676:	8082                	ret

00000000c0006678 <sbi_hart_init>:
    c0006678:	715d                	addi	sp,sp,-80
    c000667a:	e0a2                	sd	s0,64(sp)
    c000667c:	fc26                	sd	s1,56(sp)
    c000667e:	f44e                	sd	s3,40(sp)
    c0006680:	e486                	sd	ra,72(sp)
    c0006682:	f84a                	sd	s2,48(sp)
    c0006684:	f052                	sd	s4,32(sp)
    c0006686:	0880                	addi	s0,sp,80
    c0006688:	84aa                	mv	s1,a0
    c000668a:	89ae                	mv	s3,a1
    c000668c:	ce11                	beqz	a2,c00066a8 <sbi_hart_init+0x30>
    c000668e:	00003597          	auipc	a1,0x3
    c0006692:	2d258593          	addi	a1,a1,722 # c0009960 <platform_ops+0x2a0>
    c0006696:	4521                	li	a0,8
    c0006698:	e9bfa0ef          	jal	ra,c0001532 <sbi_scratch_alloc_offset>
    c000669c:	00005797          	auipc	a5,0x5
    c00066a0:	a2a7be23          	sd	a0,-1476(a5) # c000b0d8 <trap_info_offset>
    c00066a4:	44050963          	beqz	a0,c0006af6 <sbi_hart_init+0x47e>
    c00066a8:	0314c783          	lbu	a5,49(s1)
    c00066ac:	0304c903          	lbu	s2,48(s1)
    c00066b0:	0324c603          	lbu	a2,50(s1)
    c00066b4:	0334c683          	lbu	a3,51(s1)
    c00066b8:	07a2                	slli	a5,a5,0x8
    c00066ba:	0344c703          	lbu	a4,52(s1)
    c00066be:	0127e7b3          	or	a5,a5,s2
    c00066c2:	0642                	slli	a2,a2,0x10
    c00066c4:	0354c903          	lbu	s2,53(s1)
    c00066c8:	8e5d                	or	a2,a2,a5
    c00066ca:	06e2                	slli	a3,a3,0x18
    c00066cc:	0364c783          	lbu	a5,54(s1)
    c00066d0:	8ed1                	or	a3,a3,a2
    c00066d2:	1702                	slli	a4,a4,0x20
    c00066d4:	0374c603          	lbu	a2,55(s1)
    c00066d8:	8f55                	or	a4,a4,a3
    c00066da:	1922                	slli	s2,s2,0x28
    c00066dc:	00e96933          	or	s2,s2,a4
    c00066e0:	17c2                	slli	a5,a5,0x30
    c00066e2:	0127e7b3          	or	a5,a5,s2
    c00066e6:	04400513          	li	a0,68
    c00066ea:	03861913          	slli	s2,a2,0x38
    c00066ee:	00f96933          	or	s2,s2,a5
    c00066f2:	8f5fd0ef          	jal	ra,c0003fe6 <misa_extension_imp>
    c00066f6:	3c050e63          	beqz	a0,c0006ad2 <sbi_hart_init+0x45a>
    c00066fa:	6799                	lui	a5,0x6
    c00066fc:	30079073          	csrw	mstatus,a5
    c0006700:	05300513          	li	a0,83
    c0006704:	8e3fd0ef          	jal	ra,c0003fe6 <misa_extension_imp>
    c0006708:	04994703          	lbu	a4,73(s2)
    c000670c:	04894683          	lbu	a3,72(s2)
    c0006710:	04a94783          	lbu	a5,74(s2)
    c0006714:	04b94583          	lbu	a1,75(s2)
    c0006718:	0722                	slli	a4,a4,0x8
    c000671a:	04c94603          	lbu	a2,76(s2)
    c000671e:	8f55                	or	a4,a4,a3
    c0006720:	07c2                	slli	a5,a5,0x10
    c0006722:	04d94683          	lbu	a3,77(s2)
    c0006726:	8fd9                	or	a5,a5,a4
    c0006728:	05e2                	slli	a1,a1,0x18
    c000672a:	04e94703          	lbu	a4,78(s2)
    c000672e:	8ddd                	or	a1,a1,a5
    c0006730:	1602                	slli	a2,a2,0x20
    c0006732:	04f94783          	lbu	a5,79(s2)
    c0006736:	8e4d                	or	a2,a2,a1
    c0006738:	16a2                	slli	a3,a3,0x28
    c000673a:	8ed1                	or	a3,a3,a2
    c000673c:	1742                	slli	a4,a4,0x30
    c000673e:	8f55                	or	a4,a4,a3
    c0006740:	17e2                	slli	a5,a5,0x38
    c0006742:	8fd9                	or	a5,a5,a4
    c0006744:	c529                	beqz	a0,c000678e <sbi_hart_init+0x116>
    c0006746:	0087f713          	andi	a4,a5,8
    c000674a:	c331                	beqz	a4,c000678e <sbi_hart_init+0x116>
    c000674c:	57fd                	li	a5,-1
    c000674e:	10679073          	csrw	scounteren,a5
    c0006752:	04994703          	lbu	a4,73(s2)
    c0006756:	04894683          	lbu	a3,72(s2)
    c000675a:	04a94783          	lbu	a5,74(s2)
    c000675e:	04b94583          	lbu	a1,75(s2)
    c0006762:	0722                	slli	a4,a4,0x8
    c0006764:	04c94603          	lbu	a2,76(s2)
    c0006768:	8f55                	or	a4,a4,a3
    c000676a:	07c2                	slli	a5,a5,0x10
    c000676c:	04d94683          	lbu	a3,77(s2)
    c0006770:	8fd9                	or	a5,a5,a4
    c0006772:	05e2                	slli	a1,a1,0x18
    c0006774:	04e94703          	lbu	a4,78(s2)
    c0006778:	8ddd                	or	a1,a1,a5
    c000677a:	1602                	slli	a2,a2,0x20
    c000677c:	04f94783          	lbu	a5,79(s2)
    c0006780:	8e4d                	or	a2,a2,a1
    c0006782:	16a2                	slli	a3,a3,0x28
    c0006784:	8ed1                	or	a3,a3,a2
    c0006786:	1742                	slli	a4,a4,0x30
    c0006788:	8f55                	or	a4,a4,a3
    c000678a:	17e2                	slli	a5,a5,0x38
    c000678c:	8fd9                	or	a5,a5,a4
    c000678e:	8bc1                	andi	a5,a5,16
    c0006790:	c781                	beqz	a5,c0006798 <sbi_hart_init+0x120>
    c0006792:	57fd                	li	a5,-1
    c0006794:	30679073          	csrw	mcounteren,a5
    c0006798:	30405073          	csrwi	mie,0
    c000679c:	05300513          	li	a0,83
    c00067a0:	847fd0ef          	jal	ra,c0003fe6 <misa_extension_imp>
    c00067a4:	30051863          	bnez	a0,c0006ab4 <sbi_hart_init+0x43c>
    c00067a8:	04400513          	li	a0,68
    c00067ac:	83bfd0ef          	jal	ra,c0003fe6 <misa_extension_imp>
    c00067b0:	30050a63          	beqz	a0,c0006ac4 <sbi_hart_init+0x44c>
    c00067b4:	300027f3          	csrr	a5,mstatus
    c00067b8:	6719                	lui	a4,0x6
    c00067ba:	8ff9                	and	a5,a5,a4
    c00067bc:	34078163          	beqz	a5,c0006afe <sbi_hart_init+0x486>
    c00067c0:	4781                	li	a5,0
    c00067c2:	10000713          	li	a4,256
    c00067c6:	4501                	li	a0,0
    c00067c8:	00002697          	auipc	a3,0x2
    c00067cc:	96be                	add	a3,a3,a5
    c00067ce:	c86682e7          	jalr	t0,-890(a3) # c000844e <put_f32_reg>
    c00067d2:	07a1                	addi	a5,a5,8
    c00067d4:	fee799e3          	bne	a5,a4,c00067c6 <sbi_hart_init+0x14e>
    c00067d8:	00305073          	csrwi	fcsr,0
    c00067dc:	0314c783          	lbu	a5,49(s1)
    c00067e0:	0304c703          	lbu	a4,48(s1)
    c00067e4:	0324c583          	lbu	a1,50(s1)
    c00067e8:	0334c603          	lbu	a2,51(s1)
    c00067ec:	07a2                	slli	a5,a5,0x8
    c00067ee:	0344c683          	lbu	a3,52(s1)
    c00067f2:	8fd9                	or	a5,a5,a4
    c00067f4:	05c2                	slli	a1,a1,0x10
    c00067f6:	0354c703          	lbu	a4,53(s1)
    c00067fa:	8ddd                	or	a1,a1,a5
    c00067fc:	0662                	slli	a2,a2,0x18
    c00067fe:	0364c783          	lbu	a5,54(s1)
    c0006802:	8e4d                	or	a2,a2,a1
    c0006804:	1682                	slli	a3,a3,0x20
    c0006806:	0374c583          	lbu	a1,55(s1)
    c000680a:	8ed1                	or	a3,a3,a2
    c000680c:	1722                	slli	a4,a4,0x28
    c000680e:	8f55                	or	a4,a4,a3
    c0006810:	17c2                	slli	a5,a5,0x30
    c0006812:	8fd9                	or	a5,a5,a4
    c0006814:	05300513          	li	a0,83
    c0006818:	03859713          	slli	a4,a1,0x38
    c000681c:	00f76933          	or	s2,a4,a5
    c0006820:	fc6fd0ef          	jal	ra,c0003fe6 <misa_extension_imp>
    c0006824:	c139                	beqz	a0,c000686a <sbi_hart_init+0x1f2>
    c0006826:	04894783          	lbu	a5,72(s2)
    c000682a:	10900913          	li	s2,265
    c000682e:	0207f793          	andi	a5,a5,32
    c0006832:	c781                	beqz	a5,c000683a <sbi_hart_init+0x1c2>
    c0006834:	692d                	lui	s2,0xb
    c0006836:	10990913          	addi	s2,s2,265 # b109 <_fw_start-0xbfff4ef7>
    c000683a:	04800513          	li	a0,72
    c000683e:	fa8fd0ef          	jal	ra,c0003fe6 <misa_extension_imp>
    c0006842:	28051f63          	bnez	a0,c0006ae0 <sbi_hart_init+0x468>
    c0006846:	22200713          	li	a4,546
    c000684a:	30371073          	csrw	mideleg,a4
    c000684e:	30291073          	csrw	medeleg,s2
    c0006852:	303027f3          	csrr	a5,mideleg
    c0006856:	2227f793          	andi	a5,a5,546
    c000685a:	28e79c63          	bne	a5,a4,c0006af2 <sbi_hart_init+0x47a>
    c000685e:	302027f3          	csrr	a5,medeleg
    c0006862:	00f977b3          	and	a5,s2,a5
    c0006866:	28f91663          	bne	s2,a5,c0006af2 <sbi_hart_init+0x47a>
    c000686a:	0314c783          	lbu	a5,49(s1)
    c000686e:	0304c903          	lbu	s2,48(s1)
    c0006872:	0324c603          	lbu	a2,50(s1)
    c0006876:	0334c683          	lbu	a3,51(s1)
    c000687a:	07a2                	slli	a5,a5,0x8
    c000687c:	0344c703          	lbu	a4,52(s1)
    c0006880:	0127e7b3          	or	a5,a5,s2
    c0006884:	0642                	slli	a2,a2,0x10
    c0006886:	0354c903          	lbu	s2,53(s1)
    c000688a:	8e5d                	or	a2,a2,a5
    c000688c:	06e2                	slli	a3,a3,0x18
    c000688e:	0364c783          	lbu	a5,54(s1)
    c0006892:	8ed1                	or	a3,a3,a2
    c0006894:	1702                	slli	a4,a4,0x20
    c0006896:	0374c603          	lbu	a2,55(s1)
    c000689a:	8f55                	or	a4,a4,a3
    c000689c:	1922                	slli	s2,s2,0x28
    c000689e:	00e96933          	or	s2,s2,a4
    c00068a2:	17c2                	slli	a5,a5,0x30
    c00068a4:	0127e7b3          	or	a5,a5,s2
    c00068a8:	03861913          	slli	s2,a2,0x38
    c00068ac:	00f96933          	or	s2,s2,a5
    c00068b0:	04894783          	lbu	a5,72(s2)
    c00068b4:	8b91                	andi	a5,a5,4
    c00068b6:	1e078663          	beqz	a5,c0006aa2 <sbi_hart_init+0x42a>
    c00068ba:	0094c703          	lbu	a4,9(s1)
    c00068be:	0084c683          	lbu	a3,8(s1)
    c00068c2:	00a4c783          	lbu	a5,10(s1)
    c00068c6:	00b4c583          	lbu	a1,11(s1)
    c00068ca:	0722                	slli	a4,a4,0x8
    c00068cc:	00c4c603          	lbu	a2,12(s1)
    c00068d0:	8f55                	or	a4,a4,a3
    c00068d2:	07c2                	slli	a5,a5,0x10
    c00068d4:	00d4c683          	lbu	a3,13(s1)
    c00068d8:	8fd9                	or	a5,a5,a4
    c00068da:	05e2                	slli	a1,a1,0x18
    c00068dc:	00e4c703          	lbu	a4,14(s1)
    c00068e0:	8ddd                	or	a1,a1,a5
    c00068e2:	1602                	slli	a2,a2,0x20
    c00068e4:	00f4c783          	lbu	a5,15(s1)
    c00068e8:	8e4d                	or	a2,a2,a1
    c00068ea:	16a2                	slli	a3,a3,0x28
    c00068ec:	8ed1                	or	a3,a3,a2
    c00068ee:	1742                	slli	a4,a4,0x30
    c00068f0:	8f55                	or	a4,a4,a3
    c00068f2:	17e2                	slli	a5,a5,0x38
    c00068f4:	4681                	li	a3,0
    c00068f6:	4585                	li	a1,1
    c00068f8:	8fd9                	or	a5,a5,a4
    c00068fa:	00d59633          	sll	a2,a1,a3
    c00068fe:	04000713          	li	a4,64
    c0006902:	00f67963          	bgeu	a2,a5,c0006914 <sbi_hart_init+0x29c>
    c0006906:	0685                	addi	a3,a3,1
    c0006908:	1ee68963          	beq	a3,a4,c0006afa <sbi_hart_init+0x482>
    c000690c:	00d59633          	sll	a2,a1,a3
    c0006910:	fef66be3          	bltu	a2,a5,c0006906 <sbi_hart_init+0x28e>
    c0006914:	40c00633          	neg	a2,a2
    c0006918:	0014c703          	lbu	a4,1(s1)
    c000691c:	0004c583          	lbu	a1,0(s1)
    c0006920:	0024c783          	lbu	a5,2(s1)
    c0006924:	0034c803          	lbu	a6,3(s1)
    c0006928:	0722                	slli	a4,a4,0x8
    c000692a:	0044c503          	lbu	a0,4(s1)
    c000692e:	8f4d                	or	a4,a4,a1
    c0006930:	07c2                	slli	a5,a5,0x10
    c0006932:	0054c583          	lbu	a1,5(s1)
    c0006936:	8fd9                	or	a5,a5,a4
    c0006938:	0862                	slli	a6,a6,0x18
    c000693a:	0064c703          	lbu	a4,6(s1)
    c000693e:	00f86833          	or	a6,a6,a5
    c0006942:	1502                	slli	a0,a0,0x20
    c0006944:	0074c783          	lbu	a5,7(s1)
    c0006948:	01056533          	or	a0,a0,a6
    c000694c:	15a2                	slli	a1,a1,0x28
    c000694e:	8dc9                	or	a1,a1,a0
    c0006950:	1742                	slli	a4,a4,0x30
    c0006952:	8f4d                	or	a4,a4,a1
    c0006954:	17e2                	slli	a5,a5,0x38
    c0006956:	8fd9                	or	a5,a5,a4
    c0006958:	8e7d                	and	a2,a2,a5
    c000695a:	4581                	li	a1,0
    c000695c:	4501                	li	a0,0
    c000695e:	9d1fd0ef          	jal	ra,c000432e <pmp_set>
    c0006962:	14090063          	beqz	s2,c0006aa2 <sbi_hart_init+0x42a>
    c0006966:	06994703          	lbu	a4,105(s2)
    c000696a:	06894683          	lbu	a3,104(s2)
    c000696e:	06a94783          	lbu	a5,106(s2)
    c0006972:	06b94583          	lbu	a1,107(s2)
    c0006976:	0722                	slli	a4,a4,0x8
    c0006978:	06c94603          	lbu	a2,108(s2)
    c000697c:	8f55                	or	a4,a4,a3
    c000697e:	07c2                	slli	a5,a5,0x10
    c0006980:	06d94683          	lbu	a3,109(s2)
    c0006984:	8fd9                	or	a5,a5,a4
    c0006986:	05e2                	slli	a1,a1,0x18
    c0006988:	06e94703          	lbu	a4,110(s2)
    c000698c:	8ddd                	or	a1,a1,a5
    c000698e:	1602                	slli	a2,a2,0x20
    c0006990:	06f94783          	lbu	a5,111(s2)
    c0006994:	8e4d                	or	a2,a2,a1
    c0006996:	16a2                	slli	a3,a3,0x28
    c0006998:	8ed1                	or	a3,a3,a2
    c000699a:	1742                	slli	a4,a4,0x30
    c000699c:	8f55                	or	a4,a4,a3
    c000699e:	17e2                	slli	a5,a5,0x38
    c00069a0:	8fd9                	or	a5,a5,a4
    c00069a2:	0317c703          	lbu	a4,49(a5) # 6031 <_fw_start-0xbfff9fcf>
    c00069a6:	0307c683          	lbu	a3,48(a5)
    c00069aa:	0327c503          	lbu	a0,50(a5)
    c00069ae:	0337c583          	lbu	a1,51(a5)
    c00069b2:	0347c603          	lbu	a2,52(a5)
    c00069b6:	0722                	slli	a4,a4,0x8
    c00069b8:	8f55                	or	a4,a4,a3
    c00069ba:	0542                	slli	a0,a0,0x10
    c00069bc:	0357c683          	lbu	a3,53(a5)
    c00069c0:	8d59                	or	a0,a0,a4
    c00069c2:	05e2                	slli	a1,a1,0x18
    c00069c4:	0367c703          	lbu	a4,54(a5)
    c00069c8:	8dc9                	or	a1,a1,a0
    c00069ca:	1602                	slli	a2,a2,0x20
    c00069cc:	0377c783          	lbu	a5,55(a5)
    c00069d0:	8e4d                	or	a2,a2,a1
    c00069d2:	16a2                	slli	a3,a3,0x28
    c00069d4:	8ed1                	or	a3,a3,a2
    c00069d6:	1742                	slli	a4,a4,0x30
    c00069d8:	8f55                	or	a4,a4,a3
    c00069da:	17e2                	slli	a5,a5,0x38
    c00069dc:	8fd9                	or	a5,a5,a4
    c00069de:	c3f1                	beqz	a5,c0006aa2 <sbi_hart_init+0x42a>
    c00069e0:	854e                	mv	a0,s3
    c00069e2:	9782                	jalr	a5
    c00069e4:	2501                	sext.w	a0,a0
    c00069e6:	47bd                	li	a5,15
    c00069e8:	0005049b          	sext.w	s1,a0
    c00069ec:	10a7e163          	bltu	a5,a0,c0006aee <sbi_hart_init+0x476>
    c00069f0:	c94d                	beqz	a0,c0006aa2 <sbi_hart_init+0x42a>
    c00069f2:	4a01                	li	s4,0
    c00069f4:	06994703          	lbu	a4,105(s2)
    c00069f8:	06894683          	lbu	a3,104(s2)
    c00069fc:	06a94783          	lbu	a5,106(s2)
    c0006a00:	06b94583          	lbu	a1,107(s2)
    c0006a04:	0722                	slli	a4,a4,0x8
    c0006a06:	06c94603          	lbu	a2,108(s2)
    c0006a0a:	8f55                	or	a4,a4,a3
    c0006a0c:	07c2                	slli	a5,a5,0x10
    c0006a0e:	06d94683          	lbu	a3,109(s2)
    c0006a12:	8fd9                	or	a5,a5,a4
    c0006a14:	05e2                	slli	a1,a1,0x18
    c0006a16:	06e94703          	lbu	a4,110(s2)
    c0006a1a:	8ddd                	or	a1,a1,a5
    c0006a1c:	1602                	slli	a2,a2,0x20
    c0006a1e:	06f94783          	lbu	a5,111(s2)
    c0006a22:	8e4d                	or	a2,a2,a1
    c0006a24:	16a2                	slli	a3,a3,0x28
    c0006a26:	8ed1                	or	a3,a3,a2
    c0006a28:	1742                	slli	a4,a4,0x30
    c0006a2a:	8f55                	or	a4,a4,a3
    c0006a2c:	17e2                	slli	a5,a5,0x38
    c0006a2e:	8fd9                	or	a5,a5,a4
    c0006a30:	0397c883          	lbu	a7,57(a5)
    c0006a34:	0387c703          	lbu	a4,56(a5)
    c0006a38:	03a7c583          	lbu	a1,58(a5)
    c0006a3c:	03b7c603          	lbu	a2,59(a5)
    c0006a40:	03c7c683          	lbu	a3,60(a5)
    c0006a44:	08a2                	slli	a7,a7,0x8
    c0006a46:	00e8e8b3          	or	a7,a7,a4
    c0006a4a:	05c2                	slli	a1,a1,0x10
    c0006a4c:	03d7c703          	lbu	a4,61(a5)
    c0006a50:	0115e5b3          	or	a1,a1,a7
    c0006a54:	0662                	slli	a2,a2,0x18
    c0006a56:	03e7c883          	lbu	a7,62(a5)
    c0006a5a:	8e4d                	or	a2,a2,a1
    c0006a5c:	1682                	slli	a3,a3,0x20
    c0006a5e:	03f7c783          	lbu	a5,63(a5)
    c0006a62:	8ed1                	or	a3,a3,a2
    c0006a64:	1722                	slli	a4,a4,0x28
    c0006a66:	8f55                	or	a4,a4,a3
    c0006a68:	18c2                	slli	a7,a7,0x30
    c0006a6a:	00e8e8b3          	or	a7,a7,a4
    c0006a6e:	17e2                	slli	a5,a5,0x38
    c0006a70:	0117e7b3          	or	a5,a5,a7
    c0006a74:	85d2                	mv	a1,s4
    c0006a76:	fc840713          	addi	a4,s0,-56
    c0006a7a:	fc040693          	addi	a3,s0,-64
    c0006a7e:	fb840613          	addi	a2,s0,-72
    c0006a82:	854e                	mv	a0,s3
    c0006a84:	2a05                	addiw	s4,s4,1
    c0006a86:	c399                	beqz	a5,c0006a8c <sbi_hart_init+0x414>
    c0006a88:	9782                	jalr	a5
    c0006a8a:	e911                	bnez	a0,c0006a9e <sbi_hart_init+0x426>
    c0006a8c:	fc843683          	ld	a3,-56(s0)
    c0006a90:	fc043603          	ld	a2,-64(s0)
    c0006a94:	fb843583          	ld	a1,-72(s0)
    c0006a98:	8552                	mv	a0,s4
    c0006a9a:	895fd0ef          	jal	ra,c000432e <pmp_set>
    c0006a9e:	f49a6be3          	bltu	s4,s1,c00069f4 <sbi_hart_init+0x37c>
    c0006aa2:	4501                	li	a0,0
    c0006aa4:	60a6                	ld	ra,72(sp)
    c0006aa6:	6406                	ld	s0,64(sp)
    c0006aa8:	74e2                	ld	s1,56(sp)
    c0006aaa:	7942                	ld	s2,48(sp)
    c0006aac:	79a2                	ld	s3,40(sp)
    c0006aae:	7a02                	ld	s4,32(sp)
    c0006ab0:	6161                	addi	sp,sp,80
    c0006ab2:	8082                	ret
    c0006ab4:	18005073          	csrwi	satp,0
    c0006ab8:	04400513          	li	a0,68
    c0006abc:	d2afd0ef          	jal	ra,c0003fe6 <misa_extension_imp>
    c0006ac0:	ce051ae3          	bnez	a0,c00067b4 <sbi_hart_init+0x13c>
    c0006ac4:	04600513          	li	a0,70
    c0006ac8:	d1efd0ef          	jal	ra,c0003fe6 <misa_extension_imp>
    c0006acc:	ce0514e3          	bnez	a0,c00067b4 <sbi_hart_init+0x13c>
    c0006ad0:	b331                	j	c00067dc <sbi_hart_init+0x164>
    c0006ad2:	04600513          	li	a0,70
    c0006ad6:	d10fd0ef          	jal	ra,c0003fe6 <misa_extension_imp>
    c0006ada:	c20510e3          	bnez	a0,c00066fa <sbi_hart_init+0x82>
    c0006ade:	b10d                	j	c0006700 <sbi_hart_init+0x88>
    c0006ae0:	00b007b7          	lui	a5,0xb00
    c0006ae4:	40078793          	addi	a5,a5,1024 # b00400 <_fw_start-0xbf4ffc00>
    c0006ae8:	00f96933          	or	s2,s2,a5
    c0006aec:	bba9                	j	c0006846 <sbi_hart_init+0x1ce>
    c0006aee:	44bd                	li	s1,15
    c0006af0:	b701                	j	c00069f0 <sbi_hart_init+0x378>
    c0006af2:	557d                	li	a0,-1
    c0006af4:	bf45                	j	c0006aa4 <sbi_hart_init+0x42c>
    c0006af6:	5551                	li	a0,-12
    c0006af8:	b775                	j	c0006aa4 <sbi_hart_init+0x42c>
    c0006afa:	4601                	li	a2,0
    c0006afc:	bd31                	j	c0006918 <sbi_hart_init+0x2a0>
    c0006afe:	5575                	li	a0,-3
    c0006b00:	b755                	j	c0006aa4 <sbi_hart_init+0x42c>

00000000c0006b02 <sbi_hart_get_trap_info>:
    c0006b02:	1141                	addi	sp,sp,-16
    c0006b04:	e422                	sd	s0,8(sp)
    c0006b06:	0800                	addi	s0,sp,16
    c0006b08:	00004797          	auipc	a5,0x4
    c0006b0c:	5d078793          	addi	a5,a5,1488 # c000b0d8 <trap_info_offset>
    c0006b10:	639c                	ld	a5,0(a5)
    c0006b12:	c791                	beqz	a5,c0006b1e <sbi_hart_get_trap_info+0x1c>
    c0006b14:	6422                	ld	s0,8(sp)
    c0006b16:	953e                	add	a0,a0,a5
    c0006b18:	6108                	ld	a0,0(a0)
    c0006b1a:	0141                	addi	sp,sp,16
    c0006b1c:	8082                	ret
    c0006b1e:	6422                	ld	s0,8(sp)
    c0006b20:	4501                	li	a0,0
    c0006b22:	0141                	addi	sp,sp,16
    c0006b24:	8082                	ret

00000000c0006b26 <sbi_hart_set_trap_info>:
    c0006b26:	1141                	addi	sp,sp,-16
    c0006b28:	e422                	sd	s0,8(sp)
    c0006b2a:	0800                	addi	s0,sp,16
    c0006b2c:	00004797          	auipc	a5,0x4
    c0006b30:	5ac78793          	addi	a5,a5,1452 # c000b0d8 <trap_info_offset>
    c0006b34:	639c                	ld	a5,0(a5)
    c0006b36:	c399                	beqz	a5,c0006b3c <sbi_hart_set_trap_info+0x16>
    c0006b38:	953e                	add	a0,a0,a5
    c0006b3a:	e10c                	sd	a1,0(a0)
    c0006b3c:	6422                	ld	s0,8(sp)
    c0006b3e:	0141                	addi	sp,sp,16
    c0006b40:	8082                	ret

00000000c0006b42 <sbi_hart_hang>:
    c0006b42:	1141                	addi	sp,sp,-16
    c0006b44:	e422                	sd	s0,8(sp)
    c0006b46:	0800                	addi	s0,sp,16
    c0006b48:	10500073          	wfi
    c0006b4c:	10500073          	wfi
    c0006b50:	bfe5                	j	c0006b48 <sbi_hart_hang+0x6>

00000000c0006b52 <sbi_hart_switch_mode>:
    c0006b52:	715d                	addi	sp,sp,-80
    c0006b54:	e0a2                	sd	s0,64(sp)
    c0006b56:	f84a                	sd	s2,48(sp)
    c0006b58:	f052                	sd	s4,32(sp)
    c0006b5a:	ec56                	sd	s5,24(sp)
    c0006b5c:	e85a                	sd	s6,16(sp)
    c0006b5e:	e45e                	sd	s7,8(sp)
    c0006b60:	e486                	sd	ra,72(sp)
    c0006b62:	fc26                	sd	s1,56(sp)
    c0006b64:	f44e                	sd	s3,40(sp)
    c0006b66:	0880                	addi	s0,sp,80
    c0006b68:	4785                	li	a5,1
    c0006b6a:	8936                	mv	s2,a3
    c0006b6c:	8b2a                	mv	s6,a0
    c0006b6e:	8aae                	mv	s5,a1
    c0006b70:	8a32                	mv	s4,a2
    c0006b72:	8bba                	mv	s7,a4
    c0006b74:	00f68b63          	beq	a3,a5,c0006b8a <sbi_hart_switch_mode+0x38>
    c0006b78:	c29d                	beqz	a3,c0006b9e <sbi_hart_switch_mode+0x4c>
    c0006b7a:	478d                	li	a5,3
    c0006b7c:	02f68b63          	beq	a3,a5,c0006bb2 <sbi_hart_switch_mode+0x60>
    c0006b80:	10500073          	wfi
    c0006b84:	10500073          	wfi
    c0006b88:	bfe5                	j	c0006b80 <sbi_hart_switch_mode+0x2e>
    c0006b8a:	05300513          	li	a0,83
    c0006b8e:	c58fd0ef          	jal	ra,c0003fe6 <misa_extension_imp>
    c0006b92:	e105                	bnez	a0,c0006bb2 <sbi_hart_switch_mode+0x60>
    c0006b94:	10500073          	wfi
    c0006b98:	10500073          	wfi
    c0006b9c:	bfe5                	j	c0006b94 <sbi_hart_switch_mode+0x42>
    c0006b9e:	05500513          	li	a0,85
    c0006ba2:	c44fd0ef          	jal	ra,c0003fe6 <misa_extension_imp>
    c0006ba6:	e511                	bnez	a0,c0006bb2 <sbi_hart_switch_mode+0x60>
    c0006ba8:	10500073          	wfi
    c0006bac:	10500073          	wfi
    c0006bb0:	bfe5                	j	c0006ba8 <sbi_hart_switch_mode+0x56>
    c0006bb2:	300029f3          	csrr	s3,mstatus
    c0006bb6:	77f9                	lui	a5,0xffffe
    c0006bb8:	7ff78793          	addi	a5,a5,2047 # ffffffffffffe7ff <_fw_end+0xffffffff3fff27ff>
    c0006bbc:	00f9f9b3          	and	s3,s3,a5
    c0006bc0:	00b91793          	slli	a5,s2,0xb
    c0006bc4:	00f9e9b3          	or	s3,s3,a5
    c0006bc8:	04800513          	li	a0,72
    c0006bcc:	f7f9f493          	andi	s1,s3,-129
    c0006bd0:	c16fd0ef          	jal	ra,c0003fe6 <misa_extension_imp>
    c0006bd4:	c511                	beqz	a0,c0006be0 <sbi_hart_switch_mode+0x8e>
    c0006bd6:	040b8a63          	beqz	s7,c0006c2a <sbi_hart_switch_mode+0xd8>
    c0006bda:	4785                	li	a5,1
    c0006bdc:	179e                	slli	a5,a5,0x27
    c0006bde:	8cdd                	or	s1,s1,a5
    c0006be0:	30049073          	csrw	mstatus,s1
    c0006be4:	341a1073          	csrw	mepc,s4
    c0006be8:	f14027f3          	csrr	a5,mhartid
    c0006bec:	2781                	sext.w	a5,a5
    c0006bee:	c791                	beqz	a5,c0006bfa <sbi_hart_switch_mode+0xa8>
    c0006bf0:	001007b7          	lui	a5,0x100
    c0006bf4:	97d2                	add	a5,a5,s4
    c0006bf6:	34179073          	csrw	mepc,a5
    c0006bfa:	4785                	li	a5,1
    c0006bfc:	00f90e63          	beq	s2,a5,c0006c18 <sbi_hart_switch_mode+0xc6>
    c0006c00:	00091863          	bnez	s2,c0006c10 <sbi_hart_switch_mode+0xbe>
    c0006c04:	005a1073          	csrw	utvec,s4
    c0006c08:	04005073          	csrwi	uscratch,0
    c0006c0c:	00405073          	csrwi	uie,0
    c0006c10:	855a                	mv	a0,s6
    c0006c12:	85d6                	mv	a1,s5
    c0006c14:	30200073          	mret
    c0006c18:	105a1073          	csrw	stvec,s4
    c0006c1c:	14005073          	csrwi	sscratch,0
    c0006c20:	10405073          	csrwi	sie,0
    c0006c24:	18005073          	csrwi	satp,0
    c0006c28:	b7e5                	j	c0006c10 <sbi_hart_switch_mode+0xbe>
    c0006c2a:	54fd                	li	s1,-1
    c0006c2c:	149e                	slli	s1,s1,0x27
    c0006c2e:	f7f48493          	addi	s1,s1,-129
    c0006c32:	0099f4b3          	and	s1,s3,s1
    c0006c36:	b76d                	j	c0006be0 <sbi_hart_switch_mode+0x8e>

00000000c0006c38 <sbi_hart_mark_available>:
    c0006c38:	7179                	addi	sp,sp,-48
    c0006c3a:	f406                	sd	ra,40(sp)
    c0006c3c:	f022                	sd	s0,32(sp)
    c0006c3e:	ec26                	sd	s1,24(sp)
    c0006c40:	e84a                	sd	s2,16(sp)
    c0006c42:	e44e                	sd	s3,8(sp)
    c0006c44:	1800                	addi	s0,sp,48
    c0006c46:	00004917          	auipc	s2,0x4
    c0006c4a:	49a90913          	addi	s2,s2,1178 # c000b0e0 <avail_hart_mask_lock>
    c0006c4e:	89aa                	mv	s3,a0
    c0006c50:	854a                	mv	a0,s2
    c0006c52:	a9dfd0ef          	jal	ra,c00046ee <spin_lock>
    c0006c56:	00004497          	auipc	s1,0x4
    c0006c5a:	48248493          	addi	s1,s1,1154 # c000b0d8 <trap_info_offset>
    c0006c5e:	6898                	ld	a4,16(s1)
    c0006c60:	4785                	li	a5,1
    c0006c62:	013797b3          	sll	a5,a5,s3
    c0006c66:	8fd9                	or	a5,a5,a4
    c0006c68:	854a                	mv	a0,s2
    c0006c6a:	e89c                	sd	a5,16(s1)
    c0006c6c:	aa1fd0ef          	jal	ra,c000470c <spin_unlock>
    c0006c70:	70a2                	ld	ra,40(sp)
    c0006c72:	7402                	ld	s0,32(sp)
    c0006c74:	64e2                	ld	s1,24(sp)
    c0006c76:	6942                	ld	s2,16(sp)
    c0006c78:	69a2                	ld	s3,8(sp)
    c0006c7a:	6145                	addi	sp,sp,48
    c0006c7c:	8082                	ret

00000000c0006c7e <sbi_hart_unmark_available>:
    c0006c7e:	7179                	addi	sp,sp,-48
    c0006c80:	f406                	sd	ra,40(sp)
    c0006c82:	f022                	sd	s0,32(sp)
    c0006c84:	ec26                	sd	s1,24(sp)
    c0006c86:	e84a                	sd	s2,16(sp)
    c0006c88:	e44e                	sd	s3,8(sp)
    c0006c8a:	1800                	addi	s0,sp,48
    c0006c8c:	00004917          	auipc	s2,0x4
    c0006c90:	45490913          	addi	s2,s2,1108 # c000b0e0 <avail_hart_mask_lock>
    c0006c94:	89aa                	mv	s3,a0
    c0006c96:	854a                	mv	a0,s2
    c0006c98:	a57fd0ef          	jal	ra,c00046ee <spin_lock>
    c0006c9c:	00004497          	auipc	s1,0x4
    c0006ca0:	43c48493          	addi	s1,s1,1084 # c000b0d8 <trap_info_offset>
    c0006ca4:	6898                	ld	a4,16(s1)
    c0006ca6:	4785                	li	a5,1
    c0006ca8:	013797b3          	sll	a5,a5,s3
    c0006cac:	fff7c793          	not	a5,a5
    c0006cb0:	8ff9                	and	a5,a5,a4
    c0006cb2:	854a                	mv	a0,s2
    c0006cb4:	e89c                	sd	a5,16(s1)
    c0006cb6:	a57fd0ef          	jal	ra,c000470c <spin_unlock>
    c0006cba:	70a2                	ld	ra,40(sp)
    c0006cbc:	7402                	ld	s0,32(sp)
    c0006cbe:	64e2                	ld	s1,24(sp)
    c0006cc0:	6942                	ld	s2,16(sp)
    c0006cc2:	69a2                	ld	s3,8(sp)
    c0006cc4:	6145                	addi	sp,sp,48
    c0006cc6:	8082                	ret

00000000c0006cc8 <sbi_hart_available_mask>:
    c0006cc8:	1101                	addi	sp,sp,-32
    c0006cca:	ec06                	sd	ra,24(sp)
    c0006ccc:	e822                	sd	s0,16(sp)
    c0006cce:	e426                	sd	s1,8(sp)
    c0006cd0:	e04a                	sd	s2,0(sp)
    c0006cd2:	1000                	addi	s0,sp,32
    c0006cd4:	00004497          	auipc	s1,0x4
    c0006cd8:	40c48493          	addi	s1,s1,1036 # c000b0e0 <avail_hart_mask_lock>
    c0006cdc:	8526                	mv	a0,s1
    c0006cde:	a11fd0ef          	jal	ra,c00046ee <spin_lock>
    c0006ce2:	8526                	mv	a0,s1
    c0006ce4:	00004797          	auipc	a5,0x4
    c0006ce8:	3f478793          	addi	a5,a5,1012 # c000b0d8 <trap_info_offset>
    c0006cec:	0107b903          	ld	s2,16(a5)
    c0006cf0:	a1dfd0ef          	jal	ra,c000470c <spin_unlock>
    c0006cf4:	60e2                	ld	ra,24(sp)
    c0006cf6:	6442                	ld	s0,16(sp)
    c0006cf8:	854a                	mv	a0,s2
    c0006cfa:	64a2                	ld	s1,8(sp)
    c0006cfc:	6902                	ld	s2,0(sp)
    c0006cfe:	6105                	addi	sp,sp,32
    c0006d00:	8082                	ret

00000000c0006d02 <sbi_hart_id_to_scratch>:
    c0006d02:	1141                	addi	sp,sp,-16
    c0006d04:	e022                	sd	s0,0(sp)
    c0006d06:	e406                	sd	ra,8(sp)
    c0006d08:	0800                	addi	s0,sp,16
    c0006d0a:	03954703          	lbu	a4,57(a0)
    c0006d0e:	03854683          	lbu	a3,56(a0)
    c0006d12:	03a54783          	lbu	a5,58(a0)
    c0006d16:	03b54803          	lbu	a6,59(a0)
    c0006d1a:	03c54603          	lbu	a2,60(a0)
    c0006d1e:	0722                	slli	a4,a4,0x8
    c0006d20:	8f55                	or	a4,a4,a3
    c0006d22:	07c2                	slli	a5,a5,0x10
    c0006d24:	03d54683          	lbu	a3,61(a0)
    c0006d28:	8fd9                	or	a5,a5,a4
    c0006d2a:	0862                	slli	a6,a6,0x18
    c0006d2c:	03e54703          	lbu	a4,62(a0)
    c0006d30:	00f86833          	or	a6,a6,a5
    c0006d34:	1602                	slli	a2,a2,0x20
    c0006d36:	03f54783          	lbu	a5,63(a0)
    c0006d3a:	01066633          	or	a2,a2,a6
    c0006d3e:	16a2                	slli	a3,a3,0x28
    c0006d40:	8ed1                	or	a3,a3,a2
    c0006d42:	1742                	slli	a4,a4,0x30
    c0006d44:	8f55                	or	a4,a4,a3
    c0006d46:	02059513          	slli	a0,a1,0x20
    c0006d4a:	17e2                	slli	a5,a5,0x38
    c0006d4c:	8fd9                	or	a5,a5,a4
    c0006d4e:	9101                	srli	a0,a0,0x20
    c0006d50:	9782                	jalr	a5
    c0006d52:	60a2                	ld	ra,8(sp)
    c0006d54:	6402                	ld	s0,0(sp)
    c0006d56:	0141                	addi	sp,sp,16
    c0006d58:	8082                	ret

00000000c0006d5a <sbi_hart_wait_for_coldboot>:
    c0006d5a:	7139                	addi	sp,sp,-64
    c0006d5c:	f822                	sd	s0,48(sp)
    c0006d5e:	fc06                	sd	ra,56(sp)
    c0006d60:	f426                	sd	s1,40(sp)
    c0006d62:	f04a                	sd	s2,32(sp)
    c0006d64:	ec4e                	sd	s3,24(sp)
    c0006d66:	e852                	sd	s4,16(sp)
    c0006d68:	e456                	sd	s5,8(sp)
    c0006d6a:	e05a                	sd	s6,0(sp)
    c0006d6c:	0080                	addi	s0,sp,64
    c0006d6e:	03154783          	lbu	a5,49(a0)
    c0006d72:	03054703          	lbu	a4,48(a0)
    c0006d76:	03254603          	lbu	a2,50(a0)
    c0006d7a:	03354483          	lbu	s1,51(a0)
    c0006d7e:	07a2                	slli	a5,a5,0x8
    c0006d80:	03454683          	lbu	a3,52(a0)
    c0006d84:	8fd9                	or	a5,a5,a4
    c0006d86:	0642                	slli	a2,a2,0x10
    c0006d88:	03554703          	lbu	a4,53(a0)
    c0006d8c:	8e5d                	or	a2,a2,a5
    c0006d8e:	04e2                	slli	s1,s1,0x18
    c0006d90:	03654783          	lbu	a5,54(a0)
    c0006d94:	8cd1                	or	s1,s1,a2
    c0006d96:	1682                	slli	a3,a3,0x20
    c0006d98:	03754603          	lbu	a2,55(a0)
    c0006d9c:	8ec5                	or	a3,a3,s1
    c0006d9e:	1722                	slli	a4,a4,0x28
    c0006da0:	00d764b3          	or	s1,a4,a3
    c0006da4:	17c2                	slli	a5,a5,0x30
    c0006da6:	8fc5                	or	a5,a5,s1
    c0006da8:	03861493          	slli	s1,a2,0x38
    c0006dac:	8cdd                	or	s1,s1,a5
    c0006dae:	c495                	beqz	s1,c0006dda <sbi_hart_wait_for_coldboot+0x80>
    c0006db0:	0514c683          	lbu	a3,81(s1)
    c0006db4:	0504c603          	lbu	a2,80(s1)
    c0006db8:	0524c703          	lbu	a4,82(s1)
    c0006dbc:	0534c783          	lbu	a5,83(s1)
    c0006dc0:	06a2                	slli	a3,a3,0x8
    c0006dc2:	8ed1                	or	a3,a3,a2
    c0006dc4:	0742                	slli	a4,a4,0x10
    c0006dc6:	8f55                	or	a4,a4,a3
    c0006dc8:	07e2                	slli	a5,a5,0x18
    c0006dca:	8fd9                	or	a5,a5,a4
    c0006dcc:	2781                	sext.w	a5,a5
    c0006dce:	00f5f663          	bgeu	a1,a5,c0006dda <sbi_hart_wait_for_coldboot+0x80>
    c0006dd2:	03f00793          	li	a5,63
    c0006dd6:	00b7f763          	bgeu	a5,a1,c0006de4 <sbi_hart_wait_for_coldboot+0x8a>
    c0006dda:	10500073          	wfi
    c0006dde:	10500073          	wfi
    c0006de2:	bfe5                	j	c0006dda <sbi_hart_wait_for_coldboot+0x80>
    c0006de4:	89ae                	mv	s3,a1
    c0006de6:	30402b73          	csrr	s6,mie
    c0006dea:	30446073          	csrsi	mie,8
    c0006dee:	00004517          	auipc	a0,0x4
    c0006df2:	30250513          	addi	a0,a0,770 # c000b0f0 <coldboot_lock>
    c0006df6:	8f9fd0ef          	jal	ra,c00046ee <spin_lock>
    c0006dfa:	00004a17          	auipc	s4,0x4
    c0006dfe:	2dea0a13          	addi	s4,s4,734 # c000b0d8 <trap_info_offset>
    c0006e02:	020a3783          	ld	a5,32(s4)
    c0006e06:	4905                	li	s2,1
    c0006e08:	01391933          	sll	s2,s2,s3
    c0006e0c:	028a3683          	ld	a3,40(s4)
    c0006e10:	00f96733          	or	a4,s2,a5
    c0006e14:	00004797          	auipc	a5,0x4
    c0006e18:	2ee7b223          	sd	a4,740(a5) # c000b0f8 <coldboot_wait_bitmap>
    c0006e1c:	e295                	bnez	a3,c0006e40 <sbi_hart_wait_for_coldboot+0xe6>
    c0006e1e:	00004a97          	auipc	s5,0x4
    c0006e22:	2d2a8a93          	addi	s5,s5,722 # c000b0f0 <coldboot_lock>
    c0006e26:	8556                	mv	a0,s5
    c0006e28:	8e5fd0ef          	jal	ra,c000470c <spin_unlock>
    c0006e2c:	10500073          	wfi
    c0006e30:	8556                	mv	a0,s5
    c0006e32:	8bdfd0ef          	jal	ra,c00046ee <spin_lock>
    c0006e36:	028a3783          	ld	a5,40(s4)
    c0006e3a:	d7f5                	beqz	a5,c0006e26 <sbi_hart_wait_for_coldboot+0xcc>
    c0006e3c:	020a3703          	ld	a4,32(s4)
    c0006e40:	fff94793          	not	a5,s2
    c0006e44:	8ff9                	and	a5,a5,a4
    c0006e46:	00004517          	auipc	a0,0x4
    c0006e4a:	2aa50513          	addi	a0,a0,682 # c000b0f0 <coldboot_lock>
    c0006e4e:	00004717          	auipc	a4,0x4
    c0006e52:	2af73523          	sd	a5,682(a4) # c000b0f8 <coldboot_wait_bitmap>
    c0006e56:	8b7fd0ef          	jal	ra,c000470c <spin_unlock>
    c0006e5a:	304b1073          	csrw	mie,s6
    c0006e5e:	0694c703          	lbu	a4,105(s1)
    c0006e62:	0684c683          	lbu	a3,104(s1)
    c0006e66:	06a4c783          	lbu	a5,106(s1)
    c0006e6a:	06b4c583          	lbu	a1,107(s1)
    c0006e6e:	0722                	slli	a4,a4,0x8
    c0006e70:	06c4c603          	lbu	a2,108(s1)
    c0006e74:	8f55                	or	a4,a4,a3
    c0006e76:	07c2                	slli	a5,a5,0x10
    c0006e78:	06d4c683          	lbu	a3,109(s1)
    c0006e7c:	8fd9                	or	a5,a5,a4
    c0006e7e:	05e2                	slli	a1,a1,0x18
    c0006e80:	06e4c703          	lbu	a4,110(s1)
    c0006e84:	8ddd                	or	a1,a1,a5
    c0006e86:	1602                	slli	a2,a2,0x20
    c0006e88:	06f4c783          	lbu	a5,111(s1)
    c0006e8c:	8e4d                	or	a2,a2,a1
    c0006e8e:	16a2                	slli	a3,a3,0x28
    c0006e90:	8ed1                	or	a3,a3,a2
    c0006e92:	1742                	slli	a4,a4,0x30
    c0006e94:	8f55                	or	a4,a4,a3
    c0006e96:	17e2                	slli	a5,a5,0x38
    c0006e98:	8fd9                	or	a5,a5,a4
    c0006e9a:	0717c703          	lbu	a4,113(a5)
    c0006e9e:	0707c683          	lbu	a3,112(a5)
    c0006ea2:	0727c503          	lbu	a0,114(a5)
    c0006ea6:	0737c583          	lbu	a1,115(a5)
    c0006eaa:	0747c603          	lbu	a2,116(a5)
    c0006eae:	0722                	slli	a4,a4,0x8
    c0006eb0:	8f55                	or	a4,a4,a3
    c0006eb2:	0542                	slli	a0,a0,0x10
    c0006eb4:	0757c683          	lbu	a3,117(a5)
    c0006eb8:	8d59                	or	a0,a0,a4
    c0006eba:	05e2                	slli	a1,a1,0x18
    c0006ebc:	0767c703          	lbu	a4,118(a5)
    c0006ec0:	8dc9                	or	a1,a1,a0
    c0006ec2:	1602                	slli	a2,a2,0x20
    c0006ec4:	0777c783          	lbu	a5,119(a5)
    c0006ec8:	8e4d                	or	a2,a2,a1
    c0006eca:	16a2                	slli	a3,a3,0x28
    c0006ecc:	8ed1                	or	a3,a3,a2
    c0006ece:	1742                	slli	a4,a4,0x30
    c0006ed0:	8f55                	or	a4,a4,a3
    c0006ed2:	17e2                	slli	a5,a5,0x38
    c0006ed4:	8fd9                	or	a5,a5,a4
    c0006ed6:	c399                	beqz	a5,c0006edc <sbi_hart_wait_for_coldboot+0x182>
    c0006ed8:	854e                	mv	a0,s3
    c0006eda:	9782                	jalr	a5
    c0006edc:	70e2                	ld	ra,56(sp)
    c0006ede:	7442                	ld	s0,48(sp)
    c0006ee0:	74a2                	ld	s1,40(sp)
    c0006ee2:	7902                	ld	s2,32(sp)
    c0006ee4:	69e2                	ld	s3,24(sp)
    c0006ee6:	6a42                	ld	s4,16(sp)
    c0006ee8:	6aa2                	ld	s5,8(sp)
    c0006eea:	6b02                	ld	s6,0(sp)
    c0006eec:	6121                	addi	sp,sp,64
    c0006eee:	8082                	ret

00000000c0006ef0 <sbi_hart_wake_coldboot_harts>:
    c0006ef0:	7139                	addi	sp,sp,-64
    c0006ef2:	f822                	sd	s0,48(sp)
    c0006ef4:	fc06                	sd	ra,56(sp)
    c0006ef6:	f426                	sd	s1,40(sp)
    c0006ef8:	f04a                	sd	s2,32(sp)
    c0006efa:	ec4e                	sd	s3,24(sp)
    c0006efc:	e852                	sd	s4,16(sp)
    c0006efe:	e456                	sd	s5,8(sp)
    c0006f00:	0080                	addi	s0,sp,64
    c0006f02:	03154783          	lbu	a5,49(a0)
    c0006f06:	03054703          	lbu	a4,48(a0)
    c0006f0a:	03254603          	lbu	a2,50(a0)
    c0006f0e:	03354903          	lbu	s2,51(a0)
    c0006f12:	07a2                	slli	a5,a5,0x8
    c0006f14:	03454683          	lbu	a3,52(a0)
    c0006f18:	8fd9                	or	a5,a5,a4
    c0006f1a:	0642                	slli	a2,a2,0x10
    c0006f1c:	03554703          	lbu	a4,53(a0)
    c0006f20:	8e5d                	or	a2,a2,a5
    c0006f22:	0962                	slli	s2,s2,0x18
    c0006f24:	03654783          	lbu	a5,54(a0)
    c0006f28:	00c96933          	or	s2,s2,a2
    c0006f2c:	1682                	slli	a3,a3,0x20
    c0006f2e:	03754603          	lbu	a2,55(a0)
    c0006f32:	0126e933          	or	s2,a3,s2
    c0006f36:	1722                	slli	a4,a4,0x28
    c0006f38:	01276933          	or	s2,a4,s2
    c0006f3c:	17c2                	slli	a5,a5,0x30
    c0006f3e:	0127e7b3          	or	a5,a5,s2
    c0006f42:	03861913          	slli	s2,a2,0x38
    c0006f46:	00f96933          	or	s2,s2,a5
    c0006f4a:	10090163          	beqz	s2,c000704c <sbi_hart_wake_coldboot_harts+0x15c>
    c0006f4e:	05194703          	lbu	a4,81(s2)
    c0006f52:	05094683          	lbu	a3,80(s2)
    c0006f56:	05294783          	lbu	a5,82(s2)
    c0006f5a:	05394983          	lbu	s3,83(s2)
    c0006f5e:	0722                	slli	a4,a4,0x8
    c0006f60:	8f55                	or	a4,a4,a3
    c0006f62:	07c2                	slli	a5,a5,0x10
    c0006f64:	8fd9                	or	a5,a5,a4
    c0006f66:	09e2                	slli	s3,s3,0x18
    c0006f68:	00004517          	auipc	a0,0x4
    c0006f6c:	18850513          	addi	a0,a0,392 # c000b0f0 <coldboot_lock>
    c0006f70:	00f9e9b3          	or	s3,s3,a5
    c0006f74:	8a2e                	mv	s4,a1
    c0006f76:	f78fd0ef          	jal	ra,c00046ee <spin_lock>
    c0006f7a:	4785                	li	a5,1
    c0006f7c:	2981                	sext.w	s3,s3
    c0006f7e:	00004717          	auipc	a4,0x4
    c0006f82:	18f73123          	sd	a5,386(a4) # c000b100 <coldboot_done>
    c0006f86:	4481                	li	s1,0
    c0006f88:	00004a97          	auipc	s5,0x4
    c0006f8c:	150a8a93          	addi	s5,s5,336 # c000b0d8 <trap_info_offset>
    c0006f90:	09305f63          	blez	s3,c000702e <sbi_hart_wake_coldboot_harts+0x13e>
    c0006f94:	0004851b          	sext.w	a0,s1
    c0006f98:	08aa0863          	beq	s4,a0,c0007028 <sbi_hart_wake_coldboot_harts+0x138>
    c0006f9c:	020ab783          	ld	a5,32(s5)
    c0006fa0:	0097d7b3          	srl	a5,a5,s1
    c0006fa4:	8b85                	andi	a5,a5,1
    c0006fa6:	c3c9                	beqz	a5,c0007028 <sbi_hart_wake_coldboot_harts+0x138>
    c0006fa8:	06994703          	lbu	a4,105(s2)
    c0006fac:	06894683          	lbu	a3,104(s2)
    c0006fb0:	06a94783          	lbu	a5,106(s2)
    c0006fb4:	06b94583          	lbu	a1,107(s2)
    c0006fb8:	0722                	slli	a4,a4,0x8
    c0006fba:	06c94603          	lbu	a2,108(s2)
    c0006fbe:	8f55                	or	a4,a4,a3
    c0006fc0:	07c2                	slli	a5,a5,0x10
    c0006fc2:	06d94683          	lbu	a3,109(s2)
    c0006fc6:	8fd9                	or	a5,a5,a4
    c0006fc8:	05e2                	slli	a1,a1,0x18
    c0006fca:	06e94703          	lbu	a4,110(s2)
    c0006fce:	8ddd                	or	a1,a1,a5
    c0006fd0:	1602                	slli	a2,a2,0x20
    c0006fd2:	06f94783          	lbu	a5,111(s2)
    c0006fd6:	8e4d                	or	a2,a2,a1
    c0006fd8:	16a2                	slli	a3,a3,0x28
    c0006fda:	8ed1                	or	a3,a3,a2
    c0006fdc:	1742                	slli	a4,a4,0x30
    c0006fde:	8f55                	or	a4,a4,a3
    c0006fe0:	17e2                	slli	a5,a5,0x38
    c0006fe2:	8fd9                	or	a5,a5,a4
    c0006fe4:	0697c703          	lbu	a4,105(a5)
    c0006fe8:	0687c683          	lbu	a3,104(a5)
    c0006fec:	06a7c583          	lbu	a1,106(a5)
    c0006ff0:	06b7c803          	lbu	a6,107(a5)
    c0006ff4:	06c7c603          	lbu	a2,108(a5)
    c0006ff8:	0722                	slli	a4,a4,0x8
    c0006ffa:	8f55                	or	a4,a4,a3
    c0006ffc:	05c2                	slli	a1,a1,0x10
    c0006ffe:	06d7c683          	lbu	a3,109(a5)
    c0007002:	8dd9                	or	a1,a1,a4
    c0007004:	0862                	slli	a6,a6,0x18
    c0007006:	06e7c703          	lbu	a4,110(a5)
    c000700a:	00b86833          	or	a6,a6,a1
    c000700e:	1602                	slli	a2,a2,0x20
    c0007010:	06f7c783          	lbu	a5,111(a5)
    c0007014:	01066633          	or	a2,a2,a6
    c0007018:	16a2                	slli	a3,a3,0x28
    c000701a:	8ed1                	or	a3,a3,a2
    c000701c:	1742                	slli	a4,a4,0x30
    c000701e:	8f55                	or	a4,a4,a3
    c0007020:	17e2                	slli	a5,a5,0x38
    c0007022:	8fd9                	or	a5,a5,a4
    c0007024:	c391                	beqz	a5,c0007028 <sbi_hart_wake_coldboot_harts+0x138>
    c0007026:	9782                	jalr	a5
    c0007028:	2485                	addiw	s1,s1,1
    c000702a:	f69995e3          	bne	s3,s1,c0006f94 <sbi_hart_wake_coldboot_harts+0xa4>
    c000702e:	00004517          	auipc	a0,0x4
    c0007032:	0c250513          	addi	a0,a0,194 # c000b0f0 <coldboot_lock>
    c0007036:	ed6fd0ef          	jal	ra,c000470c <spin_unlock>
    c000703a:	70e2                	ld	ra,56(sp)
    c000703c:	7442                	ld	s0,48(sp)
    c000703e:	74a2                	ld	s1,40(sp)
    c0007040:	7902                	ld	s2,32(sp)
    c0007042:	69e2                	ld	s3,24(sp)
    c0007044:	6a42                	ld	s4,16(sp)
    c0007046:	6aa2                	ld	s5,8(sp)
    c0007048:	6121                	addi	sp,sp,64
    c000704a:	8082                	ret
    c000704c:	00004517          	auipc	a0,0x4
    c0007050:	0a450513          	addi	a0,a0,164 # c000b0f0 <coldboot_lock>
    c0007054:	e9afd0ef          	jal	ra,c00046ee <spin_lock>
    c0007058:	4785                	li	a5,1
    c000705a:	00004717          	auipc	a4,0x4
    c000705e:	0af73323          	sd	a5,166(a4) # c000b100 <coldboot_done>
    c0007062:	b7f1                	j	c000702e <sbi_hart_wake_coldboot_harts+0x13e>

00000000c0007064 <truly_illegal_insn>:
    c0007064:	7139                	addi	sp,sp,-64
    c0007066:	f822                	sd	s0,48(sp)
    c0007068:	fc06                	sd	ra,56(sp)
    c000706a:	0080                	addi	s0,sp,64
    c000706c:	1016c583          	lbu	a1,257(a3)
    c0007070:	1006c803          	lbu	a6,256(a3)
    c0007074:	1026c783          	lbu	a5,258(a3)
    c0007078:	1036c303          	lbu	t1,259(a3)
    c000707c:	1046c883          	lbu	a7,260(a3)
    c0007080:	05a2                	slli	a1,a1,0x8
    c0007082:	0105e5b3          	or	a1,a1,a6
    c0007086:	07c2                	slli	a5,a5,0x10
    c0007088:	1056c803          	lbu	a6,261(a3)
    c000708c:	8fcd                	or	a5,a5,a1
    c000708e:	0362                	slli	t1,t1,0x18
    c0007090:	1066c583          	lbu	a1,262(a3)
    c0007094:	00f36333          	or	t1,t1,a5
    c0007098:	1882                	slli	a7,a7,0x20
    c000709a:	1076c783          	lbu	a5,263(a3)
    c000709e:	0068e8b3          	or	a7,a7,t1
    c00070a2:	1822                	slli	a6,a6,0x28
    c00070a4:	01186833          	or	a6,a6,a7
    c00070a8:	15c2                	slli	a1,a1,0x30
    c00070aa:	0105e5b3          	or	a1,a1,a6
    c00070ae:	17e2                	slli	a5,a5,0x38
    c00070b0:	8fcd                	or	a5,a5,a1
    c00070b2:	fcc43823          	sd	a2,-48(s0)
    c00070b6:	fca43c23          	sd	a0,-40(s0)
    c00070ba:	fc840593          	addi	a1,s0,-56
    c00070be:	863a                	mv	a2,a4
    c00070c0:	8536                	mv	a0,a3
    c00070c2:	fcf43423          	sd	a5,-56(s0)
    c00070c6:	fe043023          	sd	zero,-32(s0)
    c00070ca:	fe043423          	sd	zero,-24(s0)
    c00070ce:	e2efb0ef          	jal	ra,c00026fc <sbi_trap_redirect>
    c00070d2:	70e2                	ld	ra,56(sp)
    c00070d4:	7442                	ld	s0,48(sp)
    c00070d6:	6121                	addi	sp,sp,64
    c00070d8:	8082                	ret

00000000c00070da <system_opcode_insn>:
    c00070da:	7175                	addi	sp,sp,-144
    c00070dc:	e122                	sd	s0,128(sp)
    c00070de:	fca6                	sd	s1,120(sp)
    c00070e0:	f8ca                	sd	s2,112(sp)
    c00070e2:	f4ce                	sd	s3,104(sp)
    c00070e4:	f0d2                	sd	s4,96(sp)
    c00070e6:	e8da                	sd	s6,80(sp)
    c00070e8:	e0e2                	sd	s8,64(sp)
    c00070ea:	fc66                	sd	s9,56(sp)
    c00070ec:	e506                	sd	ra,136(sp)
    c00070ee:	ecd6                	sd	s5,88(sp)
    c00070f0:	e4de                	sd	s7,72(sp)
    c00070f2:	0900                	addi	s0,sp,144
    c00070f4:	10c6c783          	lbu	a5,268(a3)
    c00070f8:	00c55993          	srli	s3,a0,0xc
    c00070fc:	84b6                	mv	s1,a3
    c00070fe:	0f89f693          	andi	a3,s3,248
    c0007102:	96a6                	add	a3,a3,s1
    c0007104:	839d                	srli	a5,a5,0x7
    c0007106:	892a                	mv	s2,a0
    c0007108:	8c2e                	mv	s8,a1
    c000710a:	8a32                	mv	s4,a2
    c000710c:	8b3a                	mv	s6,a4
    c000710e:	0006bb83          	ld	s7,0(a3)
    c0007112:	01455c9b          	srliw	s9,a0,0x14
    c0007116:	cb91                	beqz	a5,c000712a <system_opcode_insn+0x50>
    c0007118:	4785                	li	a5,1
    c000711a:	1782                	slli	a5,a5,0x20
    c000711c:	f0078793          	addi	a5,a5,-256
    c0007120:	8fe9                	and	a5,a5,a0
    c0007122:	10500737          	lui	a4,0x10500
    c0007126:	0ee78863          	beq	a5,a4,c0007216 <system_opcode_insn+0x13c>
    c000712a:	f7040713          	addi	a4,s0,-144
    c000712e:	86da                	mv	a3,s6
    c0007130:	8626                	mv	a2,s1
    c0007132:	85e2                	mv	a1,s8
    c0007134:	8566                	mv	a0,s9
    c0007136:	618010ef          	jal	ra,c000874e <sbi_emulate_csr_read>
    c000713a:	8aaa                	mv	s5,a0
    c000713c:	ed69                	bnez	a0,c0007216 <system_opcode_insn+0x13c>
    c000713e:	0079f993          	andi	s3,s3,7
    c0007142:	00003697          	auipc	a3,0x3
    c0007146:	82e68693          	addi	a3,a3,-2002 # c0009970 <platform_ops+0x2b0>
    c000714a:	098a                	slli	s3,s3,0x2
    c000714c:	99b6                	add	s3,s3,a3
    c000714e:	0009a703          	lw	a4,0(s3)
    c0007152:	00f95793          	srli	a5,s2,0xf
    c0007156:	8bfd                	andi	a5,a5,31
    c0007158:	9736                	add	a4,a4,a3
    c000715a:	8702                	jr	a4
    c000715c:	8bbe                	mv	s7,a5
    c000715e:	875e                	mv	a4,s7
    c0007160:	86da                	mv	a3,s6
    c0007162:	8626                	mv	a2,s1
    c0007164:	85e2                	mv	a1,s8
    c0007166:	8566                	mv	a0,s9
    c0007168:	7c8010ef          	jal	ra,c0008930 <sbi_emulate_csr_write>
    c000716c:	e54d                	bnez	a0,c0007216 <system_opcode_insn+0x13c>
    c000716e:	f7043703          	ld	a4,-144(s0)
    c0007172:	00495913          	srli	s2,s2,0x4
    c0007176:	0f897913          	andi	s2,s2,248
    c000717a:	9926                	add	s2,s2,s1
    c000717c:	00e93023          	sd	a4,0(s2)
    c0007180:	1014c783          	lbu	a5,257(s1)
    c0007184:	1004c703          	lbu	a4,256(s1)
    c0007188:	1024c503          	lbu	a0,258(s1)
    c000718c:	1034c583          	lbu	a1,259(s1)
    c0007190:	1044c603          	lbu	a2,260(s1)
    c0007194:	07a2                	slli	a5,a5,0x8
    c0007196:	8fd9                	or	a5,a5,a4
    c0007198:	1054c683          	lbu	a3,261(s1)
    c000719c:	0542                	slli	a0,a0,0x10
    c000719e:	8d5d                	or	a0,a0,a5
    c00071a0:	1064c703          	lbu	a4,262(s1)
    c00071a4:	05e2                	slli	a1,a1,0x18
    c00071a6:	8dc9                	or	a1,a1,a0
    c00071a8:	1074c783          	lbu	a5,263(s1)
    c00071ac:	1602                	slli	a2,a2,0x20
    c00071ae:	8e4d                	or	a2,a2,a1
    c00071b0:	16a2                	slli	a3,a3,0x28
    c00071b2:	8ed1                	or	a3,a3,a2
    c00071b4:	1742                	slli	a4,a4,0x30
    c00071b6:	8f55                	or	a4,a4,a3
    c00071b8:	17e2                	slli	a5,a5,0x38
    c00071ba:	8fd9                	or	a5,a5,a4
    c00071bc:	0791                	addi	a5,a5,4
    c00071be:	0087d893          	srli	a7,a5,0x8
    c00071c2:	0107d813          	srli	a6,a5,0x10
    c00071c6:	0187d51b          	srliw	a0,a5,0x18
    c00071ca:	0207d593          	srli	a1,a5,0x20
    c00071ce:	0287d613          	srli	a2,a5,0x28
    c00071d2:	0307d693          	srli	a3,a5,0x30
    c00071d6:	0387d713          	srli	a4,a5,0x38
    c00071da:	10f48023          	sb	a5,256(s1)
    c00071de:	111480a3          	sb	a7,257(s1)
    c00071e2:	11048123          	sb	a6,258(s1)
    c00071e6:	10a481a3          	sb	a0,259(s1)
    c00071ea:	10b48223          	sb	a1,260(s1)
    c00071ee:	10c482a3          	sb	a2,261(s1)
    c00071f2:	10d48323          	sb	a3,262(s1)
    c00071f6:	10e483a3          	sb	a4,263(s1)
    c00071fa:	60aa                	ld	ra,136(sp)
    c00071fc:	640a                	ld	s0,128(sp)
    c00071fe:	8556                	mv	a0,s5
    c0007200:	74e6                	ld	s1,120(sp)
    c0007202:	7946                	ld	s2,112(sp)
    c0007204:	79a6                	ld	s3,104(sp)
    c0007206:	7a06                	ld	s4,96(sp)
    c0007208:	6ae6                	ld	s5,88(sp)
    c000720a:	6b46                	ld	s6,80(sp)
    c000720c:	6ba6                	ld	s7,72(sp)
    c000720e:	6c06                	ld	s8,64(sp)
    c0007210:	7ce2                	ld	s9,56(sp)
    c0007212:	6149                	addi	sp,sp,144
    c0007214:	8082                	ret
    c0007216:	1014c703          	lbu	a4,257(s1)
    c000721a:	1004c683          	lbu	a3,256(s1)
    c000721e:	1024c783          	lbu	a5,258(s1)
    c0007222:	1034c583          	lbu	a1,259(s1)
    c0007226:	1044c603          	lbu	a2,260(s1)
    c000722a:	0722                	slli	a4,a4,0x8
    c000722c:	8f55                	or	a4,a4,a3
    c000722e:	07c2                	slli	a5,a5,0x10
    c0007230:	1054c683          	lbu	a3,261(s1)
    c0007234:	8fd9                	or	a5,a5,a4
    c0007236:	05e2                	slli	a1,a1,0x18
    c0007238:	1064c703          	lbu	a4,262(s1)
    c000723c:	8ddd                	or	a1,a1,a5
    c000723e:	1602                	slli	a2,a2,0x20
    c0007240:	1074c783          	lbu	a5,263(s1)
    c0007244:	8e4d                	or	a2,a2,a1
    c0007246:	16a2                	slli	a3,a3,0x28
    c0007248:	8ed1                	or	a3,a3,a2
    c000724a:	1742                	slli	a4,a4,0x30
    c000724c:	8f55                	or	a4,a4,a3
    c000724e:	17e2                	slli	a5,a5,0x38
    c0007250:	8fd9                	or	a5,a5,a4
    c0007252:	865a                	mv	a2,s6
    c0007254:	f7840593          	addi	a1,s0,-136
    c0007258:	8526                	mv	a0,s1
    c000725a:	f6f43c23          	sd	a5,-136(s0)
    c000725e:	f9443023          	sd	s4,-128(s0)
    c0007262:	f9243423          	sd	s2,-120(s0)
    c0007266:	f8043823          	sd	zero,-112(s0)
    c000726a:	f8043c23          	sd	zero,-104(s0)
    c000726e:	c8efb0ef          	jal	ra,c00026fc <sbi_trap_redirect>
    c0007272:	8aaa                	mv	s5,a0
    c0007274:	b759                	j	c00071fa <system_opcode_insn+0x120>
    c0007276:	f7043703          	ld	a4,-144(s0)
    c000727a:	fff7cb93          	not	s7,a5
    c000727e:	00ebfbb3          	and	s7,s7,a4
    c0007282:	ee0788e3          	beqz	a5,c0007172 <system_opcode_insn+0x98>
    c0007286:	bde1                	j	c000715e <system_opcode_insn+0x84>
    c0007288:	f7043703          	ld	a4,-144(s0)
    c000728c:	00ebebb3          	or	s7,s7,a4
    c0007290:	ee0781e3          	beqz	a5,c0007172 <system_opcode_insn+0x98>
    c0007294:	b5e9                	j	c000715e <system_opcode_insn+0x84>
    c0007296:	f7043703          	ld	a4,-144(s0)
    c000729a:	00e7ebb3          	or	s7,a5,a4
    c000729e:	ec078ae3          	beqz	a5,c0007172 <system_opcode_insn+0x98>
    c00072a2:	bd75                	j	c000715e <system_opcode_insn+0x84>
    c00072a4:	f7043703          	ld	a4,-144(s0)
    c00072a8:	fffbcb93          	not	s7,s7
    c00072ac:	00ebfbb3          	and	s7,s7,a4
    c00072b0:	ec0781e3          	beqz	a5,c0007172 <system_opcode_insn+0x98>
    c00072b4:	b56d                	j	c000715e <system_opcode_insn+0x84>

00000000c00072b6 <sbi_illegal_insn_handler>:
    c00072b6:	7175                	addi	sp,sp,-144
    c00072b8:	e122                	sd	s0,128(sp)
    c00072ba:	fca6                	sd	s1,120(sp)
    c00072bc:	f8ca                	sd	s2,112(sp)
    c00072be:	f4ce                	sd	s3,104(sp)
    c00072c0:	e506                	sd	ra,136(sp)
    c00072c2:	0900                	addi	s0,sp,144
    c00072c4:	87b2                	mv	a5,a2
    c00072c6:	8a0d                	andi	a2,a2,3
    c00072c8:	448d                	li	s1,3
    c00072ca:	89aa                	mv	s3,a0
    c00072cc:	892e                	mv	s2,a1
    c00072ce:	02961863          	bne	a2,s1,c00072fe <sbi_illegal_insn_handler+0x48>
    c00072d2:	00179613          	slli	a2,a5,0x1
    c00072d6:	0f867593          	andi	a1,a2,248
    c00072da:	00002617          	auipc	a2,0x2
    c00072de:	6b660613          	addi	a2,a2,1718 # c0009990 <illegal_insn_table>
    c00072e2:	962e                	add	a2,a2,a1
    c00072e4:	00063803          	ld	a6,0(a2)
    c00072e8:	85ce                	mv	a1,s3
    c00072ea:	864a                	mv	a2,s2
    c00072ec:	853e                	mv	a0,a5
    c00072ee:	9802                	jalr	a6
    c00072f0:	60aa                	ld	ra,136(sp)
    c00072f2:	640a                	ld	s0,128(sp)
    c00072f4:	74e6                	ld	s1,120(sp)
    c00072f6:	7946                	ld	s2,112(sp)
    c00072f8:	79a6                	ld	s3,104(sp)
    c00072fa:	6149                	addi	sp,sp,144
    c00072fc:	8082                	ret
    c00072fe:	1016c603          	lbu	a2,257(a3)
    c0007302:	1006c583          	lbu	a1,256(a3)
    c0007306:	1026c883          	lbu	a7,258(a3)
    c000730a:	1036c803          	lbu	a6,259(a3)
    c000730e:	0622                	slli	a2,a2,0x8
    c0007310:	1046c503          	lbu	a0,260(a3)
    c0007314:	8e4d                	or	a2,a2,a1
    c0007316:	08c2                	slli	a7,a7,0x10
    c0007318:	1056c583          	lbu	a1,261(a3)
    c000731c:	00c8e8b3          	or	a7,a7,a2
    c0007320:	0862                	slli	a6,a6,0x18
    c0007322:	1066c603          	lbu	a2,262(a3)
    c0007326:	01186833          	or	a6,a6,a7
    c000732a:	1502                	slli	a0,a0,0x20
    c000732c:	1076c883          	lbu	a7,263(a3)
    c0007330:	01056533          	or	a0,a0,a6
    c0007334:	15a2                	slli	a1,a1,0x28
    c0007336:	8dc9                	or	a1,a1,a0
    c0007338:	1642                	slli	a2,a2,0x30
    c000733a:	8e4d                	or	a2,a2,a1
    c000733c:	03889513          	slli	a0,a7,0x38
    c0007340:	00c56833          	or	a6,a0,a2
    c0007344:	c395                	beqz	a5,c0007368 <sbi_illegal_insn_handler+0xb2>
    c0007346:	863a                	mv	a2,a4
    c0007348:	fa840593          	addi	a1,s0,-88
    c000734c:	8536                	mv	a0,a3
    c000734e:	fb043423          	sd	a6,-88(s0)
    c0007352:	fb243823          	sd	s2,-80(s0)
    c0007356:	faf43c23          	sd	a5,-72(s0)
    c000735a:	fc043023          	sd	zero,-64(s0)
    c000735e:	fc043423          	sd	zero,-56(s0)
    c0007362:	b9afb0ef          	jal	ra,c00026fc <sbi_trap_redirect>
    c0007366:	b769                	j	c00072f0 <sbi_illegal_insn_handler+0x3a>
    c0007368:	f8040613          	addi	a2,s0,-128
    c000736c:	85ba                	mv	a1,a4
    c000736e:	8542                	mv	a0,a6
    c0007370:	f6d43823          	sd	a3,-144(s0)
    c0007374:	f6e43c23          	sd	a4,-136(s0)
    c0007378:	32b000ef          	jal	ra,c0007ea2 <sbi_get_insn>
    c000737c:	f8843603          	ld	a2,-120(s0)
    c0007380:	87aa                	mv	a5,a0
    c0007382:	f7843703          	ld	a4,-136(s0)
    c0007386:	f7043683          	ld	a3,-144(s0)
    c000738a:	ea31                	bnez	a2,c00073de <sbi_illegal_insn_handler+0x128>
    c000738c:	00357613          	andi	a2,a0,3
    c0007390:	f49601e3          	beq	a2,s1,c00072d2 <sbi_illegal_insn_handler+0x1c>
    c0007394:	1016c503          	lbu	a0,257(a3)
    c0007398:	1006c803          	lbu	a6,256(a3)
    c000739c:	1026c603          	lbu	a2,258(a3)
    c00073a0:	1036c883          	lbu	a7,259(a3)
    c00073a4:	0522                	slli	a0,a0,0x8
    c00073a6:	1046c583          	lbu	a1,260(a3)
    c00073aa:	01056533          	or	a0,a0,a6
    c00073ae:	0642                	slli	a2,a2,0x10
    c00073b0:	1056c803          	lbu	a6,261(a3)
    c00073b4:	8e49                	or	a2,a2,a0
    c00073b6:	08e2                	slli	a7,a7,0x18
    c00073b8:	1066c503          	lbu	a0,262(a3)
    c00073bc:	00c8e8b3          	or	a7,a7,a2
    c00073c0:	1582                	slli	a1,a1,0x20
    c00073c2:	1076c603          	lbu	a2,263(a3)
    c00073c6:	0115e5b3          	or	a1,a1,a7
    c00073ca:	1822                	slli	a6,a6,0x28
    c00073cc:	00b86833          	or	a6,a6,a1
    c00073d0:	1542                	slli	a0,a0,0x30
    c00073d2:	01056533          	or	a0,a0,a6
    c00073d6:	1662                	slli	a2,a2,0x38
    c00073d8:	00a66833          	or	a6,a2,a0
    c00073dc:	b7ad                	j	c0007346 <sbi_illegal_insn_handler+0x90>
    c00073de:	1016c603          	lbu	a2,257(a3)
    c00073e2:	1006c583          	lbu	a1,256(a3)
    c00073e6:	1026c783          	lbu	a5,258(a3)
    c00073ea:	1036c803          	lbu	a6,259(a3)
    c00073ee:	1046c503          	lbu	a0,260(a3)
    c00073f2:	0622                	slli	a2,a2,0x8
    c00073f4:	8e4d                	or	a2,a2,a1
    c00073f6:	07c2                	slli	a5,a5,0x10
    c00073f8:	1056c583          	lbu	a1,261(a3)
    c00073fc:	8fd1                	or	a5,a5,a2
    c00073fe:	0862                	slli	a6,a6,0x18
    c0007400:	1066c603          	lbu	a2,262(a3)
    c0007404:	00f86833          	or	a6,a6,a5
    c0007408:	1502                	slli	a0,a0,0x20
    c000740a:	1076c783          	lbu	a5,263(a3)
    c000740e:	01056533          	or	a0,a0,a6
    c0007412:	15a2                	slli	a1,a1,0x28
    c0007414:	8dc9                	or	a1,a1,a0
    c0007416:	1642                	slli	a2,a2,0x30
    c0007418:	8e4d                	or	a2,a2,a1
    c000741a:	17e2                	slli	a5,a5,0x38
    c000741c:	8fd1                	or	a5,a5,a2
    c000741e:	f8040593          	addi	a1,s0,-128
    c0007422:	863a                	mv	a2,a4
    c0007424:	8536                	mv	a0,a3
    c0007426:	f8f43023          	sd	a5,-128(s0)
    c000742a:	ad2fb0ef          	jal	ra,c00026fc <sbi_trap_redirect>
    c000742e:	b5c9                	j	c00072f0 <sbi_illegal_insn_handler+0x3a>

00000000c0007430 <sbi_misaligned_load_handler>:
    c0007430:	7135                	addi	sp,sp,-160
    c0007432:	e922                	sd	s0,144(sp)
    c0007434:	e526                	sd	s1,136(sp)
    c0007436:	e14a                	sd	s2,128(sp)
    c0007438:	f8d2                	sd	s4,112(sp)
    c000743a:	f0da                	sd	s6,96(sp)
    c000743c:	ed06                	sd	ra,152(sp)
    c000743e:	fcce                	sd	s3,120(sp)
    c0007440:	f4d6                	sd	s5,104(sp)
    c0007442:	ecde                	sd	s7,88(sp)
    c0007444:	e8e2                	sd	s8,80(sp)
    c0007446:	e4e6                	sd	s9,72(sp)
    c0007448:	e0ea                	sd	s10,64(sp)
    c000744a:	1100                	addi	s0,sp,160
    c000744c:	00177513          	andi	a0,a4,1
    c0007450:	84ae                	mv	s1,a1
    c0007452:	8a32                	mv	s4,a2
    c0007454:	893e                	mv	s2,a5
    c0007456:	8b42                	mv	s6,a6
    c0007458:	1e050563          	beqz	a0,c0007642 <sbi_misaligned_load_handler+0x212>
    c000745c:	00376b93          	ori	s7,a4,3
    c0007460:	f7840a93          	addi	s5,s0,-136
    c0007464:	679d                	lui	a5,0x7
    c0007466:	6609                	lui	a2,0x2
    c0007468:	07f78793          	addi	a5,a5,127 # 707f <_fw_start-0xbfff8f81>
    c000746c:	00fbf7b3          	and	a5,s7,a5
    c0007470:	00360593          	addi	a1,a2,3 # 2003 <_fw_start-0xbfffdffd>
    c0007474:	28b78663          	beq	a5,a1,c0007700 <sbi_misaligned_load_handler+0x2d0>
    c0007478:	658d                	lui	a1,0x3
    c000747a:	00358513          	addi	a0,a1,3 # 3003 <_fw_start-0xbfffcffd>
    c000747e:	0aa78f63          	beq	a5,a0,c000753c <sbi_misaligned_load_handler+0x10c>
    c0007482:	6519                	lui	a0,0x6
    c0007484:	00350813          	addi	a6,a0,3 # 6003 <_fw_start-0xbfff9ffd>
    c0007488:	2b078463          	beq	a5,a6,c0007730 <sbi_misaligned_load_handler+0x300>
    c000748c:	059d                	addi	a1,a1,7
    c000748e:	28b78763          	beq	a5,a1,c000771c <sbi_misaligned_load_handler+0x2ec>
    c0007492:	061d                	addi	a2,a2,7
    c0007494:	2ac78263          	beq	a5,a2,c0007738 <sbi_misaligned_load_handler+0x308>
    c0007498:	6605                	lui	a2,0x1
    c000749a:	060d                	addi	a2,a2,3
    c000749c:	2ac78c63          	beq	a5,a2,c0007754 <sbi_misaligned_load_handler+0x324>
    c00074a0:	6615                	lui	a2,0x5
    c00074a2:	060d                	addi	a2,a2,3
    c00074a4:	2ac78d63          	beq	a5,a2,c000775e <sbi_misaligned_load_handler+0x32e>
    c00074a8:	67b9                	lui	a5,0xe
    c00074aa:	078d                	addi	a5,a5,3
    c00074ac:	00fbf7b3          	and	a5,s7,a5
    c00074b0:	28a78863          	beq	a5,a0,c0007740 <sbi_misaligned_load_handler+0x310>
    c00074b4:	0509                	addi	a0,a0,2
    c00074b6:	06a78f63          	beq	a5,a0,c0007534 <sbi_misaligned_load_handler+0x104>
    c00074ba:	6611                	lui	a2,0x4
    c00074bc:	2ac78563          	beq	a5,a2,c0007766 <sbi_misaligned_load_handler+0x336>
    c00074c0:	6611                	lui	a2,0x4
    c00074c2:	0609                	addi	a2,a2,2
    c00074c4:	22c78963          	beq	a5,a2,c00076f6 <sbi_misaligned_load_handler+0x2c6>
    c00074c8:	6609                	lui	a2,0x2
    c00074ca:	2ac78963          	beq	a5,a2,c000777c <sbi_misaligned_load_handler+0x34c>
    c00074ce:	0609                	addi	a2,a2,2
    c00074d0:	24c78663          	beq	a5,a2,c000771c <sbi_misaligned_load_handler+0x2ec>
    c00074d4:	10194603          	lbu	a2,257(s2)
    c00074d8:	10094583          	lbu	a1,256(s2)
    c00074dc:	10294783          	lbu	a5,258(s2)
    c00074e0:	10394803          	lbu	a6,259(s2)
    c00074e4:	10494503          	lbu	a0,260(s2)
    c00074e8:	0622                	slli	a2,a2,0x8
    c00074ea:	8e4d                	or	a2,a2,a1
    c00074ec:	07c2                	slli	a5,a5,0x10
    c00074ee:	10594583          	lbu	a1,261(s2)
    c00074f2:	8fd1                	or	a5,a5,a2
    c00074f4:	0862                	slli	a6,a6,0x18
    c00074f6:	10694603          	lbu	a2,262(s2)
    c00074fa:	00f86833          	or	a6,a6,a5
    c00074fe:	1502                	slli	a0,a0,0x20
    c0007500:	10794783          	lbu	a5,263(s2)
    c0007504:	01056533          	or	a0,a0,a6
    c0007508:	15a2                	slli	a1,a1,0x28
    c000750a:	8dc9                	or	a1,a1,a0
    c000750c:	1642                	slli	a2,a2,0x30
    c000750e:	8e4d                	or	a2,a2,a1
    c0007510:	17e2                	slli	a5,a5,0x38
    c0007512:	8fd1                	or	a5,a5,a2
    c0007514:	85d6                	mv	a1,s5
    c0007516:	865a                	mv	a2,s6
    c0007518:	854a                	mv	a0,s2
    c000751a:	f6f43c23          	sd	a5,-136(s0)
    c000751e:	f8943023          	sd	s1,-128(s0)
    c0007522:	f9443423          	sd	s4,-120(s0)
    c0007526:	f8d43823          	sd	a3,-112(s0)
    c000752a:	f8e43c23          	sd	a4,-104(s0)
    c000752e:	9cefb0ef          	jal	ra,c00026fc <sbi_trap_redirect>
    c0007532:	a8d5                	j	c0007626 <sbi_misaligned_load_handler+0x1f6>
    c0007534:	007bd793          	srli	a5,s7,0x7
    c0007538:	8bfd                	andi	a5,a5,31
    c000753a:	dfc9                	beqz	a5,c00074d4 <sbi_misaligned_load_handler+0xa4>
    c000753c:	4c21                	li	s8,8
    c000753e:	4d01                	li	s10,0
    c0007540:	4c81                	li	s9,0
    c0007542:	fffc099b          	addiw	s3,s8,-1
    c0007546:	02099793          	slli	a5,s3,0x20
    c000754a:	9381                	srli	a5,a5,0x20
    c000754c:	001a0993          	addi	s3,s4,1
    c0007550:	f6043823          	sd	zero,-144(s0)
    c0007554:	99be                	add	s3,s3,a5
    c0007556:	84d2                	mv	s1,s4
    c0007558:	8526                	mv	a0,s1
    c000755a:	8656                	mv	a2,s5
    c000755c:	85da                	mv	a1,s6
    c000755e:	578000ef          	jal	ra,c0007ad6 <sbi_load_u8>
    c0007562:	414487b3          	sub	a5,s1,s4
    c0007566:	f7040693          	addi	a3,s0,-144
    c000756a:	f8043703          	ld	a4,-128(s0)
    c000756e:	97b6                	add	a5,a5,a3
    c0007570:	00a78023          	sb	a0,0(a5) # e000 <_fw_start-0xbfff2000>
    c0007574:	0485                	addi	s1,s1,1
    c0007576:	12071a63          	bnez	a4,c00076aa <sbi_misaligned_load_handler+0x27a>
    c000757a:	fc999fe3          	bne	s3,s1,c0007558 <sbi_misaligned_load_handler+0x128>
    c000757e:	004bd793          	srli	a5,s7,0x4
    c0007582:	f7043503          	ld	a0,-144(s0)
    c0007586:	0f87f793          	andi	a5,a5,248
    c000758a:	180c9063          	bnez	s9,c000770a <sbi_misaligned_load_handler+0x2da>
    c000758e:	01a51533          	sll	a0,a0,s10
    c0007592:	97ca                	add	a5,a5,s2
    c0007594:	01a55d33          	srl	s10,a0,s10
    c0007598:	01a7b023          	sd	s10,0(a5)
    c000759c:	10194703          	lbu	a4,257(s2)
    c00075a0:	10094683          	lbu	a3,256(s2)
    c00075a4:	10294783          	lbu	a5,258(s2)
    c00075a8:	10394583          	lbu	a1,259(s2)
    c00075ac:	0722                	slli	a4,a4,0x8
    c00075ae:	10494603          	lbu	a2,260(s2)
    c00075b2:	8f55                	or	a4,a4,a3
    c00075b4:	07c2                	slli	a5,a5,0x10
    c00075b6:	10594683          	lbu	a3,261(s2)
    c00075ba:	8fd9                	or	a5,a5,a4
    c00075bc:	05e2                	slli	a1,a1,0x18
    c00075be:	10694703          	lbu	a4,262(s2)
    c00075c2:	8ddd                	or	a1,a1,a5
    c00075c4:	1602                	slli	a2,a2,0x20
    c00075c6:	10794783          	lbu	a5,263(s2)
    c00075ca:	8e4d                	or	a2,a2,a1
    c00075cc:	16a2                	slli	a3,a3,0x28
    c00075ce:	8ed1                	or	a3,a3,a2
    c00075d0:	1742                	slli	a4,a4,0x30
    c00075d2:	8f55                	or	a4,a4,a3
    c00075d4:	17e2                	slli	a5,a5,0x38
    c00075d6:	003bfb93          	andi	s7,s7,3
    c00075da:	468d                	li	a3,3
    c00075dc:	8fd9                	or	a5,a5,a4
    c00075de:	4709                	li	a4,2
    c00075e0:	00db9363          	bne	s7,a3,c00075e6 <sbi_misaligned_load_handler+0x1b6>
    c00075e4:	4711                	li	a4,4
    c00075e6:	97ba                	add	a5,a5,a4
    c00075e8:	0187d51b          	srliw	a0,a5,0x18
    c00075ec:	0087d893          	srli	a7,a5,0x8
    c00075f0:	0107d813          	srli	a6,a5,0x10
    c00075f4:	0207d593          	srli	a1,a5,0x20
    c00075f8:	0287d613          	srli	a2,a5,0x28
    c00075fc:	0307d693          	srli	a3,a5,0x30
    c0007600:	0387d713          	srli	a4,a5,0x38
    c0007604:	10a901a3          	sb	a0,259(s2)
    c0007608:	10f90023          	sb	a5,256(s2)
    c000760c:	111900a3          	sb	a7,257(s2)
    c0007610:	11090123          	sb	a6,258(s2)
    c0007614:	10b90223          	sb	a1,260(s2)
    c0007618:	10c902a3          	sb	a2,261(s2)
    c000761c:	10d90323          	sb	a3,262(s2)
    c0007620:	10e903a3          	sb	a4,263(s2)
    c0007624:	4501                	li	a0,0
    c0007626:	60ea                	ld	ra,152(sp)
    c0007628:	644a                	ld	s0,144(sp)
    c000762a:	64aa                	ld	s1,136(sp)
    c000762c:	690a                	ld	s2,128(sp)
    c000762e:	79e6                	ld	s3,120(sp)
    c0007630:	7a46                	ld	s4,112(sp)
    c0007632:	7aa6                	ld	s5,104(sp)
    c0007634:	7b06                	ld	s6,96(sp)
    c0007636:	6be6                	ld	s7,88(sp)
    c0007638:	6c46                	ld	s8,80(sp)
    c000763a:	6ca6                	ld	s9,72(sp)
    c000763c:	6d06                	ld	s10,64(sp)
    c000763e:	610d                	addi	sp,sp,160
    c0007640:	8082                	ret
    c0007642:	f6e43023          	sd	a4,-160(s0)
    c0007646:	f6d43423          	sd	a3,-152(s0)
    c000764a:	1017c783          	lbu	a5,257(a5)
    c000764e:	10094503          	lbu	a0,256(s2)
    c0007652:	10294803          	lbu	a6,258(s2)
    c0007656:	10394583          	lbu	a1,259(s2)
    c000765a:	10494603          	lbu	a2,260(s2)
    c000765e:	07a2                	slli	a5,a5,0x8
    c0007660:	8fc9                	or	a5,a5,a0
    c0007662:	0842                	slli	a6,a6,0x10
    c0007664:	10594503          	lbu	a0,261(s2)
    c0007668:	00f86833          	or	a6,a6,a5
    c000766c:	05e2                	slli	a1,a1,0x18
    c000766e:	10694783          	lbu	a5,262(s2)
    c0007672:	0105e5b3          	or	a1,a1,a6
    c0007676:	1602                	slli	a2,a2,0x20
    c0007678:	10794803          	lbu	a6,263(s2)
    c000767c:	8e4d                	or	a2,a2,a1
    c000767e:	1522                	slli	a0,a0,0x28
    c0007680:	8d51                	or	a0,a0,a2
    c0007682:	17c2                	slli	a5,a5,0x30
    c0007684:	8fc9                	or	a5,a5,a0
    c0007686:	f7840a93          	addi	s5,s0,-136
    c000768a:	03881513          	slli	a0,a6,0x38
    c000768e:	8d5d                	or	a0,a0,a5
    c0007690:	8656                	mv	a2,s5
    c0007692:	85da                	mv	a1,s6
    c0007694:	00f000ef          	jal	ra,c0007ea2 <sbi_get_insn>
    c0007698:	f8043783          	ld	a5,-128(s0)
    c000769c:	8baa                	mv	s7,a0
    c000769e:	f6843683          	ld	a3,-152(s0)
    c00076a2:	f6043703          	ld	a4,-160(s0)
    c00076a6:	da078fe3          	beqz	a5,c0007464 <sbi_misaligned_load_handler+0x34>
    c00076aa:	10194703          	lbu	a4,257(s2)
    c00076ae:	10094683          	lbu	a3,256(s2)
    c00076b2:	10294783          	lbu	a5,258(s2)
    c00076b6:	10394583          	lbu	a1,259(s2)
    c00076ba:	10494603          	lbu	a2,260(s2)
    c00076be:	0722                	slli	a4,a4,0x8
    c00076c0:	8f55                	or	a4,a4,a3
    c00076c2:	07c2                	slli	a5,a5,0x10
    c00076c4:	10594683          	lbu	a3,261(s2)
    c00076c8:	8fd9                	or	a5,a5,a4
    c00076ca:	05e2                	slli	a1,a1,0x18
    c00076cc:	10694703          	lbu	a4,262(s2)
    c00076d0:	8ddd                	or	a1,a1,a5
    c00076d2:	1602                	slli	a2,a2,0x20
    c00076d4:	10794783          	lbu	a5,263(s2)
    c00076d8:	8e4d                	or	a2,a2,a1
    c00076da:	16a2                	slli	a3,a3,0x28
    c00076dc:	8ed1                	or	a3,a3,a2
    c00076de:	1742                	slli	a4,a4,0x30
    c00076e0:	8f55                	or	a4,a4,a3
    c00076e2:	17e2                	slli	a5,a5,0x38
    c00076e4:	8fd9                	or	a5,a5,a4
    c00076e6:	865a                	mv	a2,s6
    c00076e8:	85d6                	mv	a1,s5
    c00076ea:	854a                	mv	a0,s2
    c00076ec:	f6f43c23          	sd	a5,-136(s0)
    c00076f0:	80cfb0ef          	jal	ra,c00026fc <sbi_trap_redirect>
    c00076f4:	bf0d                	j	c0007626 <sbi_misaligned_load_handler+0x1f6>
    c00076f6:	007bd793          	srli	a5,s7,0x7
    c00076fa:	8bfd                	andi	a5,a5,31
    c00076fc:	dc078ce3          	beqz	a5,c00074d4 <sbi_misaligned_load_handler+0xa4>
    c0007700:	4c11                	li	s8,4
    c0007702:	02000d13          	li	s10,32
    c0007706:	4c81                	li	s9,0
    c0007708:	bd2d                	j	c0007542 <sbi_misaligned_load_handler+0x112>
    c000770a:	4721                	li	a4,8
    c000770c:	00ec0c63          	beq	s8,a4,c0007724 <sbi_misaligned_load_handler+0x2f4>
    c0007710:	00001717          	auipc	a4,0x1
    c0007714:	973e                	add	a4,a4,a5
    c0007716:	d3e702e7          	jalr	t0,-706(a4) # c000844e <put_f32_reg>
    c000771a:	b549                	j	c000759c <sbi_misaligned_load_handler+0x16c>
    c000771c:	4c21                	li	s8,8
    c000771e:	4d01                	li	s10,0
    c0007720:	4c85                	li	s9,1
    c0007722:	b505                	j	c0007542 <sbi_misaligned_load_handler+0x112>
    c0007724:	00001717          	auipc	a4,0x1
    c0007728:	973e                	add	a4,a4,a5
    c000772a:	f2a702e7          	jalr	t0,-214(a4) # c000864e <put_f64_reg>
    c000772e:	b5bd                	j	c000759c <sbi_misaligned_load_handler+0x16c>
    c0007730:	4c11                	li	s8,4
    c0007732:	4d01                	li	s10,0
    c0007734:	4c81                	li	s9,0
    c0007736:	b531                	j	c0007542 <sbi_misaligned_load_handler+0x112>
    c0007738:	4c11                	li	s8,4
    c000773a:	4d01                	li	s10,0
    c000773c:	4c85                	li	s9,1
    c000773e:	b511                	j	c0007542 <sbi_misaligned_load_handler+0x112>
    c0007740:	002bdb93          	srli	s7,s7,0x2
    c0007744:	007bfb93          	andi	s7,s7,7
    c0007748:	0ba1                	addi	s7,s7,8
    c000774a:	0b9e                	slli	s7,s7,0x7
    c000774c:	4c21                	li	s8,8
    c000774e:	4d01                	li	s10,0
    c0007750:	4c81                	li	s9,0
    c0007752:	bbc5                	j	c0007542 <sbi_misaligned_load_handler+0x112>
    c0007754:	4c09                	li	s8,2
    c0007756:	03000d13          	li	s10,48
    c000775a:	4c81                	li	s9,0
    c000775c:	b3dd                	j	c0007542 <sbi_misaligned_load_handler+0x112>
    c000775e:	4c09                	li	s8,2
    c0007760:	4d01                	li	s10,0
    c0007762:	4c81                	li	s9,0
    c0007764:	bbf9                	j	c0007542 <sbi_misaligned_load_handler+0x112>
    c0007766:	002bdb93          	srli	s7,s7,0x2
    c000776a:	007bfb93          	andi	s7,s7,7
    c000776e:	0ba1                	addi	s7,s7,8
    c0007770:	0b9e                	slli	s7,s7,0x7
    c0007772:	4c11                	li	s8,4
    c0007774:	02000d13          	li	s10,32
    c0007778:	4c81                	li	s9,0
    c000777a:	b3e1                	j	c0007542 <sbi_misaligned_load_handler+0x112>
    c000777c:	002bdb93          	srli	s7,s7,0x2
    c0007780:	007bfb93          	andi	s7,s7,7
    c0007784:	0ba1                	addi	s7,s7,8
    c0007786:	0b9e                	slli	s7,s7,0x7
    c0007788:	4c21                	li	s8,8
    c000778a:	4d01                	li	s10,0
    c000778c:	4c85                	li	s9,1
    c000778e:	bb55                	j	c0007542 <sbi_misaligned_load_handler+0x112>

00000000c0007790 <sbi_misaligned_store_handler>:
    c0007790:	7175                	addi	sp,sp,-144
    c0007792:	e122                	sd	s0,128(sp)
    c0007794:	fca6                	sd	s1,120(sp)
    c0007796:	f8ca                	sd	s2,112(sp)
    c0007798:	f4ce                	sd	s3,104(sp)
    c000779a:	e8da                	sd	s6,80(sp)
    c000779c:	e506                	sd	ra,136(sp)
    c000779e:	f0d2                	sd	s4,96(sp)
    c00077a0:	ecd6                	sd	s5,88(sp)
    c00077a2:	e4de                	sd	s7,72(sp)
    c00077a4:	0900                	addi	s0,sp,144
    c00077a6:	00177513          	andi	a0,a4,1
    c00077aa:	84ae                	mv	s1,a1
    c00077ac:	89b2                	mv	s3,a2
    c00077ae:	893e                	mv	s2,a5
    c00077b0:	8b42                	mv	s6,a6
    c00077b2:	16050a63          	beqz	a0,c0007926 <sbi_misaligned_store_handler+0x196>
    c00077b6:	00376b93          	ori	s7,a4,3
    c00077ba:	f8840a93          	addi	s5,s0,-120
    c00077be:	011bd513          	srli	a0,s7,0x11
    c00077c2:	0f857513          	andi	a0,a0,248
    c00077c6:	00a907b3          	add	a5,s2,a0
    c00077ca:	639c                	ld	a5,0(a5)
    c00077cc:	6609                	lui	a2,0x2
    c00077ce:	02360593          	addi	a1,a2,35 # 2023 <_fw_start-0xbfffdfdd>
    c00077d2:	f8f43023          	sd	a5,-128(s0)
    c00077d6:	679d                	lui	a5,0x7
    c00077d8:	07f78793          	addi	a5,a5,127 # 707f <_fw_start-0xbfff8f81>
    c00077dc:	00fbf7b3          	and	a5,s7,a5
    c00077e0:	1eb78d63          	beq	a5,a1,c00079da <sbi_misaligned_store_handler+0x24a>
    c00077e4:	658d                	lui	a1,0x3
    c00077e6:	02358813          	addi	a6,a1,35 # 3023 <_fw_start-0xbfffcfdd>
    c00077ea:	07078363          	beq	a5,a6,c0007850 <sbi_misaligned_store_handler+0xc0>
    c00077ee:	02758593          	addi	a1,a1,39
    c00077f2:	20b78563          	beq	a5,a1,c00079fc <sbi_misaligned_store_handler+0x26c>
    c00077f6:	02760613          	addi	a2,a2,39
    c00077fa:	1ec78263          	beq	a5,a2,c00079de <sbi_misaligned_store_handler+0x24e>
    c00077fe:	6605                	lui	a2,0x1
    c0007800:	02360613          	addi	a2,a2,35 # 1023 <_fw_start-0xbfffefdd>
    c0007804:	20c78563          	beq	a5,a2,c0007a0e <sbi_misaligned_store_handler+0x27e>
    c0007808:	6639                	lui	a2,0xe
    c000780a:	00360793          	addi	a5,a2,3 # e003 <_fw_start-0xbfff1ffd>
    c000780e:	00fbf7b3          	and	a5,s7,a5
    c0007812:	20c78b63          	beq	a5,a2,c0007a28 <sbi_misaligned_store_handler+0x298>
    c0007816:	0609                	addi	a2,a2,2
    c0007818:	22c78363          	beq	a5,a2,c0007a3e <sbi_misaligned_store_handler+0x2ae>
    c000781c:	6631                	lui	a2,0xc
    c000781e:	1ec78a63          	beq	a5,a2,c0007a12 <sbi_misaligned_store_handler+0x282>
    c0007822:	0609                	addi	a2,a2,2
    c0007824:	28c78163          	beq	a5,a2,c0007aa6 <sbi_misaligned_store_handler+0x316>
    c0007828:	6629                	lui	a2,0xa
    c000782a:	1cc78463          	beq	a5,a2,c00079f2 <sbi_misaligned_store_handler+0x262>
    c000782e:	6629                	lui	a2,0xa
    c0007830:	0609                	addi	a2,a2,2
    c0007832:	20c79a63          	bne	a5,a2,c0007a46 <sbi_misaligned_store_handler+0x2b6>
    c0007836:	001b9513          	slli	a0,s7,0x1
    c000783a:	0f857513          	andi	a0,a0,248
    c000783e:	4a21                	li	s4,8
    c0007840:	00001797          	auipc	a5,0x1
    c0007844:	97aa                	add	a5,a5,a0
    c0007846:	d0e782e7          	jalr	t0,-754(a5) # c000854e <get_f64_reg>
    c000784a:	f8a43023          	sd	a0,-128(s0)
    c000784e:	a011                	j	c0007852 <sbi_misaligned_store_handler+0xc2>
    c0007850:	4a21                	li	s4,8
    c0007852:	3a7d                	addiw	s4,s4,-1
    c0007854:	1a02                	slli	s4,s4,0x20
    c0007856:	020a5a13          	srli	s4,s4,0x20
    c000785a:	f8040493          	addi	s1,s0,-128
    c000785e:	f8140793          	addi	a5,s0,-127
    c0007862:	9a3e                	add	s4,s4,a5
    c0007864:	409989b3          	sub	s3,s3,s1
    c0007868:	0004c583          	lbu	a1,0(s1)
    c000786c:	00998533          	add	a0,s3,s1
    c0007870:	86d6                	mv	a3,s5
    c0007872:	865a                	mv	a2,s6
    c0007874:	418000ef          	jal	ra,c0007c8c <sbi_store_u8>
    c0007878:	f9043783          	ld	a5,-112(s0)
    c000787c:	0485                	addi	s1,s1,1
    c000787e:	10079863          	bnez	a5,c000798e <sbi_misaligned_store_handler+0x1fe>
    c0007882:	fe9a13e3          	bne	s4,s1,c0007868 <sbi_misaligned_store_handler+0xd8>
    c0007886:	10194703          	lbu	a4,257(s2)
    c000788a:	10094683          	lbu	a3,256(s2)
    c000788e:	10294783          	lbu	a5,258(s2)
    c0007892:	10394583          	lbu	a1,259(s2)
    c0007896:	0722                	slli	a4,a4,0x8
    c0007898:	10494603          	lbu	a2,260(s2)
    c000789c:	8f55                	or	a4,a4,a3
    c000789e:	07c2                	slli	a5,a5,0x10
    c00078a0:	10594683          	lbu	a3,261(s2)
    c00078a4:	8fd9                	or	a5,a5,a4
    c00078a6:	05e2                	slli	a1,a1,0x18
    c00078a8:	10694703          	lbu	a4,262(s2)
    c00078ac:	8ddd                	or	a1,a1,a5
    c00078ae:	1602                	slli	a2,a2,0x20
    c00078b0:	10794783          	lbu	a5,263(s2)
    c00078b4:	8e4d                	or	a2,a2,a1
    c00078b6:	16a2                	slli	a3,a3,0x28
    c00078b8:	8ed1                	or	a3,a3,a2
    c00078ba:	1742                	slli	a4,a4,0x30
    c00078bc:	8f55                	or	a4,a4,a3
    c00078be:	17e2                	slli	a5,a5,0x38
    c00078c0:	003bfb93          	andi	s7,s7,3
    c00078c4:	468d                	li	a3,3
    c00078c6:	8fd9                	or	a5,a5,a4
    c00078c8:	4709                	li	a4,2
    c00078ca:	00db9363          	bne	s7,a3,c00078d0 <sbi_misaligned_store_handler+0x140>
    c00078ce:	4711                	li	a4,4
    c00078d0:	97ba                	add	a5,a5,a4
    c00078d2:	0187d51b          	srliw	a0,a5,0x18
    c00078d6:	0087d893          	srli	a7,a5,0x8
    c00078da:	0107d813          	srli	a6,a5,0x10
    c00078de:	0207d593          	srli	a1,a5,0x20
    c00078e2:	0287d613          	srli	a2,a5,0x28
    c00078e6:	0307d693          	srli	a3,a5,0x30
    c00078ea:	0387d713          	srli	a4,a5,0x38
    c00078ee:	10a901a3          	sb	a0,259(s2)
    c00078f2:	10f90023          	sb	a5,256(s2)
    c00078f6:	111900a3          	sb	a7,257(s2)
    c00078fa:	11090123          	sb	a6,258(s2)
    c00078fe:	10b90223          	sb	a1,260(s2)
    c0007902:	10c902a3          	sb	a2,261(s2)
    c0007906:	10d90323          	sb	a3,262(s2)
    c000790a:	10e903a3          	sb	a4,263(s2)
    c000790e:	4501                	li	a0,0
    c0007910:	60aa                	ld	ra,136(sp)
    c0007912:	640a                	ld	s0,128(sp)
    c0007914:	74e6                	ld	s1,120(sp)
    c0007916:	7946                	ld	s2,112(sp)
    c0007918:	79a6                	ld	s3,104(sp)
    c000791a:	7a06                	ld	s4,96(sp)
    c000791c:	6ae6                	ld	s5,88(sp)
    c000791e:	6b46                	ld	s6,80(sp)
    c0007920:	6ba6                	ld	s7,72(sp)
    c0007922:	6149                	addi	sp,sp,144
    c0007924:	8082                	ret
    c0007926:	f6e43823          	sd	a4,-144(s0)
    c000792a:	f6d43c23          	sd	a3,-136(s0)
    c000792e:	1017c783          	lbu	a5,257(a5)
    c0007932:	10094503          	lbu	a0,256(s2)
    c0007936:	10294803          	lbu	a6,258(s2)
    c000793a:	10394583          	lbu	a1,259(s2)
    c000793e:	10494603          	lbu	a2,260(s2)
    c0007942:	07a2                	slli	a5,a5,0x8
    c0007944:	8fc9                	or	a5,a5,a0
    c0007946:	0842                	slli	a6,a6,0x10
    c0007948:	10594503          	lbu	a0,261(s2)
    c000794c:	00f86833          	or	a6,a6,a5
    c0007950:	05e2                	slli	a1,a1,0x18
    c0007952:	10694783          	lbu	a5,262(s2)
    c0007956:	0105e5b3          	or	a1,a1,a6
    c000795a:	1602                	slli	a2,a2,0x20
    c000795c:	10794803          	lbu	a6,263(s2)
    c0007960:	8e4d                	or	a2,a2,a1
    c0007962:	1522                	slli	a0,a0,0x28
    c0007964:	8d51                	or	a0,a0,a2
    c0007966:	17c2                	slli	a5,a5,0x30
    c0007968:	8fc9                	or	a5,a5,a0
    c000796a:	f8840a93          	addi	s5,s0,-120
    c000796e:	03881513          	slli	a0,a6,0x38
    c0007972:	8d5d                	or	a0,a0,a5
    c0007974:	8656                	mv	a2,s5
    c0007976:	85da                	mv	a1,s6
    c0007978:	52a000ef          	jal	ra,c0007ea2 <sbi_get_insn>
    c000797c:	f9043783          	ld	a5,-112(s0)
    c0007980:	8baa                	mv	s7,a0
    c0007982:	f7843683          	ld	a3,-136(s0)
    c0007986:	f7043703          	ld	a4,-144(s0)
    c000798a:	e2078ae3          	beqz	a5,c00077be <sbi_misaligned_store_handler+0x2e>
    c000798e:	10194703          	lbu	a4,257(s2)
    c0007992:	10094683          	lbu	a3,256(s2)
    c0007996:	10294783          	lbu	a5,258(s2)
    c000799a:	10394583          	lbu	a1,259(s2)
    c000799e:	10494603          	lbu	a2,260(s2)
    c00079a2:	0722                	slli	a4,a4,0x8
    c00079a4:	8f55                	or	a4,a4,a3
    c00079a6:	07c2                	slli	a5,a5,0x10
    c00079a8:	10594683          	lbu	a3,261(s2)
    c00079ac:	8fd9                	or	a5,a5,a4
    c00079ae:	05e2                	slli	a1,a1,0x18
    c00079b0:	10694703          	lbu	a4,262(s2)
    c00079b4:	8ddd                	or	a1,a1,a5
    c00079b6:	1602                	slli	a2,a2,0x20
    c00079b8:	10794783          	lbu	a5,263(s2)
    c00079bc:	8e4d                	or	a2,a2,a1
    c00079be:	16a2                	slli	a3,a3,0x28
    c00079c0:	8ed1                	or	a3,a3,a2
    c00079c2:	1742                	slli	a4,a4,0x30
    c00079c4:	8f55                	or	a4,a4,a3
    c00079c6:	17e2                	slli	a5,a5,0x38
    c00079c8:	8fd9                	or	a5,a5,a4
    c00079ca:	865a                	mv	a2,s6
    c00079cc:	85d6                	mv	a1,s5
    c00079ce:	854a                	mv	a0,s2
    c00079d0:	f8f43423          	sd	a5,-120(s0)
    c00079d4:	d29fa0ef          	jal	ra,c00026fc <sbi_trap_redirect>
    c00079d8:	bf25                	j	c0007910 <sbi_misaligned_store_handler+0x180>
    c00079da:	4a11                	li	s4,4
    c00079dc:	bd9d                	j	c0007852 <sbi_misaligned_store_handler+0xc2>
    c00079de:	00001797          	auipc	a5,0x1
    c00079e2:	97aa                	add	a5,a5,a0
    c00079e4:	970782e7          	jalr	t0,-1680(a5) # c000834e <get_f32_reg>
    c00079e8:	2501                	sext.w	a0,a0
    c00079ea:	f8a43023          	sd	a0,-128(s0)
    c00079ee:	4a11                	li	s4,4
    c00079f0:	b58d                	j	c0007852 <sbi_misaligned_store_handler+0xc2>
    c00079f2:	002bd513          	srli	a0,s7,0x2
    c00079f6:	891d                	andi	a0,a0,7
    c00079f8:	0521                	addi	a0,a0,8
    c00079fa:	050e                	slli	a0,a0,0x3
    c00079fc:	00001797          	auipc	a5,0x1
    c0007a00:	97aa                	add	a5,a5,a0
    c0007a02:	b52782e7          	jalr	t0,-1198(a5) # c000854e <get_f64_reg>
    c0007a06:	4a21                	li	s4,8
    c0007a08:	f8a43023          	sd	a0,-128(s0)
    c0007a0c:	b599                	j	c0007852 <sbi_misaligned_store_handler+0xc2>
    c0007a0e:	4a09                	li	s4,2
    c0007a10:	b589                	j	c0007852 <sbi_misaligned_store_handler+0xc2>
    c0007a12:	002bd793          	srli	a5,s7,0x2
    c0007a16:	8b9d                	andi	a5,a5,7
    c0007a18:	07a1                	addi	a5,a5,8
    c0007a1a:	078e                	slli	a5,a5,0x3
    c0007a1c:	97ca                	add	a5,a5,s2
    c0007a1e:	639c                	ld	a5,0(a5)
    c0007a20:	4a11                	li	s4,4
    c0007a22:	f8f43023          	sd	a5,-128(s0)
    c0007a26:	b535                	j	c0007852 <sbi_misaligned_store_handler+0xc2>
    c0007a28:	002bd793          	srli	a5,s7,0x2
    c0007a2c:	8b9d                	andi	a5,a5,7
    c0007a2e:	07a1                	addi	a5,a5,8
    c0007a30:	078e                	slli	a5,a5,0x3
    c0007a32:	97ca                	add	a5,a5,s2
    c0007a34:	639c                	ld	a5,0(a5)
    c0007a36:	4a21                	li	s4,8
    c0007a38:	f8f43023          	sd	a5,-128(s0)
    c0007a3c:	bd19                	j	c0007852 <sbi_misaligned_store_handler+0xc2>
    c0007a3e:	007bd793          	srli	a5,s7,0x7
    c0007a42:	8bfd                	andi	a5,a5,31
    c0007a44:	efbd                	bnez	a5,c0007ac2 <sbi_misaligned_store_handler+0x332>
    c0007a46:	10194603          	lbu	a2,257(s2)
    c0007a4a:	10094583          	lbu	a1,256(s2)
    c0007a4e:	10294783          	lbu	a5,258(s2)
    c0007a52:	10394803          	lbu	a6,259(s2)
    c0007a56:	10494503          	lbu	a0,260(s2)
    c0007a5a:	0622                	slli	a2,a2,0x8
    c0007a5c:	8e4d                	or	a2,a2,a1
    c0007a5e:	07c2                	slli	a5,a5,0x10
    c0007a60:	10594583          	lbu	a1,261(s2)
    c0007a64:	8fd1                	or	a5,a5,a2
    c0007a66:	0862                	slli	a6,a6,0x18
    c0007a68:	10694603          	lbu	a2,262(s2)
    c0007a6c:	00f86833          	or	a6,a6,a5
    c0007a70:	1502                	slli	a0,a0,0x20
    c0007a72:	10794783          	lbu	a5,263(s2)
    c0007a76:	01056533          	or	a0,a0,a6
    c0007a7a:	15a2                	slli	a1,a1,0x28
    c0007a7c:	8dc9                	or	a1,a1,a0
    c0007a7e:	1642                	slli	a2,a2,0x30
    c0007a80:	8e4d                	or	a2,a2,a1
    c0007a82:	17e2                	slli	a5,a5,0x38
    c0007a84:	8fd1                	or	a5,a5,a2
    c0007a86:	85d6                	mv	a1,s5
    c0007a88:	865a                	mv	a2,s6
    c0007a8a:	854a                	mv	a0,s2
    c0007a8c:	f8f43423          	sd	a5,-120(s0)
    c0007a90:	f8943823          	sd	s1,-112(s0)
    c0007a94:	f9343c23          	sd	s3,-104(s0)
    c0007a98:	fad43023          	sd	a3,-96(s0)
    c0007a9c:	fae43423          	sd	a4,-88(s0)
    c0007aa0:	c5dfa0ef          	jal	ra,c00026fc <sbi_trap_redirect>
    c0007aa4:	b5b5                	j	c0007910 <sbi_misaligned_store_handler+0x180>
    c0007aa6:	007bd793          	srli	a5,s7,0x7
    c0007aaa:	8bfd                	andi	a5,a5,31
    c0007aac:	dfc9                	beqz	a5,c0007a46 <sbi_misaligned_store_handler+0x2b6>
    c0007aae:	001b9793          	slli	a5,s7,0x1
    c0007ab2:	0f87f793          	andi	a5,a5,248
    c0007ab6:	97ca                	add	a5,a5,s2
    c0007ab8:	639c                	ld	a5,0(a5)
    c0007aba:	4a11                	li	s4,4
    c0007abc:	f8f43023          	sd	a5,-128(s0)
    c0007ac0:	bb49                	j	c0007852 <sbi_misaligned_store_handler+0xc2>
    c0007ac2:	001b9793          	slli	a5,s7,0x1
    c0007ac6:	0f87f793          	andi	a5,a5,248
    c0007aca:	97ca                	add	a5,a5,s2
    c0007acc:	639c                	ld	a5,0(a5)
    c0007ace:	4a21                	li	s4,8
    c0007ad0:	f8f43023          	sd	a5,-128(s0)
    c0007ad4:	bbbd                	j	c0007852 <sbi_misaligned_store_handler+0xc2>

00000000c0007ad6 <sbi_load_u8>:
    c0007ad6:	1101                	addi	sp,sp,-32
    c0007ad8:	e822                	sd	s0,16(sp)
    c0007ada:	e426                	sd	s1,8(sp)
    c0007adc:	e04a                	sd	s2,0(sp)
    c0007ade:	ec06                	sd	ra,24(sp)
    c0007ae0:	1000                	addi	s0,sp,32
    c0007ae2:	892e                	mv	s2,a1
    c0007ae4:	84aa                	mv	s1,a0
    c0007ae6:	00063023          	sd	zero,0(a2) # a000 <_fw_start-0xbfff6000>
    c0007aea:	00063423          	sd	zero,8(a2)
    c0007aee:	00063823          	sd	zero,16(a2)
    c0007af2:	00063c23          	sd	zero,24(a2)
    c0007af6:	02063023          	sd	zero,32(a2)
    c0007afa:	85b2                	mv	a1,a2
    c0007afc:	854a                	mv	a0,s2
    c0007afe:	828ff0ef          	jal	ra,c0006b26 <sbi_hart_set_trap_info>
    c0007b02:	000207b7          	lui	a5,0x20
    c0007b06:	3007a673          	csrrs	a2,mstatus,a5
    c0007b0a:	0004c703          	lbu	a4,0(s1)
    c0007b0e:	30061073          	csrw	mstatus,a2
    c0007b12:	4581                	li	a1,0
    c0007b14:	854a                	mv	a0,s2
    c0007b16:	0ff77493          	andi	s1,a4,255
    c0007b1a:	80cff0ef          	jal	ra,c0006b26 <sbi_hart_set_trap_info>
    c0007b1e:	60e2                	ld	ra,24(sp)
    c0007b20:	6442                	ld	s0,16(sp)
    c0007b22:	8526                	mv	a0,s1
    c0007b24:	6902                	ld	s2,0(sp)
    c0007b26:	64a2                	ld	s1,8(sp)
    c0007b28:	6105                	addi	sp,sp,32
    c0007b2a:	8082                	ret

00000000c0007b2c <sbi_load_u16>:
    c0007b2c:	1101                	addi	sp,sp,-32
    c0007b2e:	e822                	sd	s0,16(sp)
    c0007b30:	e426                	sd	s1,8(sp)
    c0007b32:	e04a                	sd	s2,0(sp)
    c0007b34:	ec06                	sd	ra,24(sp)
    c0007b36:	1000                	addi	s0,sp,32
    c0007b38:	892e                	mv	s2,a1
    c0007b3a:	84aa                	mv	s1,a0
    c0007b3c:	00063023          	sd	zero,0(a2)
    c0007b40:	00063423          	sd	zero,8(a2)
    c0007b44:	00063823          	sd	zero,16(a2)
    c0007b48:	00063c23          	sd	zero,24(a2)
    c0007b4c:	02063023          	sd	zero,32(a2)
    c0007b50:	85b2                	mv	a1,a2
    c0007b52:	854a                	mv	a0,s2
    c0007b54:	fd3fe0ef          	jal	ra,c0006b26 <sbi_hart_set_trap_info>
    c0007b58:	000207b7          	lui	a5,0x20
    c0007b5c:	3007a673          	csrrs	a2,mstatus,a5
    c0007b60:	0004d703          	lhu	a4,0(s1)
    c0007b64:	30061073          	csrw	mstatus,a2
    c0007b68:	4581                	li	a1,0
    c0007b6a:	854a                	mv	a0,s2
    c0007b6c:	84ba                	mv	s1,a4
    c0007b6e:	fb9fe0ef          	jal	ra,c0006b26 <sbi_hart_set_trap_info>
    c0007b72:	60e2                	ld	ra,24(sp)
    c0007b74:	6442                	ld	s0,16(sp)
    c0007b76:	14c2                	slli	s1,s1,0x30
    c0007b78:	90c1                	srli	s1,s1,0x30
    c0007b7a:	8526                	mv	a0,s1
    c0007b7c:	6902                	ld	s2,0(sp)
    c0007b7e:	64a2                	ld	s1,8(sp)
    c0007b80:	6105                	addi	sp,sp,32
    c0007b82:	8082                	ret

00000000c0007b84 <sbi_load_s8>:
    c0007b84:	1101                	addi	sp,sp,-32
    c0007b86:	e822                	sd	s0,16(sp)
    c0007b88:	e426                	sd	s1,8(sp)
    c0007b8a:	e04a                	sd	s2,0(sp)
    c0007b8c:	ec06                	sd	ra,24(sp)
    c0007b8e:	1000                	addi	s0,sp,32
    c0007b90:	892e                	mv	s2,a1
    c0007b92:	84aa                	mv	s1,a0
    c0007b94:	00063023          	sd	zero,0(a2)
    c0007b98:	00063423          	sd	zero,8(a2)
    c0007b9c:	00063823          	sd	zero,16(a2)
    c0007ba0:	00063c23          	sd	zero,24(a2)
    c0007ba4:	02063023          	sd	zero,32(a2)
    c0007ba8:	85b2                	mv	a1,a2
    c0007baa:	854a                	mv	a0,s2
    c0007bac:	f7bfe0ef          	jal	ra,c0006b26 <sbi_hart_set_trap_info>
    c0007bb0:	000207b7          	lui	a5,0x20
    c0007bb4:	3007a673          	csrrs	a2,mstatus,a5
    c0007bb8:	00048703          	lb	a4,0(s1)
    c0007bbc:	30061073          	csrw	mstatus,a2
    c0007bc0:	4581                	li	a1,0
    c0007bc2:	854a                	mv	a0,s2
    c0007bc4:	0ff77493          	andi	s1,a4,255
    c0007bc8:	f5ffe0ef          	jal	ra,c0006b26 <sbi_hart_set_trap_info>
    c0007bcc:	60e2                	ld	ra,24(sp)
    c0007bce:	6442                	ld	s0,16(sp)
    c0007bd0:	8526                	mv	a0,s1
    c0007bd2:	6902                	ld	s2,0(sp)
    c0007bd4:	64a2                	ld	s1,8(sp)
    c0007bd6:	6105                	addi	sp,sp,32
    c0007bd8:	8082                	ret

00000000c0007bda <sbi_load_s16>:
    c0007bda:	1101                	addi	sp,sp,-32
    c0007bdc:	e822                	sd	s0,16(sp)
    c0007bde:	e426                	sd	s1,8(sp)
    c0007be0:	e04a                	sd	s2,0(sp)
    c0007be2:	ec06                	sd	ra,24(sp)
    c0007be4:	1000                	addi	s0,sp,32
    c0007be6:	892e                	mv	s2,a1
    c0007be8:	84aa                	mv	s1,a0
    c0007bea:	00063023          	sd	zero,0(a2)
    c0007bee:	00063423          	sd	zero,8(a2)
    c0007bf2:	00063823          	sd	zero,16(a2)
    c0007bf6:	00063c23          	sd	zero,24(a2)
    c0007bfa:	02063023          	sd	zero,32(a2)
    c0007bfe:	85b2                	mv	a1,a2
    c0007c00:	854a                	mv	a0,s2
    c0007c02:	f25fe0ef          	jal	ra,c0006b26 <sbi_hart_set_trap_info>
    c0007c06:	000207b7          	lui	a5,0x20
    c0007c0a:	3007a673          	csrrs	a2,mstatus,a5
    c0007c0e:	00049703          	lh	a4,0(s1)
    c0007c12:	30061073          	csrw	mstatus,a2
    c0007c16:	4581                	li	a1,0
    c0007c18:	854a                	mv	a0,s2
    c0007c1a:	84ba                	mv	s1,a4
    c0007c1c:	f0bfe0ef          	jal	ra,c0006b26 <sbi_hart_set_trap_info>
    c0007c20:	60e2                	ld	ra,24(sp)
    c0007c22:	6442                	ld	s0,16(sp)
    c0007c24:	0104949b          	slliw	s1,s1,0x10
    c0007c28:	4104d49b          	sraiw	s1,s1,0x10
    c0007c2c:	8526                	mv	a0,s1
    c0007c2e:	6902                	ld	s2,0(sp)
    c0007c30:	64a2                	ld	s1,8(sp)
    c0007c32:	6105                	addi	sp,sp,32
    c0007c34:	8082                	ret

00000000c0007c36 <sbi_load_s32>:
    c0007c36:	1101                	addi	sp,sp,-32
    c0007c38:	e822                	sd	s0,16(sp)
    c0007c3a:	e426                	sd	s1,8(sp)
    c0007c3c:	e04a                	sd	s2,0(sp)
    c0007c3e:	ec06                	sd	ra,24(sp)
    c0007c40:	1000                	addi	s0,sp,32
    c0007c42:	892e                	mv	s2,a1
    c0007c44:	84aa                	mv	s1,a0
    c0007c46:	00063023          	sd	zero,0(a2)
    c0007c4a:	00063423          	sd	zero,8(a2)
    c0007c4e:	00063823          	sd	zero,16(a2)
    c0007c52:	00063c23          	sd	zero,24(a2)
    c0007c56:	02063023          	sd	zero,32(a2)
    c0007c5a:	85b2                	mv	a1,a2
    c0007c5c:	854a                	mv	a0,s2
    c0007c5e:	ec9fe0ef          	jal	ra,c0006b26 <sbi_hart_set_trap_info>
    c0007c62:	000207b7          	lui	a5,0x20
    c0007c66:	3007a673          	csrrs	a2,mstatus,a5
    c0007c6a:	0004a703          	lw	a4,0(s1)
    c0007c6e:	30061073          	csrw	mstatus,a2
    c0007c72:	4581                	li	a1,0
    c0007c74:	854a                	mv	a0,s2
    c0007c76:	0007049b          	sext.w	s1,a4
    c0007c7a:	eadfe0ef          	jal	ra,c0006b26 <sbi_hart_set_trap_info>
    c0007c7e:	60e2                	ld	ra,24(sp)
    c0007c80:	6442                	ld	s0,16(sp)
    c0007c82:	8526                	mv	a0,s1
    c0007c84:	6902                	ld	s2,0(sp)
    c0007c86:	64a2                	ld	s1,8(sp)
    c0007c88:	6105                	addi	sp,sp,32
    c0007c8a:	8082                	ret

00000000c0007c8c <sbi_store_u8>:
    c0007c8c:	7179                	addi	sp,sp,-48
    c0007c8e:	f022                	sd	s0,32(sp)
    c0007c90:	ec26                	sd	s1,24(sp)
    c0007c92:	e84a                	sd	s2,16(sp)
    c0007c94:	e44e                	sd	s3,8(sp)
    c0007c96:	f406                	sd	ra,40(sp)
    c0007c98:	1800                	addi	s0,sp,48
    c0007c9a:	89aa                	mv	s3,a0
    c0007c9c:	892e                	mv	s2,a1
    c0007c9e:	0006b023          	sd	zero,0(a3)
    c0007ca2:	0006b423          	sd	zero,8(a3)
    c0007ca6:	0006b823          	sd	zero,16(a3)
    c0007caa:	0006bc23          	sd	zero,24(a3)
    c0007cae:	0206b023          	sd	zero,32(a3)
    c0007cb2:	85b6                	mv	a1,a3
    c0007cb4:	8532                	mv	a0,a2
    c0007cb6:	84b2                	mv	s1,a2
    c0007cb8:	e6ffe0ef          	jal	ra,c0006b26 <sbi_hart_set_trap_info>
    c0007cbc:	000207b7          	lui	a5,0x20
    c0007cc0:	3007a6f3          	csrrs	a3,mstatus,a5
    c0007cc4:	01298023          	sb	s2,0(s3)
    c0007cc8:	30069073          	csrw	mstatus,a3
    c0007ccc:	4581                	li	a1,0
    c0007cce:	8526                	mv	a0,s1
    c0007cd0:	e57fe0ef          	jal	ra,c0006b26 <sbi_hart_set_trap_info>
    c0007cd4:	70a2                	ld	ra,40(sp)
    c0007cd6:	7402                	ld	s0,32(sp)
    c0007cd8:	64e2                	ld	s1,24(sp)
    c0007cda:	6942                	ld	s2,16(sp)
    c0007cdc:	69a2                	ld	s3,8(sp)
    c0007cde:	6145                	addi	sp,sp,48
    c0007ce0:	8082                	ret

00000000c0007ce2 <sbi_store_u16>:
    c0007ce2:	7179                	addi	sp,sp,-48
    c0007ce4:	f022                	sd	s0,32(sp)
    c0007ce6:	ec26                	sd	s1,24(sp)
    c0007ce8:	e84a                	sd	s2,16(sp)
    c0007cea:	e44e                	sd	s3,8(sp)
    c0007cec:	f406                	sd	ra,40(sp)
    c0007cee:	1800                	addi	s0,sp,48
    c0007cf0:	89aa                	mv	s3,a0
    c0007cf2:	892e                	mv	s2,a1
    c0007cf4:	0006b023          	sd	zero,0(a3)
    c0007cf8:	0006b423          	sd	zero,8(a3)
    c0007cfc:	0006b823          	sd	zero,16(a3)
    c0007d00:	0006bc23          	sd	zero,24(a3)
    c0007d04:	0206b023          	sd	zero,32(a3)
    c0007d08:	85b6                	mv	a1,a3
    c0007d0a:	8532                	mv	a0,a2
    c0007d0c:	84b2                	mv	s1,a2
    c0007d0e:	e19fe0ef          	jal	ra,c0006b26 <sbi_hart_set_trap_info>
    c0007d12:	000207b7          	lui	a5,0x20
    c0007d16:	3007a6f3          	csrrs	a3,mstatus,a5
    c0007d1a:	01299023          	sh	s2,0(s3)
    c0007d1e:	30069073          	csrw	mstatus,a3
    c0007d22:	4581                	li	a1,0
    c0007d24:	8526                	mv	a0,s1
    c0007d26:	e01fe0ef          	jal	ra,c0006b26 <sbi_hart_set_trap_info>
    c0007d2a:	70a2                	ld	ra,40(sp)
    c0007d2c:	7402                	ld	s0,32(sp)
    c0007d2e:	64e2                	ld	s1,24(sp)
    c0007d30:	6942                	ld	s2,16(sp)
    c0007d32:	69a2                	ld	s3,8(sp)
    c0007d34:	6145                	addi	sp,sp,48
    c0007d36:	8082                	ret

00000000c0007d38 <sbi_store_u32>:
    c0007d38:	7179                	addi	sp,sp,-48
    c0007d3a:	f022                	sd	s0,32(sp)
    c0007d3c:	ec26                	sd	s1,24(sp)
    c0007d3e:	e84a                	sd	s2,16(sp)
    c0007d40:	e44e                	sd	s3,8(sp)
    c0007d42:	f406                	sd	ra,40(sp)
    c0007d44:	1800                	addi	s0,sp,48
    c0007d46:	89aa                	mv	s3,a0
    c0007d48:	892e                	mv	s2,a1
    c0007d4a:	0006b023          	sd	zero,0(a3)
    c0007d4e:	0006b423          	sd	zero,8(a3)
    c0007d52:	0006b823          	sd	zero,16(a3)
    c0007d56:	0006bc23          	sd	zero,24(a3)
    c0007d5a:	0206b023          	sd	zero,32(a3)
    c0007d5e:	85b6                	mv	a1,a3
    c0007d60:	8532                	mv	a0,a2
    c0007d62:	84b2                	mv	s1,a2
    c0007d64:	dc3fe0ef          	jal	ra,c0006b26 <sbi_hart_set_trap_info>
    c0007d68:	000207b7          	lui	a5,0x20
    c0007d6c:	3007a6f3          	csrrs	a3,mstatus,a5
    c0007d70:	0129a023          	sw	s2,0(s3)
    c0007d74:	30069073          	csrw	mstatus,a3
    c0007d78:	4581                	li	a1,0
    c0007d7a:	8526                	mv	a0,s1
    c0007d7c:	dabfe0ef          	jal	ra,c0006b26 <sbi_hart_set_trap_info>
    c0007d80:	70a2                	ld	ra,40(sp)
    c0007d82:	7402                	ld	s0,32(sp)
    c0007d84:	64e2                	ld	s1,24(sp)
    c0007d86:	6942                	ld	s2,16(sp)
    c0007d88:	69a2                	ld	s3,8(sp)
    c0007d8a:	6145                	addi	sp,sp,48
    c0007d8c:	8082                	ret

00000000c0007d8e <sbi_load_u32>:
    c0007d8e:	1101                	addi	sp,sp,-32
    c0007d90:	e822                	sd	s0,16(sp)
    c0007d92:	e426                	sd	s1,8(sp)
    c0007d94:	e04a                	sd	s2,0(sp)
    c0007d96:	ec06                	sd	ra,24(sp)
    c0007d98:	1000                	addi	s0,sp,32
    c0007d9a:	892e                	mv	s2,a1
    c0007d9c:	84aa                	mv	s1,a0
    c0007d9e:	00063023          	sd	zero,0(a2)
    c0007da2:	00063423          	sd	zero,8(a2)
    c0007da6:	00063823          	sd	zero,16(a2)
    c0007daa:	00063c23          	sd	zero,24(a2)
    c0007dae:	02063023          	sd	zero,32(a2)
    c0007db2:	85b2                	mv	a1,a2
    c0007db4:	854a                	mv	a0,s2
    c0007db6:	d71fe0ef          	jal	ra,c0006b26 <sbi_hart_set_trap_info>
    c0007dba:	000207b7          	lui	a5,0x20
    c0007dbe:	3007a673          	csrrs	a2,mstatus,a5
    c0007dc2:	0004e703          	lwu	a4,0(s1)
    c0007dc6:	30061073          	csrw	mstatus,a2
    c0007dca:	4581                	li	a1,0
    c0007dcc:	854a                	mv	a0,s2
    c0007dce:	0007049b          	sext.w	s1,a4
    c0007dd2:	d55fe0ef          	jal	ra,c0006b26 <sbi_hart_set_trap_info>
    c0007dd6:	60e2                	ld	ra,24(sp)
    c0007dd8:	6442                	ld	s0,16(sp)
    c0007dda:	8526                	mv	a0,s1
    c0007ddc:	6902                	ld	s2,0(sp)
    c0007dde:	64a2                	ld	s1,8(sp)
    c0007de0:	6105                	addi	sp,sp,32
    c0007de2:	8082                	ret

00000000c0007de4 <sbi_load_u64>:
    c0007de4:	1101                	addi	sp,sp,-32
    c0007de6:	e822                	sd	s0,16(sp)
    c0007de8:	e426                	sd	s1,8(sp)
    c0007dea:	e04a                	sd	s2,0(sp)
    c0007dec:	ec06                	sd	ra,24(sp)
    c0007dee:	1000                	addi	s0,sp,32
    c0007df0:	84ae                	mv	s1,a1
    c0007df2:	892a                	mv	s2,a0
    c0007df4:	00063023          	sd	zero,0(a2)
    c0007df8:	00063423          	sd	zero,8(a2)
    c0007dfc:	00063823          	sd	zero,16(a2)
    c0007e00:	00063c23          	sd	zero,24(a2)
    c0007e04:	02063023          	sd	zero,32(a2)
    c0007e08:	85b2                	mv	a1,a2
    c0007e0a:	8526                	mv	a0,s1
    c0007e0c:	d1bfe0ef          	jal	ra,c0006b26 <sbi_hart_set_trap_info>
    c0007e10:	000207b7          	lui	a5,0x20
    c0007e14:	3007a673          	csrrs	a2,mstatus,a5
    c0007e18:	00093703          	ld	a4,0(s2)
    c0007e1c:	30061073          	csrw	mstatus,a2
    c0007e20:	4581                	li	a1,0
    c0007e22:	8526                	mv	a0,s1
    c0007e24:	893a                	mv	s2,a4
    c0007e26:	d01fe0ef          	jal	ra,c0006b26 <sbi_hart_set_trap_info>
    c0007e2a:	60e2                	ld	ra,24(sp)
    c0007e2c:	6442                	ld	s0,16(sp)
    c0007e2e:	854a                	mv	a0,s2
    c0007e30:	64a2                	ld	s1,8(sp)
    c0007e32:	6902                	ld	s2,0(sp)
    c0007e34:	6105                	addi	sp,sp,32
    c0007e36:	8082                	ret

00000000c0007e38 <sbi_store_u64>:
    c0007e38:	7179                	addi	sp,sp,-48
    c0007e3a:	f022                	sd	s0,32(sp)
    c0007e3c:	ec26                	sd	s1,24(sp)
    c0007e3e:	e84a                	sd	s2,16(sp)
    c0007e40:	e44e                	sd	s3,8(sp)
    c0007e42:	f406                	sd	ra,40(sp)
    c0007e44:	1800                	addi	s0,sp,48
    c0007e46:	89aa                	mv	s3,a0
    c0007e48:	892e                	mv	s2,a1
    c0007e4a:	0006b023          	sd	zero,0(a3)
    c0007e4e:	0006b423          	sd	zero,8(a3)
    c0007e52:	0006b823          	sd	zero,16(a3)
    c0007e56:	0006bc23          	sd	zero,24(a3)
    c0007e5a:	0206b023          	sd	zero,32(a3)
    c0007e5e:	85b6                	mv	a1,a3
    c0007e60:	8532                	mv	a0,a2
    c0007e62:	84b2                	mv	s1,a2
    c0007e64:	cc3fe0ef          	jal	ra,c0006b26 <sbi_hart_set_trap_info>
    c0007e68:	000207b7          	lui	a5,0x20
    c0007e6c:	3007a6f3          	csrrs	a3,mstatus,a5
    c0007e70:	0129b023          	sd	s2,0(s3)
    c0007e74:	30069073          	csrw	mstatus,a3
    c0007e78:	4581                	li	a1,0
    c0007e7a:	8526                	mv	a0,s1
    c0007e7c:	cabfe0ef          	jal	ra,c0006b26 <sbi_hart_set_trap_info>
    c0007e80:	70a2                	ld	ra,40(sp)
    c0007e82:	7402                	ld	s0,32(sp)
    c0007e84:	64e2                	ld	s1,24(sp)
    c0007e86:	6942                	ld	s2,16(sp)
    c0007e88:	69a2                	ld	s3,8(sp)
    c0007e8a:	6145                	addi	sp,sp,48
    c0007e8c:	8082                	ret

00000000c0007e8e <sbi_load_ulong>:
    c0007e8e:	1141                	addi	sp,sp,-16
    c0007e90:	e022                	sd	s0,0(sp)
    c0007e92:	e406                	sd	ra,8(sp)
    c0007e94:	0800                	addi	s0,sp,16
    c0007e96:	f4fff0ef          	jal	ra,c0007de4 <sbi_load_u64>
    c0007e9a:	60a2                	ld	ra,8(sp)
    c0007e9c:	6402                	ld	s0,0(sp)
    c0007e9e:	0141                	addi	sp,sp,16
    c0007ea0:	8082                	ret

00000000c0007ea2 <sbi_get_insn>:
    c0007ea2:	7179                	addi	sp,sp,-48
    c0007ea4:	f406                	sd	ra,40(sp)
    c0007ea6:	f022                	sd	s0,32(sp)
    c0007ea8:	ec26                	sd	s1,24(sp)
    c0007eaa:	e84a                	sd	s2,16(sp)
    c0007eac:	e44e                	sd	s3,8(sp)
    c0007eae:	1800                	addi	s0,sp,48
    c0007eb0:	89ae                	mv	s3,a1
    c0007eb2:	892a                	mv	s2,a0
    c0007eb4:	85b2                	mv	a1,a2
    c0007eb6:	854e                	mv	a0,s3
    c0007eb8:	00063023          	sd	zero,0(a2)
    c0007ebc:	00063423          	sd	zero,8(a2)
    c0007ec0:	00063823          	sd	zero,16(a2)
    c0007ec4:	00063c23          	sd	zero,24(a2)
    c0007ec8:	02063023          	sd	zero,32(a2)
    c0007ecc:	84b2                	mv	s1,a2
    c0007ece:	c59fe0ef          	jal	ra,c0006b26 <sbi_hart_set_trap_info>
    c0007ed2:	000a0737          	lui	a4,0xa0
    c0007ed6:	854e                	mv	a0,s3
    c0007ed8:	468d                	li	a3,3
    c0007eda:	4581                	li	a1,0
    c0007edc:	4781                	li	a5,0
    c0007ede:	300727f3          	csrrs	a5,mstatus,a4
    c0007ee2:	00095983          	lhu	s3,0(s2)
    c0007ee6:	00d9f633          	and	a2,s3,a3
    c0007eea:	00d61663          	bne	a2,a3,c0007ef6 <sbi_get_insn+0x54>
    c0007eee:	00295603          	lhu	a2,2(s2)
    c0007ef2:	0642                	slli	a2,a2,0x10
    c0007ef4:	99b2                	add	s3,s3,a2
    c0007ef6:	30079073          	csrw	mstatus,a5
    c0007efa:	c2dfe0ef          	jal	ra,c0006b26 <sbi_hart_set_trap_info>
    c0007efe:	649c                	ld	a5,8(s1)
    c0007f00:	4735                	li	a4,13
    c0007f02:	02e78063          	beq	a5,a4,c0007f22 <sbi_get_insn+0x80>
    c0007f06:	4755                	li	a4,21
    c0007f08:	04e78563          	beq	a5,a4,c0007f52 <sbi_get_insn+0xb0>
    c0007f0c:	4715                	li	a4,5
    c0007f0e:	02e78663          	beq	a5,a4,c0007f3a <sbi_get_insn+0x98>
    c0007f12:	70a2                	ld	ra,40(sp)
    c0007f14:	7402                	ld	s0,32(sp)
    c0007f16:	854e                	mv	a0,s3
    c0007f18:	64e2                	ld	s1,24(sp)
    c0007f1a:	6942                	ld	s2,16(sp)
    c0007f1c:	69a2                	ld	s3,8(sp)
    c0007f1e:	6145                	addi	sp,sp,48
    c0007f20:	8082                	ret
    c0007f22:	47b1                	li	a5,12
    c0007f24:	e49c                	sd	a5,8(s1)
    c0007f26:	0124b823          	sd	s2,16(s1)
    c0007f2a:	70a2                	ld	ra,40(sp)
    c0007f2c:	7402                	ld	s0,32(sp)
    c0007f2e:	854e                	mv	a0,s3
    c0007f30:	64e2                	ld	s1,24(sp)
    c0007f32:	6942                	ld	s2,16(sp)
    c0007f34:	69a2                	ld	s3,8(sp)
    c0007f36:	6145                	addi	sp,sp,48
    c0007f38:	8082                	ret
    c0007f3a:	4785                	li	a5,1
    c0007f3c:	e49c                	sd	a5,8(s1)
    c0007f3e:	0124b823          	sd	s2,16(s1)
    c0007f42:	70a2                	ld	ra,40(sp)
    c0007f44:	7402                	ld	s0,32(sp)
    c0007f46:	854e                	mv	a0,s3
    c0007f48:	64e2                	ld	s1,24(sp)
    c0007f4a:	6942                	ld	s2,16(sp)
    c0007f4c:	69a2                	ld	s3,8(sp)
    c0007f4e:	6145                	addi	sp,sp,48
    c0007f50:	8082                	ret
    c0007f52:	47d1                	li	a5,20
    c0007f54:	e49c                	sd	a5,8(s1)
    c0007f56:	0124b823          	sd	s2,16(s1)
    c0007f5a:	70a2                	ld	ra,40(sp)
    c0007f5c:	7402                	ld	s0,32(sp)
    c0007f5e:	854e                	mv	a0,s3
    c0007f60:	64e2                	ld	s1,24(sp)
    c0007f62:	6942                	ld	s2,16(sp)
    c0007f64:	69a2                	ld	s3,8(sp)
    c0007f66:	6145                	addi	sp,sp,48
    c0007f68:	8082                	ret

00000000c0007f6a <clint_time_rd64>:
    c0007f6a:	1141                	addi	sp,sp,-16
    c0007f6c:	e422                	sd	s0,8(sp)
    c0007f6e:	0800                	addi	s0,sp,16
    c0007f70:	6108                	ld	a0,0(a0)
    c0007f72:	6422                	ld	s0,8(sp)
    c0007f74:	0141                	addi	sp,sp,16
    c0007f76:	8082                	ret

00000000c0007f78 <clint_time_wr64>:
    c0007f78:	1141                	addi	sp,sp,-16
    c0007f7a:	e422                	sd	s0,8(sp)
    c0007f7c:	0800                	addi	s0,sp,16
    c0007f7e:	e188                	sd	a0,0(a1)
    c0007f80:	6422                	ld	s0,8(sp)
    c0007f82:	0141                	addi	sp,sp,16
    c0007f84:	8082                	ret

00000000c0007f86 <clint_time_rd32>:
    c0007f86:	1141                	addi	sp,sp,-16
    c0007f88:	e422                	sd	s0,8(sp)
    c0007f8a:	0800                	addi	s0,sp,16
    c0007f8c:	00450613          	addi	a2,a0,4
    c0007f90:	4218                	lw	a4,0(a2)
    c0007f92:	2701                	sext.w	a4,a4
    c0007f94:	411c                	lw	a5,0(a0)
    c0007f96:	0007869b          	sext.w	a3,a5
    c0007f9a:	421c                	lw	a5,0(a2)
    c0007f9c:	2781                	sext.w	a5,a5
    c0007f9e:	fee799e3          	bne	a5,a4,c0007f90 <clint_time_rd32+0xa>
    c0007fa2:	6422                	ld	s0,8(sp)
    c0007fa4:	02069513          	slli	a0,a3,0x20
    c0007fa8:	1782                	slli	a5,a5,0x20
    c0007faa:	9101                	srli	a0,a0,0x20
    c0007fac:	8d5d                	or	a0,a0,a5
    c0007fae:	0141                	addi	sp,sp,16
    c0007fb0:	8082                	ret

00000000c0007fb2 <clint_time_wr32>:
    c0007fb2:	1141                	addi	sp,sp,-16
    c0007fb4:	e422                	sd	s0,8(sp)
    c0007fb6:	0800                	addi	s0,sp,16
    c0007fb8:	c188                	sw	a0,0(a1)
    c0007fba:	9101                	srli	a0,a0,0x20
    c0007fbc:	0591                	addi	a1,a1,4
    c0007fbe:	c188                	sw	a0,0(a1)
    c0007fc0:	6422                	ld	s0,8(sp)
    c0007fc2:	0141                	addi	sp,sp,16
    c0007fc4:	8082                	ret

00000000c0007fc6 <clint_ipi_send>:
    c0007fc6:	1141                	addi	sp,sp,-16
    c0007fc8:	e422                	sd	s0,8(sp)
    c0007fca:	0800                	addi	s0,sp,16
    c0007fcc:	00003797          	auipc	a5,0x3
    c0007fd0:	13c78793          	addi	a5,a5,316 # c000b108 <clint_ipi_hart_count>
    c0007fd4:	4398                	lw	a4,0(a5)
    c0007fd6:	00e57a63          	bgeu	a0,a4,c0007fea <clint_ipi_send+0x24>
    c0007fda:	0140000f          	fence	w,o
    c0007fde:	679c                	ld	a5,8(a5)
    c0007fe0:	1502                	slli	a0,a0,0x20
    c0007fe2:	8179                	srli	a0,a0,0x1e
    c0007fe4:	953e                	add	a0,a0,a5
    c0007fe6:	4785                	li	a5,1
    c0007fe8:	c11c                	sw	a5,0(a0)
    c0007fea:	6422                	ld	s0,8(sp)
    c0007fec:	0141                	addi	sp,sp,16
    c0007fee:	8082                	ret

00000000c0007ff0 <clint_ipi_clear>:
    c0007ff0:	1141                	addi	sp,sp,-16
    c0007ff2:	e422                	sd	s0,8(sp)
    c0007ff4:	0800                	addi	s0,sp,16
    c0007ff6:	00003797          	auipc	a5,0x3
    c0007ffa:	11278793          	addi	a5,a5,274 # c000b108 <clint_ipi_hart_count>
    c0007ffe:	4398                	lw	a4,0(a5)
    c0008000:	00e57a63          	bgeu	a0,a4,c0008014 <clint_ipi_clear+0x24>
    c0008004:	0140000f          	fence	w,o
    c0008008:	679c                	ld	a5,8(a5)
    c000800a:	1502                	slli	a0,a0,0x20
    c000800c:	8179                	srli	a0,a0,0x1e
    c000800e:	953e                	add	a0,a0,a5
    c0008010:	4781                	li	a5,0
    c0008012:	c11c                	sw	a5,0(a0)
    c0008014:	6422                	ld	s0,8(sp)
    c0008016:	0141                	addi	sp,sp,16
    c0008018:	8082                	ret

00000000c000801a <clint_warm_ipi_init>:
    c000801a:	1141                	addi	sp,sp,-16
    c000801c:	e022                	sd	s0,0(sp)
    c000801e:	e406                	sd	ra,8(sp)
    c0008020:	0800                	addi	s0,sp,16
    c0008022:	cd4fe0ef          	jal	ra,c00064f6 <sbi_current_hartid>
    c0008026:	00003717          	auipc	a4,0x3
    c000802a:	0e270713          	addi	a4,a4,226 # c000b108 <clint_ipi_hart_count>
    c000802e:	6b14                	ld	a3,16(a4)
    c0008030:	c29d                	beqz	a3,c0008056 <clint_warm_ipi_init+0x3c>
    c0008032:	4314                	lw	a3,0(a4)
    c0008034:	0005079b          	sext.w	a5,a0
    c0008038:	4501                	li	a0,0
    c000803a:	00d7fa63          	bgeu	a5,a3,c000804e <clint_warm_ipi_init+0x34>
    c000803e:	0140000f          	fence	w,o
    c0008042:	6718                	ld	a4,8(a4)
    c0008044:	1782                	slli	a5,a5,0x20
    c0008046:	83f9                	srli	a5,a5,0x1e
    c0008048:	97ba                	add	a5,a5,a4
    c000804a:	4701                	li	a4,0
    c000804c:	c398                	sw	a4,0(a5)
    c000804e:	60a2                	ld	ra,8(sp)
    c0008050:	6402                	ld	s0,0(sp)
    c0008052:	0141                	addi	sp,sp,16
    c0008054:	8082                	ret
    c0008056:	557d                	li	a0,-1
    c0008058:	bfdd                	j	c000804e <clint_warm_ipi_init+0x34>

00000000c000805a <clint_cold_ipi_init>:
    c000805a:	1141                	addi	sp,sp,-16
    c000805c:	e422                	sd	s0,8(sp)
    c000805e:	0800                	addi	s0,sp,16
    c0008060:	00003797          	auipc	a5,0x3
    c0008064:	0a878793          	addi	a5,a5,168 # c000b108 <clint_ipi_hart_count>
    c0008068:	eb88                	sd	a0,16(a5)
    c000806a:	e788                	sd	a0,8(a5)
    c000806c:	c38c                	sw	a1,0(a5)
    c000806e:	6422                	ld	s0,8(sp)
    c0008070:	4501                	li	a0,0
    c0008072:	0141                	addi	sp,sp,16
    c0008074:	8082                	ret

00000000c0008076 <clint_timer_value>:
    c0008076:	1141                	addi	sp,sp,-16
    c0008078:	e022                	sd	s0,0(sp)
    c000807a:	e406                	sd	ra,8(sp)
    c000807c:	0800                	addi	s0,sp,16
    c000807e:	00003717          	auipc	a4,0x3
    c0008082:	08a70713          	addi	a4,a4,138 # c000b108 <clint_ipi_hart_count>
    c0008086:	00002797          	auipc	a5,0x2
    c000808a:	f8278793          	addi	a5,a5,-126 # c000a008 <clint_time_rd>
    c000808e:	639c                	ld	a5,0(a5)
    c0008090:	6f08                	ld	a0,24(a4)
    c0008092:	9782                	jalr	a5
    c0008094:	60a2                	ld	ra,8(sp)
    c0008096:	6402                	ld	s0,0(sp)
    c0008098:	0141                	addi	sp,sp,16
    c000809a:	8082                	ret

00000000c000809c <clint_timer_event_stop>:
    c000809c:	1141                	addi	sp,sp,-16
    c000809e:	e022                	sd	s0,0(sp)
    c00080a0:	e406                	sd	ra,8(sp)
    c00080a2:	0800                	addi	s0,sp,16
    c00080a4:	c52fe0ef          	jal	ra,c00064f6 <sbi_current_hartid>
    c00080a8:	00003797          	auipc	a5,0x3
    c00080ac:	06078793          	addi	a5,a5,96 # c000b108 <clint_ipi_hart_count>
    c00080b0:	5398                	lw	a4,32(a5)
    c00080b2:	2501                	sext.w	a0,a0
    c00080b4:	00e57e63          	bgeu	a0,a4,c00080d0 <clint_timer_event_stop+0x34>
    c00080b8:	778c                	ld	a1,40(a5)
    c00080ba:	1502                	slli	a0,a0,0x20
    c00080bc:	00002797          	auipc	a5,0x2
    c00080c0:	f4c78793          	addi	a5,a5,-180 # c000a008 <clint_time_rd>
    c00080c4:	9101                	srli	a0,a0,0x20
    c00080c6:	679c                	ld	a5,8(a5)
    c00080c8:	050e                	slli	a0,a0,0x3
    c00080ca:	95aa                	add	a1,a1,a0
    c00080cc:	557d                	li	a0,-1
    c00080ce:	9782                	jalr	a5
    c00080d0:	60a2                	ld	ra,8(sp)
    c00080d2:	6402                	ld	s0,0(sp)
    c00080d4:	0141                	addi	sp,sp,16
    c00080d6:	8082                	ret

00000000c00080d8 <clint_timer_event_start>:
    c00080d8:	1101                	addi	sp,sp,-32
    c00080da:	e822                	sd	s0,16(sp)
    c00080dc:	e426                	sd	s1,8(sp)
    c00080de:	ec06                	sd	ra,24(sp)
    c00080e0:	1000                	addi	s0,sp,32
    c00080e2:	84aa                	mv	s1,a0
    c00080e4:	c12fe0ef          	jal	ra,c00064f6 <sbi_current_hartid>
    c00080e8:	00003797          	auipc	a5,0x3
    c00080ec:	02078793          	addi	a5,a5,32 # c000b108 <clint_ipi_hart_count>
    c00080f0:	5398                	lw	a4,32(a5)
    c00080f2:	2501                	sext.w	a0,a0
    c00080f4:	00e57e63          	bgeu	a0,a4,c0008110 <clint_timer_event_start+0x38>
    c00080f8:	778c                	ld	a1,40(a5)
    c00080fa:	1502                	slli	a0,a0,0x20
    c00080fc:	00002797          	auipc	a5,0x2
    c0008100:	f0c78793          	addi	a5,a5,-244 # c000a008 <clint_time_rd>
    c0008104:	9101                	srli	a0,a0,0x20
    c0008106:	679c                	ld	a5,8(a5)
    c0008108:	050e                	slli	a0,a0,0x3
    c000810a:	95aa                	add	a1,a1,a0
    c000810c:	8526                	mv	a0,s1
    c000810e:	9782                	jalr	a5
    c0008110:	60e2                	ld	ra,24(sp)
    c0008112:	6442                	ld	s0,16(sp)
    c0008114:	64a2                	ld	s1,8(sp)
    c0008116:	6105                	addi	sp,sp,32
    c0008118:	8082                	ret

00000000c000811a <clint_warm_timer_init>:
    c000811a:	1141                	addi	sp,sp,-16
    c000811c:	e022                	sd	s0,0(sp)
    c000811e:	e406                	sd	ra,8(sp)
    c0008120:	0800                	addi	s0,sp,16
    c0008122:	bd4fe0ef          	jal	ra,c00064f6 <sbi_current_hartid>
    c0008126:	00003797          	auipc	a5,0x3
    c000812a:	fe278793          	addi	a5,a5,-30 # c000b108 <clint_ipi_hart_count>
    c000812e:	5398                	lw	a4,32(a5)
    c0008130:	2501                	sext.w	a0,a0
    c0008132:	02e57563          	bgeu	a0,a4,c000815c <clint_warm_timer_init+0x42>
    c0008136:	7b98                	ld	a4,48(a5)
    c0008138:	c315                	beqz	a4,c000815c <clint_warm_timer_init+0x42>
    c000813a:	778c                	ld	a1,40(a5)
    c000813c:	1502                	slli	a0,a0,0x20
    c000813e:	00002797          	auipc	a5,0x2
    c0008142:	eca78793          	addi	a5,a5,-310 # c000a008 <clint_time_rd>
    c0008146:	9101                	srli	a0,a0,0x20
    c0008148:	679c                	ld	a5,8(a5)
    c000814a:	050e                	slli	a0,a0,0x3
    c000814c:	95aa                	add	a1,a1,a0
    c000814e:	557d                	li	a0,-1
    c0008150:	9782                	jalr	a5
    c0008152:	4501                	li	a0,0
    c0008154:	60a2                	ld	ra,8(sp)
    c0008156:	6402                	ld	s0,0(sp)
    c0008158:	0141                	addi	sp,sp,16
    c000815a:	8082                	ret
    c000815c:	557d                	li	a0,-1
    c000815e:	bfdd                	j	c0008154 <clint_warm_timer_init+0x3a>

00000000c0008160 <clint_cold_timer_init>:
    c0008160:	1141                	addi	sp,sp,-16
    c0008162:	67b1                	lui	a5,0xc
    c0008164:	e422                	sd	s0,8(sp)
    c0008166:	17e1                	addi	a5,a5,-8
    c0008168:	0800                	addi	s0,sp,16
    c000816a:	6711                	lui	a4,0x4
    c000816c:	97aa                	add	a5,a5,a0
    c000816e:	972a                	add	a4,a4,a0
    c0008170:	00003697          	auipc	a3,0x3
    c0008174:	faf6b823          	sd	a5,-80(a3) # c000b120 <clint_time_val>
    c0008178:	00003697          	auipc	a3,0x3
    c000817c:	fab6a823          	sw	a1,-80(a3) # c000b128 <clint_time_hart_count>
    c0008180:	00003697          	auipc	a3,0x3
    c0008184:	faa6bc23          	sd	a0,-72(a3) # c000b138 <clint_time_base>
    c0008188:	00003797          	auipc	a5,0x3
    c000818c:	fae7b423          	sd	a4,-88(a5) # c000b130 <clint_time_cmp>
    c0008190:	c20d                	beqz	a2,c00081b2 <clint_cold_timer_init+0x52>
    c0008192:	00000797          	auipc	a5,0x0
    c0008196:	dd878793          	addi	a5,a5,-552 # c0007f6a <clint_time_rd64>
    c000819a:	00002717          	auipc	a4,0x2
    c000819e:	e6f73723          	sd	a5,-402(a4) # c000a008 <clint_time_rd>
    c00081a2:	00000797          	auipc	a5,0x0
    c00081a6:	dd678793          	addi	a5,a5,-554 # c0007f78 <clint_time_wr64>
    c00081aa:	00002717          	auipc	a4,0x2
    c00081ae:	e6f73323          	sd	a5,-410(a4) # c000a010 <clint_time_wr>
    c00081b2:	6422                	ld	s0,8(sp)
    c00081b4:	4501                	li	a0,0
    c00081b6:	0141                	addi	sp,sp,16
    c00081b8:	8082                	ret

00000000c00081ba <get_reg>:
    c00081ba:	1141                	addi	sp,sp,-16
    c00081bc:	e422                	sd	s0,8(sp)
    c00081be:	0800                	addi	s0,sp,16
    c00081c0:	00003697          	auipc	a3,0x3
    c00081c4:	f8068693          	addi	a3,a3,-128 # c000b140 <uart8250_reg_width>
    c00081c8:	4a98                	lw	a4,16(a3)
    c00081ca:	669c                	ld	a5,8(a3)
    c00081cc:	4294                	lw	a3,0(a3)
    c00081ce:	00e5153b          	sllw	a0,a0,a4
    c00081d2:	1502                	slli	a0,a0,0x20
    c00081d4:	9101                	srli	a0,a0,0x20
    c00081d6:	4705                	li	a4,1
    c00081d8:	97aa                	add	a5,a5,a0
    c00081da:	02e68763          	beq	a3,a4,c0008208 <get_reg+0x4e>
    c00081de:	4709                	li	a4,2
    c00081e0:	00e68a63          	beq	a3,a4,c00081f4 <get_reg+0x3a>
    c00081e4:	439c                	lw	a5,0(a5)
    c00081e6:	0007851b          	sext.w	a0,a5
    c00081ea:	0820000f          	fence	i,r
    c00081ee:	6422                	ld	s0,8(sp)
    c00081f0:	0141                	addi	sp,sp,16
    c00081f2:	8082                	ret
    c00081f4:	00079503          	lh	a0,0(a5)
    c00081f8:	1542                	slli	a0,a0,0x30
    c00081fa:	9141                	srli	a0,a0,0x30
    c00081fc:	0820000f          	fence	i,r
    c0008200:	6422                	ld	s0,8(sp)
    c0008202:	2501                	sext.w	a0,a0
    c0008204:	0141                	addi	sp,sp,16
    c0008206:	8082                	ret
    c0008208:	00078503          	lb	a0,0(a5)
    c000820c:	0ff57513          	andi	a0,a0,255
    c0008210:	0820000f          	fence	i,r
    c0008214:	6422                	ld	s0,8(sp)
    c0008216:	2501                	sext.w	a0,a0
    c0008218:	0141                	addi	sp,sp,16
    c000821a:	8082                	ret

00000000c000821c <set_reg>:
    c000821c:	1141                	addi	sp,sp,-16
    c000821e:	e422                	sd	s0,8(sp)
    c0008220:	0800                	addi	s0,sp,16
    c0008222:	00003717          	auipc	a4,0x3
    c0008226:	f1e70713          	addi	a4,a4,-226 # c000b140 <uart8250_reg_width>
    c000822a:	4b1c                	lw	a5,16(a4)
    c000822c:	4314                	lw	a3,0(a4)
    c000822e:	4605                	li	a2,1
    c0008230:	00f5153b          	sllw	a0,a0,a5
    c0008234:	1502                	slli	a0,a0,0x20
    c0008236:	9101                	srli	a0,a0,0x20
    c0008238:	02c68663          	beq	a3,a2,c0008264 <set_reg+0x48>
    c000823c:	4789                	li	a5,2
    c000823e:	00f68a63          	beq	a3,a5,c0008252 <set_reg+0x36>
    c0008242:	0140000f          	fence	w,o
    c0008246:	671c                	ld	a5,8(a4)
    c0008248:	953e                	add	a0,a0,a5
    c000824a:	c10c                	sw	a1,0(a0)
    c000824c:	6422                	ld	s0,8(sp)
    c000824e:	0141                	addi	sp,sp,16
    c0008250:	8082                	ret
    c0008252:	0140000f          	fence	w,o
    c0008256:	671c                	ld	a5,8(a4)
    c0008258:	953e                	add	a0,a0,a5
    c000825a:	00b51023          	sh	a1,0(a0)
    c000825e:	6422                	ld	s0,8(sp)
    c0008260:	0141                	addi	sp,sp,16
    c0008262:	8082                	ret
    c0008264:	0140000f          	fence	w,o
    c0008268:	671c                	ld	a5,8(a4)
    c000826a:	953e                	add	a0,a0,a5
    c000826c:	00b50023          	sb	a1,0(a0)
    c0008270:	6422                	ld	s0,8(sp)
    c0008272:	0141                	addi	sp,sp,16
    c0008274:	8082                	ret

00000000c0008276 <uart8250_putc>:
    c0008276:	1101                	addi	sp,sp,-32
    c0008278:	e822                	sd	s0,16(sp)
    c000827a:	e426                	sd	s1,8(sp)
    c000827c:	ec06                	sd	ra,24(sp)
    c000827e:	1000                	addi	s0,sp,32
    c0008280:	84aa                	mv	s1,a0
    c0008282:	4515                	li	a0,5
    c0008284:	f37ff0ef          	jal	ra,c00081ba <get_reg>
    c0008288:	02057513          	andi	a0,a0,32
    c000828c:	d97d                	beqz	a0,c0008282 <uart8250_putc+0xc>
    c000828e:	85a6                	mv	a1,s1
    c0008290:	4501                	li	a0,0
    c0008292:	f8bff0ef          	jal	ra,c000821c <set_reg>
    c0008296:	60e2                	ld	ra,24(sp)
    c0008298:	6442                	ld	s0,16(sp)
    c000829a:	64a2                	ld	s1,8(sp)
    c000829c:	6105                	addi	sp,sp,32
    c000829e:	8082                	ret

00000000c00082a0 <uart8250_getc>:
    c00082a0:	1141                	addi	sp,sp,-16
    c00082a2:	e022                	sd	s0,0(sp)
    c00082a4:	e406                	sd	ra,8(sp)
    c00082a6:	0800                	addi	s0,sp,16
    c00082a8:	4515                	li	a0,5
    c00082aa:	f11ff0ef          	jal	ra,c00081ba <get_reg>
    c00082ae:	8905                	andi	a0,a0,1
    c00082b0:	c909                	beqz	a0,c00082c2 <uart8250_getc+0x22>
    c00082b2:	4501                	li	a0,0
    c00082b4:	f07ff0ef          	jal	ra,c00081ba <get_reg>
    c00082b8:	2501                	sext.w	a0,a0
    c00082ba:	60a2                	ld	ra,8(sp)
    c00082bc:	6402                	ld	s0,0(sp)
    c00082be:	0141                	addi	sp,sp,16
    c00082c0:	8082                	ret
    c00082c2:	557d                	li	a0,-1
    c00082c4:	bfdd                	j	c00082ba <uart8250_getc+0x1a>

00000000c00082c6 <uart8250_init>:
    c00082c6:	1101                	addi	sp,sp,-32
    c00082c8:	0046161b          	slliw	a2,a2,0x4
    c00082cc:	e426                	sd	s1,8(sp)
    c00082ce:	02c5d4bb          	divuw	s1,a1,a2
    c00082d2:	ec06                	sd	ra,24(sp)
    c00082d4:	e822                	sd	s0,16(sp)
    c00082d6:	1000                	addi	s0,sp,32
    c00082d8:	00003797          	auipc	a5,0x3
    c00082dc:	e6878793          	addi	a5,a5,-408 # c000b140 <uart8250_reg_width>
    c00082e0:	e788                	sd	a0,8(a5)
    c00082e2:	4581                	li	a1,0
    c00082e4:	4505                	li	a0,1
    c00082e6:	cb94                	sw	a3,16(a5)
    c00082e8:	c398                	sw	a4,0(a5)
    c00082ea:	f33ff0ef          	jal	ra,c000821c <set_reg>
    c00082ee:	08000593          	li	a1,128
    c00082f2:	450d                	li	a0,3
    c00082f4:	f29ff0ef          	jal	ra,c000821c <set_reg>
    c00082f8:	4501                	li	a0,0
    c00082fa:	0ff4f593          	andi	a1,s1,255
    c00082fe:	2481                	sext.w	s1,s1
    c0008300:	0104949b          	slliw	s1,s1,0x10
    c0008304:	f19ff0ef          	jal	ra,c000821c <set_reg>
    c0008308:	0104d49b          	srliw	s1,s1,0x10
    c000830c:	0084d593          	srli	a1,s1,0x8
    c0008310:	4505                	li	a0,1
    c0008312:	f0bff0ef          	jal	ra,c000821c <set_reg>
    c0008316:	458d                	li	a1,3
    c0008318:	450d                	li	a0,3
    c000831a:	f03ff0ef          	jal	ra,c000821c <set_reg>
    c000831e:	4585                	li	a1,1
    c0008320:	4509                	li	a0,2
    c0008322:	efbff0ef          	jal	ra,c000821c <set_reg>
    c0008326:	4581                	li	a1,0
    c0008328:	4511                	li	a0,4
    c000832a:	ef3ff0ef          	jal	ra,c000821c <set_reg>
    c000832e:	4515                	li	a0,5
    c0008330:	e8bff0ef          	jal	ra,c00081ba <get_reg>
    c0008334:	4501                	li	a0,0
    c0008336:	e85ff0ef          	jal	ra,c00081ba <get_reg>
    c000833a:	451d                	li	a0,7
    c000833c:	4581                	li	a1,0
    c000833e:	edfff0ef          	jal	ra,c000821c <set_reg>
    c0008342:	60e2                	ld	ra,24(sp)
    c0008344:	6442                	ld	s0,16(sp)
    c0008346:	64a2                	ld	s1,8(sp)
    c0008348:	4501                	li	a0,0
    c000834a:	6105                	addi	sp,sp,32
    c000834c:	8082                	ret

00000000c000834e <get_f32_reg>:
    c000834e:	e0000553          	fmv.x.w	a0,ft0
    c0008352:	00028067          	jr	t0
    c0008356:	e0008553          	fmv.x.w	a0,ft1
    c000835a:	00028067          	jr	t0
    c000835e:	e0010553          	fmv.x.w	a0,ft2
    c0008362:	00028067          	jr	t0
    c0008366:	e0018553          	fmv.x.w	a0,ft3
    c000836a:	00028067          	jr	t0
    c000836e:	e0020553          	fmv.x.w	a0,ft4
    c0008372:	00028067          	jr	t0
    c0008376:	e0028553          	fmv.x.w	a0,ft5
    c000837a:	00028067          	jr	t0
    c000837e:	e0030553          	fmv.x.w	a0,ft6
    c0008382:	00028067          	jr	t0
    c0008386:	e0038553          	fmv.x.w	a0,ft7
    c000838a:	00028067          	jr	t0
    c000838e:	e0040553          	fmv.x.w	a0,fs0
    c0008392:	00028067          	jr	t0
    c0008396:	e0048553          	fmv.x.w	a0,fs1
    c000839a:	00028067          	jr	t0
    c000839e:	e0050553          	fmv.x.w	a0,fa0
    c00083a2:	00028067          	jr	t0
    c00083a6:	e0058553          	fmv.x.w	a0,fa1
    c00083aa:	00028067          	jr	t0
    c00083ae:	e0060553          	fmv.x.w	a0,fa2
    c00083b2:	00028067          	jr	t0
    c00083b6:	e0068553          	fmv.x.w	a0,fa3
    c00083ba:	00028067          	jr	t0
    c00083be:	e0070553          	fmv.x.w	a0,fa4
    c00083c2:	00028067          	jr	t0
    c00083c6:	e0078553          	fmv.x.w	a0,fa5
    c00083ca:	00028067          	jr	t0
    c00083ce:	e0080553          	fmv.x.w	a0,fa6
    c00083d2:	00028067          	jr	t0
    c00083d6:	e0088553          	fmv.x.w	a0,fa7
    c00083da:	00028067          	jr	t0
    c00083de:	e0090553          	fmv.x.w	a0,fs2
    c00083e2:	00028067          	jr	t0
    c00083e6:	e0098553          	fmv.x.w	a0,fs3
    c00083ea:	00028067          	jr	t0
    c00083ee:	e00a0553          	fmv.x.w	a0,fs4
    c00083f2:	00028067          	jr	t0
    c00083f6:	e00a8553          	fmv.x.w	a0,fs5
    c00083fa:	00028067          	jr	t0
    c00083fe:	e00b0553          	fmv.x.w	a0,fs6
    c0008402:	00028067          	jr	t0
    c0008406:	e00b8553          	fmv.x.w	a0,fs7
    c000840a:	00028067          	jr	t0
    c000840e:	e00c0553          	fmv.x.w	a0,fs8
    c0008412:	00028067          	jr	t0
    c0008416:	e00c8553          	fmv.x.w	a0,fs9
    c000841a:	00028067          	jr	t0
    c000841e:	e00d0553          	fmv.x.w	a0,fs10
    c0008422:	00028067          	jr	t0
    c0008426:	e00d8553          	fmv.x.w	a0,fs11
    c000842a:	00028067          	jr	t0
    c000842e:	e00e0553          	fmv.x.w	a0,ft8
    c0008432:	00028067          	jr	t0
    c0008436:	e00e8553          	fmv.x.w	a0,ft9
    c000843a:	00028067          	jr	t0
    c000843e:	e00f0553          	fmv.x.w	a0,ft10
    c0008442:	00028067          	jr	t0
    c0008446:	e00f8553          	fmv.x.w	a0,ft11
    c000844a:	00028067          	jr	t0

00000000c000844e <put_f32_reg>:
    c000844e:	f0050053          	fmv.w.x	ft0,a0
    c0008452:	00028067          	jr	t0
    c0008456:	f00500d3          	fmv.w.x	ft1,a0
    c000845a:	00028067          	jr	t0
    c000845e:	f0050153          	fmv.w.x	ft2,a0
    c0008462:	00028067          	jr	t0
    c0008466:	f00501d3          	fmv.w.x	ft3,a0
    c000846a:	00028067          	jr	t0
    c000846e:	f0050253          	fmv.w.x	ft4,a0
    c0008472:	00028067          	jr	t0
    c0008476:	f00502d3          	fmv.w.x	ft5,a0
    c000847a:	00028067          	jr	t0
    c000847e:	f0050353          	fmv.w.x	ft6,a0
    c0008482:	00028067          	jr	t0
    c0008486:	f00503d3          	fmv.w.x	ft7,a0
    c000848a:	00028067          	jr	t0
    c000848e:	f0050453          	fmv.w.x	fs0,a0
    c0008492:	00028067          	jr	t0
    c0008496:	f00504d3          	fmv.w.x	fs1,a0
    c000849a:	00028067          	jr	t0
    c000849e:	f0050553          	fmv.w.x	fa0,a0
    c00084a2:	00028067          	jr	t0
    c00084a6:	f00505d3          	fmv.w.x	fa1,a0
    c00084aa:	00028067          	jr	t0
    c00084ae:	f0050653          	fmv.w.x	fa2,a0
    c00084b2:	00028067          	jr	t0
    c00084b6:	f00506d3          	fmv.w.x	fa3,a0
    c00084ba:	00028067          	jr	t0
    c00084be:	f0050753          	fmv.w.x	fa4,a0
    c00084c2:	00028067          	jr	t0
    c00084c6:	f00507d3          	fmv.w.x	fa5,a0
    c00084ca:	00028067          	jr	t0
    c00084ce:	f0050853          	fmv.w.x	fa6,a0
    c00084d2:	00028067          	jr	t0
    c00084d6:	f00508d3          	fmv.w.x	fa7,a0
    c00084da:	00028067          	jr	t0
    c00084de:	f0050953          	fmv.w.x	fs2,a0
    c00084e2:	00028067          	jr	t0
    c00084e6:	f00509d3          	fmv.w.x	fs3,a0
    c00084ea:	00028067          	jr	t0
    c00084ee:	f0050a53          	fmv.w.x	fs4,a0
    c00084f2:	00028067          	jr	t0
    c00084f6:	f0050ad3          	fmv.w.x	fs5,a0
    c00084fa:	00028067          	jr	t0
    c00084fe:	f0050b53          	fmv.w.x	fs6,a0
    c0008502:	00028067          	jr	t0
    c0008506:	f0050bd3          	fmv.w.x	fs7,a0
    c000850a:	00028067          	jr	t0
    c000850e:	f0050c53          	fmv.w.x	fs8,a0
    c0008512:	00028067          	jr	t0
    c0008516:	f0050cd3          	fmv.w.x	fs9,a0
    c000851a:	00028067          	jr	t0
    c000851e:	f0050d53          	fmv.w.x	fs10,a0
    c0008522:	00028067          	jr	t0
    c0008526:	f0050dd3          	fmv.w.x	fs11,a0
    c000852a:	00028067          	jr	t0
    c000852e:	f0050e53          	fmv.w.x	ft8,a0
    c0008532:	00028067          	jr	t0
    c0008536:	f0050ed3          	fmv.w.x	ft9,a0
    c000853a:	00028067          	jr	t0
    c000853e:	f0050f53          	fmv.w.x	ft10,a0
    c0008542:	00028067          	jr	t0
    c0008546:	f0050fd3          	fmv.w.x	ft11,a0
    c000854a:	00028067          	jr	t0

00000000c000854e <get_f64_reg>:
    c000854e:	e2000553          	fmv.x.d	a0,ft0
    c0008552:	00028067          	jr	t0
    c0008556:	e2008553          	fmv.x.d	a0,ft1
    c000855a:	00028067          	jr	t0
    c000855e:	e2010553          	fmv.x.d	a0,ft2
    c0008562:	00028067          	jr	t0
    c0008566:	e2018553          	fmv.x.d	a0,ft3
    c000856a:	00028067          	jr	t0
    c000856e:	e2020553          	fmv.x.d	a0,ft4
    c0008572:	00028067          	jr	t0
    c0008576:	e2028553          	fmv.x.d	a0,ft5
    c000857a:	00028067          	jr	t0
    c000857e:	e2030553          	fmv.x.d	a0,ft6
    c0008582:	00028067          	jr	t0
    c0008586:	e2038553          	fmv.x.d	a0,ft7
    c000858a:	00028067          	jr	t0
    c000858e:	e2040553          	fmv.x.d	a0,fs0
    c0008592:	00028067          	jr	t0
    c0008596:	e2048553          	fmv.x.d	a0,fs1
    c000859a:	00028067          	jr	t0
    c000859e:	e2050553          	fmv.x.d	a0,fa0
    c00085a2:	00028067          	jr	t0
    c00085a6:	e2058553          	fmv.x.d	a0,fa1
    c00085aa:	00028067          	jr	t0
    c00085ae:	e2060553          	fmv.x.d	a0,fa2
    c00085b2:	00028067          	jr	t0
    c00085b6:	e2068553          	fmv.x.d	a0,fa3
    c00085ba:	00028067          	jr	t0
    c00085be:	e2070553          	fmv.x.d	a0,fa4
    c00085c2:	00028067          	jr	t0
    c00085c6:	e2078553          	fmv.x.d	a0,fa5
    c00085ca:	00028067          	jr	t0
    c00085ce:	e2080553          	fmv.x.d	a0,fa6
    c00085d2:	00028067          	jr	t0
    c00085d6:	e2088553          	fmv.x.d	a0,fa7
    c00085da:	00028067          	jr	t0
    c00085de:	e2090553          	fmv.x.d	a0,fs2
    c00085e2:	00028067          	jr	t0
    c00085e6:	e2098553          	fmv.x.d	a0,fs3
    c00085ea:	00028067          	jr	t0
    c00085ee:	e20a0553          	fmv.x.d	a0,fs4
    c00085f2:	00028067          	jr	t0
    c00085f6:	e20a8553          	fmv.x.d	a0,fs5
    c00085fa:	00028067          	jr	t0
    c00085fe:	e20b0553          	fmv.x.d	a0,fs6
    c0008602:	00028067          	jr	t0
    c0008606:	e20b8553          	fmv.x.d	a0,fs7
    c000860a:	00028067          	jr	t0
    c000860e:	e20c0553          	fmv.x.d	a0,fs8
    c0008612:	00028067          	jr	t0
    c0008616:	e20c8553          	fmv.x.d	a0,fs9
    c000861a:	00028067          	jr	t0
    c000861e:	e20d0553          	fmv.x.d	a0,fs10
    c0008622:	00028067          	jr	t0
    c0008626:	e20d8553          	fmv.x.d	a0,fs11
    c000862a:	00028067          	jr	t0
    c000862e:	e20e0553          	fmv.x.d	a0,ft8
    c0008632:	00028067          	jr	t0
    c0008636:	e20e8553          	fmv.x.d	a0,ft9
    c000863a:	00028067          	jr	t0
    c000863e:	e20f0553          	fmv.x.d	a0,ft10
    c0008642:	00028067          	jr	t0
    c0008646:	e20f8553          	fmv.x.d	a0,ft11
    c000864a:	00028067          	jr	t0

00000000c000864e <put_f64_reg>:
    c000864e:	f2050053          	fmv.d.x	ft0,a0
    c0008652:	00028067          	jr	t0
    c0008656:	f20500d3          	fmv.d.x	ft1,a0
    c000865a:	00028067          	jr	t0
    c000865e:	f2050153          	fmv.d.x	ft2,a0
    c0008662:	00028067          	jr	t0
    c0008666:	f20501d3          	fmv.d.x	ft3,a0
    c000866a:	00028067          	jr	t0
    c000866e:	f2050253          	fmv.d.x	ft4,a0
    c0008672:	00028067          	jr	t0
    c0008676:	f20502d3          	fmv.d.x	ft5,a0
    c000867a:	00028067          	jr	t0
    c000867e:	f2050353          	fmv.d.x	ft6,a0
    c0008682:	00028067          	jr	t0
    c0008686:	f20503d3          	fmv.d.x	ft7,a0
    c000868a:	00028067          	jr	t0
    c000868e:	f2050453          	fmv.d.x	fs0,a0
    c0008692:	00028067          	jr	t0
    c0008696:	f20504d3          	fmv.d.x	fs1,a0
    c000869a:	00028067          	jr	t0
    c000869e:	f2050553          	fmv.d.x	fa0,a0
    c00086a2:	00028067          	jr	t0
    c00086a6:	f20505d3          	fmv.d.x	fa1,a0
    c00086aa:	00028067          	jr	t0
    c00086ae:	f2050653          	fmv.d.x	fa2,a0
    c00086b2:	00028067          	jr	t0
    c00086b6:	f20506d3          	fmv.d.x	fa3,a0
    c00086ba:	00028067          	jr	t0
    c00086be:	f2050753          	fmv.d.x	fa4,a0
    c00086c2:	00028067          	jr	t0
    c00086c6:	f20507d3          	fmv.d.x	fa5,a0
    c00086ca:	00028067          	jr	t0
    c00086ce:	f2050853          	fmv.d.x	fa6,a0
    c00086d2:	00028067          	jr	t0
    c00086d6:	f20508d3          	fmv.d.x	fa7,a0
    c00086da:	00028067          	jr	t0
    c00086de:	f2050953          	fmv.d.x	fs2,a0
    c00086e2:	00028067          	jr	t0
    c00086e6:	f20509d3          	fmv.d.x	fs3,a0
    c00086ea:	00028067          	jr	t0
    c00086ee:	f2050a53          	fmv.d.x	fs4,a0
    c00086f2:	00028067          	jr	t0
    c00086f6:	f2050ad3          	fmv.d.x	fs5,a0
    c00086fa:	00028067          	jr	t0
    c00086fe:	f2050b53          	fmv.d.x	fs6,a0
    c0008702:	00028067          	jr	t0
    c0008706:	f2050bd3          	fmv.d.x	fs7,a0
    c000870a:	00028067          	jr	t0
    c000870e:	f2050c53          	fmv.d.x	fs8,a0
    c0008712:	00028067          	jr	t0
    c0008716:	f2050cd3          	fmv.d.x	fs9,a0
    c000871a:	00028067          	jr	t0
    c000871e:	f2050d53          	fmv.d.x	fs10,a0
    c0008722:	00028067          	jr	t0
    c0008726:	f2050dd3          	fmv.d.x	fs11,a0
    c000872a:	00028067          	jr	t0
    c000872e:	f2050e53          	fmv.d.x	ft8,a0
    c0008732:	00028067          	jr	t0
    c0008736:	f2050ed3          	fmv.d.x	ft9,a0
    c000873a:	00028067          	jr	t0
    c000873e:	f2050f53          	fmv.d.x	ft10,a0
    c0008742:	00028067          	jr	t0
    c0008746:	f2050fd3          	fmv.d.x	ft11,a0
    c000874a:	00028067          	jr	t0

00000000c000874e <sbi_emulate_csr_read>:
    c000874e:	1101                	addi	sp,sp,-32
    c0008750:	e822                	sd	s0,16(sp)
    c0008752:	ec06                	sd	ra,24(sp)
    c0008754:	1000                	addi	s0,sp,32
    c0008756:	10964803          	lbu	a6,265(a2)
    c000875a:	10864883          	lbu	a7,264(a2)
    c000875e:	10a64783          	lbu	a5,266(a2)
    c0008762:	10b64e03          	lbu	t3,267(a2)
    c0008766:	10c64303          	lbu	t1,268(a2)
    c000876a:	0822                	slli	a6,a6,0x8
    c000876c:	01186833          	or	a6,a6,a7
    c0008770:	07c2                	slli	a5,a5,0x10
    c0008772:	10d64883          	lbu	a7,269(a2)
    c0008776:	0107e7b3          	or	a5,a5,a6
    c000877a:	0e62                	slli	t3,t3,0x18
    c000877c:	10e64803          	lbu	a6,270(a2)
    c0008780:	00fe6e33          	or	t3,t3,a5
    c0008784:	1302                	slli	t1,t1,0x20
    c0008786:	10f64783          	lbu	a5,271(a2)
    c000878a:	01c36333          	or	t1,t1,t3
    c000878e:	18a2                	slli	a7,a7,0x28
    c0008790:	0068e8b3          	or	a7,a7,t1
    c0008794:	1842                	slli	a6,a6,0x30
    c0008796:	01186833          	or	a6,a6,a7
    c000879a:	17e2                	slli	a5,a5,0x38
    c000879c:	0107e7b3          	or	a5,a5,a6
    c00087a0:	00b7d613          	srli	a2,a5,0xb
    c00087a4:	8a0d                	andi	a2,a2,3
    c00087a6:	939d                	srli	a5,a5,0x27
    c00087a8:	88b6                	mv	a7,a3
    c00087aa:	8b85                	andi	a5,a5,1
    c00087ac:	e621                	bnez	a2,c00087f4 <sbi_emulate_csr_read+0xa6>
    c00087ae:	10602373          	csrr	t1,scounteren
    c00087b2:	6685                	lui	a3,0x1
    c00087b4:	b0368813          	addi	a6,a3,-1277 # b03 <_fw_start-0xbffff4fd>
    c00087b8:	11050a63          	beq	a0,a6,c00088cc <sbi_emulate_csr_read+0x17e>
    c00087bc:	06a85663          	bge	a6,a0,c0008828 <sbi_emulate_csr_read+0xda>
    c00087c0:	c0068613          	addi	a2,a3,-1024
    c00087c4:	0ec50863          	beq	a0,a2,c00088b4 <sbi_emulate_csr_read+0x166>
    c00087c8:	0aa65a63          	bge	a2,a0,c000887c <sbi_emulate_csr_read+0x12e>
    c00087cc:	c0168613          	addi	a2,a3,-1023
    c00087d0:	0cc50063          	beq	a0,a2,c0008890 <sbi_emulate_csr_read+0x142>
    c00087d4:	c0268693          	addi	a3,a3,-1022
    c00087d8:	06d51463          	bne	a0,a3,c0008840 <sbi_emulate_csr_read+0xf2>
    c00087dc:	00437313          	andi	t1,t1,4
    c00087e0:	0a030663          	beqz	t1,c000888c <sbi_emulate_csr_read+0x13e>
    c00087e4:	b02027f3          	csrr	a5,minstret
    c00087e8:	4501                	li	a0,0
    c00087ea:	e31c                	sd	a5,0(a4)
    c00087ec:	60e2                	ld	ra,24(sp)
    c00087ee:	6442                	ld	s0,16(sp)
    c00087f0:	6105                	addi	sp,sp,32
    c00087f2:	8082                	ret
    c00087f4:	6685                	lui	a3,0x1
    c00087f6:	b0368813          	addi	a6,a3,-1277 # b03 <_fw_start-0xbffff4fd>
    c00087fa:	0d050d63          	beq	a0,a6,c00088d4 <sbi_emulate_csr_read+0x186>
    c00087fe:	02a85563          	bge	a6,a0,c0008828 <sbi_emulate_csr_read+0xda>
    c0008802:	c0068613          	addi	a2,a3,-1024
    c0008806:	0ac50b63          	beq	a0,a2,c00088bc <sbi_emulate_csr_read+0x16e>
    c000880a:	04a65d63          	bge	a2,a0,c0008864 <sbi_emulate_csr_read+0x116>
    c000880e:	c0168613          	addi	a2,a3,-1023
    c0008812:	08c50363          	beq	a0,a2,c0008898 <sbi_emulate_csr_read+0x14a>
    c0008816:	c0268693          	addi	a3,a3,-1022
    c000881a:	02d51363          	bne	a0,a3,c0008840 <sbi_emulate_csr_read+0xf2>
    c000881e:	b02027f3          	csrr	a5,minstret
    c0008822:	4501                	li	a0,0
    c0008824:	e31c                	sd	a5,0(a4)
    c0008826:	b7d9                	j	c00087ec <sbi_emulate_csr_read+0x9e>
    c0008828:	32400693          	li	a3,804
    c000882c:	0ed50563          	beq	a0,a3,c0008916 <sbi_emulate_csr_read+0x1c8>
    c0008830:	60500693          	li	a3,1541
    c0008834:	0ad50863          	beq	a0,a3,c00088e4 <sbi_emulate_csr_read+0x196>
    c0008838:	32300793          	li	a5,803
    c000883c:	0cf50563          	beq	a0,a5,c0008906 <sbi_emulate_csr_read+0x1b8>
    c0008840:	872a                	mv	a4,a0
    c0008842:	86ae                	mv	a3,a1
    c0008844:	00001617          	auipc	a2,0x1
    c0008848:	24c60613          	addi	a2,a2,588 # c0009a90 <__func__.1190>
    c000884c:	00001597          	auipc	a1,0x1
    c0008850:	27458593          	addi	a1,a1,628 # c0009ac0 <__func__.1216+0x18>
    c0008854:	8546                	mv	a0,a7
    c0008856:	951fc0ef          	jal	ra,c00051a6 <sbi_dprintf>
    c000885a:	60e2                	ld	ra,24(sp)
    c000885c:	6442                	ld	s0,16(sp)
    c000885e:	5579                	li	a0,-2
    c0008860:	6105                	addi	sp,sp,32
    c0008862:	8082                	ret
    c0008864:	b0468693          	addi	a3,a3,-1276
    c0008868:	fcd51ce3          	bne	a0,a3,c0008840 <sbi_emulate_csr_read+0xf2>
    c000886c:	b04027f3          	csrr	a5,mhpmcounter4
    c0008870:	e31c                	sd	a5,0(a4)
    c0008872:	60e2                	ld	ra,24(sp)
    c0008874:	6442                	ld	s0,16(sp)
    c0008876:	4501                	li	a0,0
    c0008878:	6105                	addi	sp,sp,32
    c000887a:	8082                	ret
    c000887c:	b0468693          	addi	a3,a3,-1276
    c0008880:	fcd510e3          	bne	a0,a3,c0008840 <sbi_emulate_csr_read+0xf2>
    c0008884:	01037313          	andi	t1,t1,16
    c0008888:	fe0312e3          	bnez	t1,c000886c <sbi_emulate_csr_read+0x11e>
    c000888c:	557d                	li	a0,-1
    c000888e:	bfb9                	j	c00087ec <sbi_emulate_csr_read+0x9e>
    c0008890:	00237313          	andi	t1,t1,2
    c0008894:	fe030ce3          	beqz	t1,c000888c <sbi_emulate_csr_read+0x13e>
    c0008898:	fee43423          	sd	a4,-24(s0)
    c000889c:	8546                	mv	a0,a7
    c000889e:	c7c1                	beqz	a5,c0008926 <sbi_emulate_csr_read+0x1d8>
    c00088a0:	c0af90ef          	jal	ra,c0001caa <sbi_timer_virt_value>
    c00088a4:	fe843703          	ld	a4,-24(s0)
    c00088a8:	e308                	sd	a0,0(a4)
    c00088aa:	60e2                	ld	ra,24(sp)
    c00088ac:	6442                	ld	s0,16(sp)
    c00088ae:	4501                	li	a0,0
    c00088b0:	6105                	addi	sp,sp,32
    c00088b2:	8082                	ret
    c00088b4:	00137313          	andi	t1,t1,1
    c00088b8:	fc030ae3          	beqz	t1,c000888c <sbi_emulate_csr_read+0x13e>
    c00088bc:	b00027f3          	csrr	a5,mcycle
    c00088c0:	e31c                	sd	a5,0(a4)
    c00088c2:	60e2                	ld	ra,24(sp)
    c00088c4:	6442                	ld	s0,16(sp)
    c00088c6:	4501                	li	a0,0
    c00088c8:	6105                	addi	sp,sp,32
    c00088ca:	8082                	ret
    c00088cc:	00837313          	andi	t1,t1,8
    c00088d0:	fa030ee3          	beqz	t1,c000888c <sbi_emulate_csr_read+0x13e>
    c00088d4:	b03027f3          	csrr	a5,mhpmcounter3
    c00088d8:	e31c                	sd	a5,0(a4)
    c00088da:	60e2                	ld	ra,24(sp)
    c00088dc:	6442                	ld	s0,16(sp)
    c00088de:	4501                	li	a0,0
    c00088e0:	6105                	addi	sp,sp,32
    c00088e2:	8082                	ret
    c00088e4:	fee43423          	sd	a4,-24(s0)
    c00088e8:	4685                	li	a3,1
    c00088ea:	f4d61be3          	bne	a2,a3,c0008840 <sbi_emulate_csr_read+0xf2>
    c00088ee:	fba9                	bnez	a5,c0008840 <sbi_emulate_csr_read+0xf2>
    c00088f0:	8546                	mv	a0,a7
    c00088f2:	cbaf90ef          	jal	ra,c0001dac <sbi_timer_get_delta>
    c00088f6:	fe843703          	ld	a4,-24(s0)
    c00088fa:	e308                	sd	a0,0(a4)
    c00088fc:	60e2                	ld	ra,24(sp)
    c00088fe:	6442                	ld	s0,16(sp)
    c0008900:	4501                	li	a0,0
    c0008902:	6105                	addi	sp,sp,32
    c0008904:	8082                	ret
    c0008906:	323027f3          	csrr	a5,mhpmevent3
    c000890a:	e31c                	sd	a5,0(a4)
    c000890c:	60e2                	ld	ra,24(sp)
    c000890e:	6442                	ld	s0,16(sp)
    c0008910:	4501                	li	a0,0
    c0008912:	6105                	addi	sp,sp,32
    c0008914:	8082                	ret
    c0008916:	324027f3          	csrr	a5,mhpmevent4
    c000891a:	e31c                	sd	a5,0(a4)
    c000891c:	60e2                	ld	ra,24(sp)
    c000891e:	6442                	ld	s0,16(sp)
    c0008920:	4501                	li	a0,0
    c0008922:	6105                	addi	sp,sp,32
    c0008924:	8082                	ret
    c0008926:	aa0f90ef          	jal	ra,c0001bc6 <sbi_timer_value>
    c000892a:	fe843703          	ld	a4,-24(s0)
    c000892e:	bfad                	j	c00088a8 <sbi_emulate_csr_read+0x15a>

00000000c0008930 <sbi_emulate_csr_write>:
    c0008930:	6805                	lui	a6,0x1
    c0008932:	b0380893          	addi	a7,a6,-1277 # b03 <_fw_start-0xbffff4fd>
    c0008936:	07150b63          	beq	a0,a7,c00089ac <sbi_emulate_csr_write+0x7c>
    c000893a:	1141                	addi	sp,sp,-16
    c000893c:	e022                	sd	s0,0(sp)
    c000893e:	e406                	sd	ra,8(sp)
    c0008940:	0800                	addi	s0,sp,16
    c0008942:	8336                	mv	t1,a3
    c0008944:	87aa                	mv	a5,a0
    c0008946:	04a8d063          	bge	a7,a0,c0008986 <sbi_emulate_csr_write+0x56>
    c000894a:	c0080613          	addi	a2,a6,-1024
    c000894e:	06c50363          	beq	a0,a2,c00089b4 <sbi_emulate_csr_write+0x84>
    c0008952:	c0280613          	addi	a2,a6,-1022
    c0008956:	06c50663          	beq	a0,a2,c00089c2 <sbi_emulate_csr_write+0x92>
    c000895a:	b0480813          	addi	a6,a6,-1276
    c000895e:	07050963          	beq	a0,a6,c00089d0 <sbi_emulate_csr_write+0xa0>
    c0008962:	86ae                	mv	a3,a1
    c0008964:	873e                	mv	a4,a5
    c0008966:	00001617          	auipc	a2,0x1
    c000896a:	14260613          	addi	a2,a2,322 # c0009aa8 <__func__.1216>
    c000896e:	00001597          	auipc	a1,0x1
    c0008972:	15258593          	addi	a1,a1,338 # c0009ac0 <__func__.1216+0x18>
    c0008976:	851a                	mv	a0,t1
    c0008978:	82ffc0ef          	jal	ra,c00051a6 <sbi_dprintf>
    c000897c:	60a2                	ld	ra,8(sp)
    c000897e:	6402                	ld	s0,0(sp)
    c0008980:	5579                	li	a0,-2
    c0008982:	0141                	addi	sp,sp,16
    c0008984:	8082                	ret
    c0008986:	32400813          	li	a6,804
    c000898a:	05050a63          	beq	a0,a6,c00089de <sbi_emulate_csr_write+0xae>
    c000898e:	60500813          	li	a6,1541
    c0008992:	05050d63          	beq	a0,a6,c00089ec <sbi_emulate_csr_write+0xbc>
    c0008996:	32300613          	li	a2,803
    c000899a:	fcc514e3          	bne	a0,a2,c0008962 <sbi_emulate_csr_write+0x32>
    c000899e:	32371073          	csrw	mhpmevent3,a4
    c00089a2:	60a2                	ld	ra,8(sp)
    c00089a4:	6402                	ld	s0,0(sp)
    c00089a6:	4501                	li	a0,0
    c00089a8:	0141                	addi	sp,sp,16
    c00089aa:	8082                	ret
    c00089ac:	b0371073          	csrw	mhpmcounter3,a4
    c00089b0:	4501                	li	a0,0
    c00089b2:	8082                	ret
    c00089b4:	b0071073          	csrw	mcycle,a4
    c00089b8:	60a2                	ld	ra,8(sp)
    c00089ba:	6402                	ld	s0,0(sp)
    c00089bc:	4501                	li	a0,0
    c00089be:	0141                	addi	sp,sp,16
    c00089c0:	8082                	ret
    c00089c2:	b0271073          	csrw	minstret,a4
    c00089c6:	60a2                	ld	ra,8(sp)
    c00089c8:	6402                	ld	s0,0(sp)
    c00089ca:	4501                	li	a0,0
    c00089cc:	0141                	addi	sp,sp,16
    c00089ce:	8082                	ret
    c00089d0:	b0471073          	csrw	mhpmcounter4,a4
    c00089d4:	60a2                	ld	ra,8(sp)
    c00089d6:	6402                	ld	s0,0(sp)
    c00089d8:	4501                	li	a0,0
    c00089da:	0141                	addi	sp,sp,16
    c00089dc:	8082                	ret
    c00089de:	32471073          	csrw	mhpmevent4,a4
    c00089e2:	60a2                	ld	ra,8(sp)
    c00089e4:	6402                	ld	s0,0(sp)
    c00089e6:	4501                	li	a0,0
    c00089e8:	0141                	addi	sp,sp,16
    c00089ea:	8082                	ret
    c00089ec:	10964503          	lbu	a0,265(a2)
    c00089f0:	10864803          	lbu	a6,264(a2)
    c00089f4:	10a64683          	lbu	a3,266(a2)
    c00089f8:	10b64e03          	lbu	t3,267(a2)
    c00089fc:	10c64883          	lbu	a7,268(a2)
    c0008a00:	0522                	slli	a0,a0,0x8
    c0008a02:	01056533          	or	a0,a0,a6
    c0008a06:	06c2                	slli	a3,a3,0x10
    c0008a08:	10d64803          	lbu	a6,269(a2)
    c0008a0c:	8ec9                	or	a3,a3,a0
    c0008a0e:	0e62                	slli	t3,t3,0x18
    c0008a10:	10e64503          	lbu	a0,270(a2)
    c0008a14:	00de6e33          	or	t3,t3,a3
    c0008a18:	1882                	slli	a7,a7,0x20
    c0008a1a:	10f64683          	lbu	a3,271(a2)
    c0008a1e:	01c8e8b3          	or	a7,a7,t3
    c0008a22:	02881613          	slli	a2,a6,0x28
    c0008a26:	01166833          	or	a6,a2,a7
    c0008a2a:	03051613          	slli	a2,a0,0x30
    c0008a2e:	01066633          	or	a2,a2,a6
    c0008a32:	16e2                	slli	a3,a3,0x38
    c0008a34:	8ed1                	or	a3,a3,a2
    c0008a36:	00b6d613          	srli	a2,a3,0xb
    c0008a3a:	8a0d                	andi	a2,a2,3
    c0008a3c:	4505                	li	a0,1
    c0008a3e:	f2a612e3          	bne	a2,a0,c0008962 <sbi_emulate_csr_write+0x32>
    c0008a42:	01869613          	slli	a2,a3,0x18
    c0008a46:	f0064ee3          	bltz	a2,c0008962 <sbi_emulate_csr_write+0x32>
    c0008a4a:	851a                	mv	a0,t1
    c0008a4c:	85ba                	mv	a1,a4
    c0008a4e:	b78f90ef          	jal	ra,c0001dc6 <sbi_timer_set_delta>
    c0008a52:	60a2                	ld	ra,8(sp)
    c0008a54:	6402                	ld	s0,0(sp)
    c0008a56:	4501                	li	a0,0
    c0008a58:	0141                	addi	sp,sp,16
    c0008a5a:	8082                	ret
    c0008a5c:	0000                	unimp
	...
